(dp0
S'limited'
p1
(lp2
S'ponctuel'
p3
asS'valve'
p4
(lp5
S'soupape'
p6
asS'magnetic'
p7
(lp8
S'magn\xc3\xa9tique'
p9
asS'comparatively'
p10
(lp11
S'relativement'
p12
asS'foul'
p13
(lp14
S'mauvais'
p15
asS'four'
p16
(lp17
S'quatre'
p18
asS'rapid'
p19
(lp20
S'rapide'
p21
asS'laterally'
p22
(lp23
S'lat\xc3\xa9ralement'
p24
asS'sleep'
p25
(lp26
S'sommeil'
p27
asS'controversial'
p28
(lp29
S'pol\xc3\xa9mique'
p30
asS'rampart'
p31
(lp32
S'rempart'
p33
asS'centimeter'
p34
(lp35
S'centim\xc3\xa8tre'
p36
asS'weakly'
p37
(lp38
S'faiblement'
p39
asS'forget'
p40
(lp41
S'laisser'
p42
asS'whose'
p43
(lp44
S'dont'
p45
asS'feeding'
p46
(lp47
S'alimentation'
p48
asS'calculate'
p49
(lp50
S'estimer'
p51
asS'electricity'
p52
(lp53
S'\xc3\xa9lectricit\xc3\xa9'
p54
asS'spew'
p55
(lp56
S'vomir'
p57
asS'vulcanology'
p58
(lp59
S'volcanologie'
p60
asS'basaltic'
p61
(lp62
S'basaltique'
p63
asS'under'
p64
(lp65
S'sous'
p66
asS'recycle'
p67
(lp68
S'r\xc3\xa9cup\xc3\xa9rer'
p69
asS'lord'
p70
(lp71
S'seigneur'
p72
asS'verdant'
p73
(lp74
S'verdoyant'
p75
asS'worth'
p76
(lp77
S'valeur'
p78
asS'divergent'
p79
(lp80
S'divergent'
p81
asS'slow-moving'
p82
(lp83
S'lent'
p84
asS'lure'
p85
(lp86
S'attirer'
p87
asS'rescue'
p88
(lp89
S'd\xc3\xa9livrer'
p90
asS'geology'
p91
(lp92
S'g\xc3\xa9ologie'
p93
asS'blanket'
p94
(lp95
S'couche'
p96
asS'regional'
p97
(lp98
S'r\xc3\xa9gional'
p99
asS'lurk'
p100
(lp101
S'menacer'
p102
asS'shoot'
p103
(lp104
S'atteindre'
p105
asS'every'
p106
(lp107
S'tout'
p108
asS'jack'
p109
(lp110
S'bouchon'
p111
asS'affect'
p112
(lp113
S'atteindre'
p114
asS'postpone'
p115
(lp116
S'renvoyer'
p117
asS'encounter'
p118
(lp119
S'retrouver'
p120
asS'disturb'
p121
(lp122
S'perturber'
p123
asS'scholar'
p124
(lp125
S'savant'
p126
asS'naturalist'
p127
(lp128
S'naturaliste'
p129
asS'wooden'
p130
(lp131
S'raide'
p132
asS'protest'
p133
(lp134
S'manifestation'
p135
asS'tern'
p136
(lp137
S'sterne'
p138
asS'viable'
p139
(lp140
S'solide'
p141
asS'succession'
p142
(lp143
S's\xc3\xa9rie'
p144
asS'enhance'
p145
(lp146
S'augmenter'
p147
asS'path'
p148
(lp149
S'route'
p150
asS'overview'
p151
(lp152
S'panorama'
p153
asS'precursor'
p154
(lp155
S'pr\xc3\xa9curseur'
p156
asS'build-up'
p157
(lp158
S'accumulation'
p159
asS'clothes'
p160
(lp161
S'v\xc3\xaatement'
p162
asS'enjoy'
p163
(lp164
S'conna\xc3\xaetre'
p165
asS'farmhouse'
p166
(lp167
S'ferme'
p168
asS'glassy'
p169
(lp170
S'vitreux'
p171
asS'force'
p172
(lp173
S'violence'
p174
asS'specially'
p175
(lp176
S'particuli\xc3\xa8rement'
p177
asS'consistent'
p178
(lp179
S'r\xc3\xa9gulier'
p180
asS'tectonics'
p181
(lp182
S'tectonique'
p183
asS'direct'
p184
(lp185
S'porter'
p186
asS'pulse'
p187
(lp188
S'vibration'
p189
asS'horn'
p190
(lp191
S'cr\xc3\xaate'
p192
asS'surrounding'
p193
(lp194
S'alentour'
p195
asS'likely'
p196
(lp197
S'probablement'
p198
asS'persuade'
p199
(lp200
S'd\xc3\xa9cider'
p201
asS'manner'
p202
(lp203
S'fa\xc3\xa7on'
p204
asS'colourful'
p205
(lp206
S'pittoresque'
p207
asS'theory'
p208
(lp209
S'th\xc3\xa9orie'
p210
asS'blue'
p211
(lp212
S'ciel'
p213
asS'dormancy'
p214
(lp215
S'inactivit\xc3\xa9'
p216
asS'hide'
p217
(lp218
S'recouvrir'
p219
asS'rekindle'
p220
(lp221
S'r\xc3\xa9chauffer'
p222
asS'hazy'
p223
(lp224
S'vague'
p225
asS'liberated'
p226
(lp227
S'lib\xc3\xa9r\xc3\xa9'
p228
asS'haze'
p229
(lp230
S'vapeur'
p231
asS'above'
p232
(lp233
S'sur'
p234
asS'conduct'
p235
(lp236
S'diriger'
p237
asS'neat'
p238
(lp239
S'fin'
p240
asS'net'
p241
(lp242
S'voile'
p243
asS'poorly'
p244
(lp245
S'mal'
p246
asS'ever'
p247
(lp248
S'toujours'
p249
asS'admiral'
p250
(lp251
S'amiral'
p252
asS'submerged'
p253
(lp254
S'immerg\xc3\xa9'
p255
asS'crunch'
p256
(lp257
S'\xc3\xa9craser'
p258
asS'simultaneously'
p259
(lp260
S'simultan\xc3\xa9ment'
p261
asS'lithosphere'
p262
(lp263
S'lithosph\xc3\xa8re'
p264
asS'never'
p265
(lp266
S'jamais'
p267
asS'here'
p268
(lp269
S'alors'
p270
asS'herd'
p271
(lp272
S'conduire'
p273
asS'met'
p274
(lp275
S'm\xc3\xa9t\xc3\xa9o'
p276
asS'protection'
p277
(lp278
S'abri'
p279
asS'possibility'
p280
(lp281
S'possibilit\xc3\xa9'
p282
asS'active'
p283
(lp284
S'actif'
p285
asS'aftermath'
p286
(lp287
S'regain'
p288
asS'interpret'
p289
(lp290
S'traduire'
p291
asS'celebration'
p292
(lp293
S'c\xc3\xa9l\xc3\xa9bration'
p294
asS'dry'
p295
(lp296
S'froid'
p297
asS'property'
p298
(lp299
S'bien'
p300
asS'swing'
p301
(lp302
S'lancer'
p303
asS'slow'
p304
(lp305
S'faible'
p306
asS'elaborate'
p307
(lp308
S'\xc3\xa9laborer'
p309
asS'quiescent'
p310
(lp311
S'passif'
p312
asS'precede'
p313
(lp314
S'pr\xc3\xa9c\xc3\xa9der'
p315
asS'credit'
p316
(lp317
S'avoir'
p318
asS'smoke'
p319
(lp320
S'fum\xc3\xa9e'
p321
asS'permit'
p322
(lp323
S'permettre'
p324
asS'military'
p325
(lp326
S'militaire'
p327
asS'pack'
p328
(lp329
S'plaque'
p330
asS'climber'
p331
(lp332
S'alpiniste'
p333
asS'intersperse'
p334
(lp335
S'r\xc3\xa9pandre'
p336
asS'gravimetric'
p337
(lp338
S'gravim\xc3\xa9trique'
p339
asS'appropriately'
p340
(lp341
S'convenablement'
p342
asS'fantastic'
p343
(lp344
S'formidable'
p345
asS'topography'
p346
(lp347
S'topographie'
p348
asS'divide'
p349
(lp350
S's\xc3\xa9parer'
p351
asS'classification'
p352
(lp353
S'classification'
p354
asS'straw'
p355
(lp356
S'chalumeau'
p357
asS'seven'
p358
(lp359
S'sept'
p360
asS'highly'
p361
(lp362
S'tr\xc3\xa8s'
p363
asS'elude'
p364
(lp365
S'\xc3\xa9viter'
p366
asS'visible'
p367
(lp368
S'visible'
p369
asS'remnant'
p370
(lp371
S'd\xc3\xa9bris'
p372
asS'archaeological'
p373
(lp374
S'arch\xc3\xa9ologique'
p375
asS'removal'
p376
(lp377
S'disparition'
p378
asS'landscape'
p379
(lp380
S'paysage'
p381
asS'plot'
p382
(lp383
S'terrain'
p384
asS'plow'
p385
(lp386
S'creuser'
p387
asS'ore'
p388
(lp389
S'minerai'
p390
asS'army'
p391
(lp392
S'militaire'
p393
asS'overshadow'
p394
(lp395
S'dominer'
p396
asS'lessening'
p397
(lp398
S'diminution'
p399
asS'call'
p400
(lp401
S'trouver'
p402
asS'bedrock'
p403
(lp404
S'base'
p405
asS'knoll'
p406
(lp407
S'monticule'
p408
asS'strike'
p409
(lp410
S'trouver'
p411
asS'survive'
p412
(lp413
S'subsister'
p414
asS'assessment'
p415
(lp416
S'bilan'
p417
asS'tell'
p418
(lp419
S'voir'
p420
asS'breathe'
p421
(lp422
S'pousser'
p423
asS'relay'
p424
(lp425
S'reposer'
p426
asS'composite'
p427
(lp428
S'compos\xc3\xa9'
p429
asS'remark'
p430
(lp431
S'observer'
p432
asS'expose'
p433
(lp434
S'r\xc3\xa9v\xc3\xa9ler'
p435
asS'meteorologist'
p436
(lp437
S'm\xc3\xa9t\xc3\xa9orologiste'
p438
asS'disruption'
p439
(lp440
S'perturbation'
p441
asS'warm'
p442
(lp443
S'ardent'
p444
asS'excellent'
p445
(lp446
S'parfait'
p447
asS'organic'
p448
(lp449
S'naturel'
p450
asS'hole'
p451
(lp452
S'trou'
p453
asS'hold'
p454
(lp455
S'avoir'
p456
asS'squad'
p457
(lp458
S'\xc3\xa9quipe'
p459
asS'overrun'
p460
(lp461
S'd\xc3\xa9passer'
p462
asS'abundance'
p463
(lp464
S'abondance'
p465
asS'te'
p466
(lp467
S'si'
p468
asS'join'
p469
(lp470
S'retrouver'
p471
asS'g'
p472
(lp473
S'sol'
p474
asS'pursue'
p475
(lp476
S'suivre'
p477
asS'blade'
p478
(lp479
S'fer'
p480
asS'roof'
p481
(lp482
S'couvrir'
p483
asS'oxide'
p484
(lp485
S'oxyde'
p486
asS'rim'
p487
(lp488
S'bord'
p489
asS'modify'
p490
(lp491
S'transformer'
p492
asS'era'
p493
(lp494
S'temps'
p495
asS'install'
p496
(lp497
S'mettre'
p498
asS'shelve'
p499
(lp500
S'rayonner'
p501
asS'exhale'
p502
(lp503
S'exhaler'
p504
asS'rework'
p505
(lp506
S'remanier'
p507
asS'my'
p508
(lp509
S'mon'
p510
asS'example'
p511
(lp512
S'cas'
p513
asS'give'
p514
(lp515
S'faire'
p516
asS'climax'
p517
(lp518
S'apog\xc3\xa9e'
p519
asS'reach'
p520
(lp521
S'atteindre'
p522
asS'involve'
p523
(lp524
S'm\xc3\xaaler'
p525
asS'mayhem'
p526
(lp527
S'destruction'
p528
asS'strengthen'
p529
(lp530
S'augmenter'
p531
asS'woman'
p532
(lp533
S'femme'
p534
asS'want'
p535
(lp536
S'devoir'
p537
asS'times'
p538
(lp539
S'temps'
p540
asS'attract'
p541
(lp542
S'attirer'
p543
asS'dyke'
p544
(lp545
S'dyke'
p546
asS'absolute'
p547
(lp548
S'total'
p549
asS'end'
p550
(lp551
S'partie'
p552
asS'recovery'
p553
(lp554
S'reprise'
p555
asS'thing'
p556
(lp557
S'chose'
p558
asS'provide'
p559
(lp560
S'pr\xc3\xa9voir'
p561
asS'travel'
p562
(lp563
S'aller'
p564
asS'feature'
p565
(lp566
S'repr\xc3\xa9senter'
p567
asS'machine'
p568
(lp569
S'appareil'
p570
asS'how'
p571
(lp572
S'que'
p573
asS'amazing'
p574
(lp575
S'\xc3\xa9norme'
p576
asS'adjacent'
p577
(lp578
S'voisin'
p579
asS'significance'
p580
(lp581
S'importance'
p582
asS'answer'
p583
(lp584
S'remplir'
p585
asS'ordinary'
p586
(lp587
S'moyen'
p588
asS'faulty'
p589
(lp590
S'mauvais'
p591
asS'beach'
p592
(lp593
S'plage'
p594
asS'void'
p595
(lp596
S'\xc3\xa9vacuer'
p597
asS'classify'
p598
(lp599
S'classer'
p600
asS'badly'
p601
(lp602
S'mal'
p603
asS'rise'
p604
(lp605
S'pente'
p606
asS'description'
p607
(lp608
S'sorte'
p609
asS'less'
p610
(lp611
S'moins'
p612
asS'earlier'
p613
(lp614
S'avant'
p615
asS'lab'
p616
(lp617
S'laboratoire'
p618
asS'diagram'
p619
(lp620
S'figure'
p621
asS'modest'
p622
(lp623
S'modeste'
p624
asS'fragile'
p625
(lp626
S'd\xc3\xa9licat'
p627
asS'lay'
p628
(lp629
S'former'
p630
asS'president'
p631
(lp632
S'pr\xc3\xa9sident'
p633
asS'summarize'
p634
(lp635
S'r\xc3\xa9sumer'
p636
asS'meaningful'
p637
(lp638
S'important'
p639
asS'parallel'
p640
(lp641
S'parall\xc3\xa8lement'
p642
asS'severity'
p643
(lp644
S'violence'
p645
asS'inactivity'
p646
(lp647
S'inactivit\xc3\xa9'
p648
asS'attempt'
p649
(lp650
S'essai'
p651
asS'driblet'
p652
(lp653
S'gouttelette'
p654
asS'effective'
p655
(lp656
S'v\xc3\xa9ritable'
p657
asS'amid'
p658
(lp659
S'parmi'
p660
asS'spout'
p661
(lp662
S'jaillir'
p663
asS'appreciate'
p664
(lp665
S'estimer'
p666
asS'headquarters'
p667
(lp668
S'si\xc3\xa8ge'
p669
asS'fictional'
p670
(lp671
S'fictif'
p672
asS'scare'
p673
(lp674
S'effaroucher'
p675
asS'aeolian'
p676
(lp677
S'\xc3\xa9olien'
p678
asS'maintain'
p679
(lp680
S'observer'
p681
asS'green'
p682
(lp683
S'jeune'
p684
asS'correlation'
p685
(lp686
S'corr\xc3\xa9lation'
p687
asS'plumbing'
p688
(lp689
S'tuyauterie'
p690
asS'ultraviolet'
p691
(lp692
S'ultraviolet'
p693
asS'inhabitant'
p694
(lp695
S'habitant'
p696
asS'operate'
p697
(lp698
S'diriger'
p699
asS'order'
p700
(lp701
S'sorte'
p702
asS'wind'
p703
(lp704
S'gaz'
p705
asS'wine'
p706
(lp707
S'cru'
p708
asS'interpretation'
p709
(lp710
S'interpr\xc3\xa9tation'
p711
asS'office'
p712
(lp713
S'devoir'
p714
asS'deck'
p715
(lp716
S'plateau'
p717
asS'hectare'
p718
(lp719
S'hectare'
p720
asS'alternation'
p721
(lp722
S'alternance'
p723
asS'fall'
p724
(lp725
S'pente'
p726
asS'vary'
p727
(lp728
S'varier'
p729
asS'underside'
p730
(lp731
S'dessous'
p732
asS'jerry'
p733
(lp734
S'jules'
p735
asS'presence'
p736
(lp737
S'pr\xc3\xa9sence'
p738
asS'suspend'
p739
(lp740
S'exclure'
p741
asS'gigantic'
p742
(lp743
S'gigantesque'
p744
asS'butcher'
p745
(lp746
S'tuer'
p747
asS'thesis'
p748
(lp749
S'th\xc3\xa8se'
p750
asS'sludge'
p751
(lp752
S'boue'
p753
asS'budding'
p754
(lp755
S'naissant'
p756
asS'before'
p757
(lp758
S'avant'
p759
asS'fir'
p760
(lp761
S'sapin'
p762
asS'unknown'
p763
(lp764
S'\xc3\xa9tranger'
p765
asS'deathly'
p766
(lp767
S'mortel'
p768
asS'destroyer'
p769
(lp770
S'meurtrier'
p771
asS'fix'
p772
(lp773
S'arr\xc3\xaater'
p774
asS'crew'
p775
(lp776
S'\xc3\xa9quipe'
p777
asS'plantation'
p778
(lp779
S'plantation'
p780
asS'production'
p781
(lp782
S'\xc5\x93uvre'
p783
asS'compelling'
p784
(lp785
S'incontestable'
p786
asS'missionary'
p787
(lp788
S'missionnaire'
p789
asS'fade'
p790
(lp791
S'passer'
p792
asS'carve'
p793
(lp794
S'tailler'
p795
asS'precipitate'
p796
(lp797
S'pr\xc3\xa9cipiter'
p798
asS'centimetre'
p799
(lp800
S'centim\xc3\xa8tre'
p801
asS'belly'
p802
(lp803
S'gonfler'
p804
asS'eventually'
p805
(lp806
S'finalement'
p807
asS'coffee'
p808
(lp809
S'caf\xc3\xa9'
p810
asS'tourist'
p811
(lp812
S'touriste'
p813
asS'combination'
p814
(lp815
S'r\xc3\xa9union'
p816
asS'fragment'
p817
(lp818
S'd\xc3\xa9bris'
p819
asS'powerful'
p820
(lp821
S'violent'
p822
asS'plaster'
p823
(lp824
S'couvrir'
p825
asS'incorrectly'
p826
(lp827
S'mal'
p828
asS'runny'
p829
(lp830
S'liquide'
p831
asS'break'
p832
(lp833
S'dresser'
p834
asS'band'
p835
(lp836
S'groupe'
p837
asS'bang'
p838
(lp839
S'coup'
p840
asS'detachment'
p841
(lp842
S's\xc3\xa9paration'
p843
asS'they'
p844
(lp845
S'il'
p846
asS'interrupt'
p847
(lp848
S'interrompre'
p849
asS'man-made'
p850
(lp851
S'artificiel'
p852
asS'one'
p853
(lp854
S'un'
p855
asS'tourism'
p856
(lp857
S'tourisme'
p858
asS'humanity'
p859
(lp860
S'humanit\xc3\xa9'
p861
asS'bank'
p862
(lp863
S'massif'
p864
asS'rocky'
p865
(lp866
S'instable'
p867
asS'oxygen'
p868
(lp869
S'oxyg\xc3\xa8ne'
p870
asS'regularly'
p871
(lp872
S'r\xc3\xa9guli\xc3\xa8rement'
p873
asS'explode'
p874
(lp875
S'exploser'
p876
asS'filling'
p877
(lp878
S'remplissage'
p879
asS'reasonable'
p880
(lp881
S'mod\xc3\xa9r\xc3\xa9'
p882
asS'each'
p883
(lp884
S'chaque'
p885
asS'volcano'
p886
(lp887
S'volcan'
p888
asS'meal'
p889
(lp890
S'farine'
p891
asS'lofty'
p892
(lp893
S'grand'
p894
asS'wheel'
p895
(lp896
S'tour'
p897
asS'swathe'
p898
(lp899
S'envelopper'
p900
asS'evolve'
p901
(lp902
S'd\xc3\xa9velopper'
p903
asS'series'
p904
(lp905
S'ensemble'
p906
asS'displacement'
p907
(lp908
S'faille'
p909
asS'aide'
p910
(lp911
S'aide'
p912
asS'tip'
p913
(lp914
S'd\xc3\xa9poser'
p915
asS'uninhabitable'
p916
(lp917
S'inhabitable'
p918
asS'rind'
p919
(lp920
S'cro\xc3\xbbte'
p921
asS'laboratory'
p922
(lp923
S'laboratoire'
p924
asS'dawn'
p925
(lp926
S'naissance'
p927
asS'message'
p928
(lp929
S'communication'
p930
asS'whip'
p931
(lp932
S'barboter'
p933
asS'contend'
p934
(lp935
S'soutenir'
p936
asS'trench'
p937
(lp938
S'foss\xc3\xa9'
p939
asS'network'
p940
(lp941
S'r\xc3\xa9seau'
p942
asS'sector'
p943
(lp944
S'zone'
p945
asS'gradient'
p946
(lp947
S'pente'
p948
asS'god'
p949
(lp950
S'dieu'
p951
asS'crucial'
p952
(lp953
S'critique'
p954
asS'gradation'
p955
(lp956
S'progression'
p957
asS'angular'
p958
(lp959
S'maigre'
p960
asS'content'
p961
(lp962
S'fond'
p963
asS'encourage'
p964
(lp965
S'favoriser'
p966
asS'moisture'
p967
(lp968
S'humidit\xc3\xa9'
p969
asS'millennium'
p970
(lp971
S'mill\xc3\xa9naire'
p972
asS'precision'
p973
(lp974
S'pr\xc3\xa9cision'
p975
asS'assignment'
p976
(lp977
S'devoir'
p978
asS'surprise'
p979
(lp980
S'surprendre'
p981
asS'newly'
p982
(lp983
S'r\xc3\xa9cemment'
p984
asS'size'
p985
(lp986
S'taille'
p987
asS'sluggish'
p988
(lp989
S'calme'
p990
asS'outburst'
p991
(lp992
S'\xc3\xa9ruption'
p993
asS'linear'
p994
(lp995
S'lin\xc3\xa9aire'
p996
asS'barrier'
p997
(lp998
S'mur'
p999
asS'associate'
p1000
(lp1001
S'associer'
p1002
asS'eternal'
p1003
(lp1004
S'perp\xc3\xa9tuel'
p1005
asS'sheer'
p1006
(lp1007
S'm\xc3\xaame'
p1008
asS'free'
p1009
(lp1010
S'lib\xc3\xa9rer'
p1011
asS'ascending'
p1012
(lp1013
S'ascendant'
p1014
asS'run-up'
p1015
(lp1016
S'augmentation'
p1017
asS'management'
p1018
(lp1019
S'direction'
p1020
asS'formation'
p1021
(lp1022
S'formation'
p1023
asS'struggle'
p1024
(lp1025
S'partie'
p1026
asS'abate'
p1027
(lp1028
S'tomber'
p1029
asS'estimate'
p1030
(lp1031
S'estimer'
p1032
asS'superimpose'
p1033
(lp1034
S'superposer'
p1035
asS'storm'
p1036
(lp1037
S'pluie'
p1038
asS'chlorine'
p1039
(lp1040
S'chlore'
p1041
asS'widespread'
p1042
(lp1043
S'consid\xc3\xa9rable'
p1044
asS'enormous'
p1045
(lp1046
S'\xc3\xa9norme'
p1047
asS'moment'
p1048
(lp1049
S'heure'
p1050
asS'dispersal'
p1051
(lp1052
S'\xc3\xa9coulement'
p1053
asS'silicon'
p1054
(lp1055
S'silicium'
p1056
asS'waterfall'
p1057
(lp1058
S'cascade'
p1059
asS'fleck'
p1060
(lp1061
S'particule'
p1062
asS'signature'
p1063
(lp1064
S'signature'
p1065
asS'methane'
p1066
(lp1067
S'm\xc3\xa9thane'
p1068
asS'loud'
p1069
(lp1070
S'grand'
p1071
asS'already'
p1072
(lp1073
S'd\xc3\xa9j\xc3\xa0'
p1074
asS'features'
p1075
(lp1076
S'faci\xc3\xa8s'
p1077
asS'render'
p1078
(lp1079
S'donner'
p1080
asS'grade'
p1081
(lp1082
S'ann\xc3\xa9e'
p1083
asS'encouraging'
p1084
(lp1085
S'encourageant'
p1086
asS'hoot'
p1087
(lp1088
S'siffler'
p1089
asS'peculiarity'
p1090
(lp1091
S'propre'
p1092
asS'wash'
p1093
(lp1094
S'rejeter'
p1095
asS'deplete'
p1096
(lp1097
S'r\xc3\xa9duire'
p1098
asS'another'
p1099
(lp1100
S'autre'
p1101
asS'insulation'
p1102
(lp1103
S'isolant'
p1104
asS'radiate'
p1105
(lp1106
S'\xc3\xa9mettre'
p1107
asS'navigator'
p1108
(lp1109
S'marin'
p1110
asS'electronic'
p1111
(lp1112
S'\xc3\xa9lectronique'
p1113
asS'illustrate'
p1114
(lp1115
S'illustrer'
p1116
asS'mercury'
p1117
(lp1118
S'mercure'
p1119
asS'toy'
p1120
(lp1121
S'petit'
p1122
asS'service'
p1123
(lp1124
S'service'
p1125
asS'their'
p1126
(lp1127
S'son'
p1128
asS'fifty'
p1129
(lp1130
S'cinquante'
p1131
asS'top'
p1132
(lp1133
S'dernier'
p1134
asS'twisted'
p1135
(lp1136
S'faux'
p1137
asS'approximately'
p1138
(lp1139
S'environ'
p1140
asS'stack'
p1141
(lp1142
S'chemin\xc3\xa9e'
p1143
asS'plentiful'
p1144
(lp1145
S'abondant'
p1146
asS'intermediate'
p1147
(lp1148
S'moyen'
p1149
asS'master'
p1150
(lp1151
S'principal'
p1152
asS'too'
p1153
(lp1154
S'aussi'
p1155
asS'dwell'
p1156
(lp1157
S'habiter'
p1158
asS'inflate'
p1159
(lp1160
S'charger'
p1161
asS'farming'
p1162
(lp1163
S'culture'
p1164
asS'genesis'
p1165
(lp1166
S'origine'
p1167
asS'unbroken'
p1168
(lp1169
S'continu'
p1170
asS'inflow'
p1171
(lp1172
S'mont\xc3\xa9e'
p1173
asS'troubled'
p1174
(lp1175
S'trouble'
p1176
asS'collapse'
p1177
(lp1178
S'retomber'
p1179
asS'tool'
p1180
(lp1181
S'travailler'
p1182
asS'serve'
p1183
(lp1184
S'monter'
p1185
asS'narrowly'
p1186
(lp1187
S'\xc3\xa9troitement'
p1188
asS'western'
p1189
(lp1190
S'ouest'
p1191
asS'sulphur'
p1192
(lp1193
S'soufre'
p1194
asS'pristine'
p1195
(lp1196
S'parfait'
p1197
asS'subduction'
p1198
(lp1199
S'subduction'
p1200
asS'distance'
p1201
(lp1202
S'distance'
p1203
asS'trek'
p1204
(lp1205
S'cheminer'
p1206
asS'peril'
p1207
(lp1208
S'danger'
p1209
asS'scenario'
p1210
(lp1211
S'sc\xc3\xa9nario'
p1212
asS'hike'
p1213
(lp1214
S'augmenter'
p1215
asS'tree'
p1216
(lp1217
S'forme'
p1218
asS'bitterness'
p1219
(lp1220
S'violence'
p1221
asS'unmistakable'
p1222
(lp1223
S'caract\xc3\xa9ristique'
p1224
asS'preparation'
p1225
(lp1226
S'\xc3\xa9tude'
p1227
asS'matter'
p1228
(lp1229
S'fond'
p1230
asS'street'
p1231
(lp1232
S'rue'
p1233
asS'flame'
p1234
(lp1235
S'feu'
p1236
asS'endure'
p1237
(lp1238
S'rester'
p1239
asS'historical'
p1240
(lp1241
S'historique'
p1242
asS'feeling'
p1243
(lp1244
S'\xc3\xa9motion'
p1245
asS'solely'
p1246
(lp1247
S'seulement'
p1248
asS'bridge'
p1249
(lp1250
S'pont'
p1251
asS'seep'
p1252
(lp1253
S'filtrer'
p1254
asS'quench'
p1255
(lp1256
S'\xc3\xa9teindre'
p1257
asS'modern'
p1258
(lp1259
S'moderne'
p1260
asS'mind'
p1261
(lp1262
S'raison'
p1263
asS'spectrum'
p1264
(lp1265
S'gamme'
p1266
asS'rat'
p1267
(lp1268
S'vache'
p1269
asS'lull'
p1270
(lp1271
S'arr\xc3\xaat'
p1272
asS'stomach'
p1273
(lp1274
S'supporter'
p1275
asS'seem'
p1276
(lp1277
S'appara\xc3\xaetre'
p1278
asS'churn'
p1279
(lp1280
S'bouillonner'
p1281
asS'seek'
p1282
(lp1283
S'poursuivre'
p1284
asS'dozen'
p1285
(lp1286
S'douzaine'
p1287
asS'strength'
p1288
(lp1289
S'titre'
p1290
asS'genuine'
p1291
(lp1292
S'v\xc3\xa9ritable'
p1293
asS'mostly'
p1294
(lp1295
S'surtout'
p1296
asS'widen'
p1297
(lp1298
S'augmenter'
p1299
asS'person'
p1300
(lp1301
S'\xc3\xaatre'
p1302
asS'latter'
p1303
(lp1304
S'dernier'
p1305
asS'responsible'
p1306
(lp1307
S'responsable'
p1308
asS'haste'
p1309
(lp1310
S'diligence'
p1311
asS'investment'
p1312
(lp1313
S'investissement'
p1314
asS'transmit'
p1315
(lp1316
S'\xc3\xa9mettre'
p1317
asS'cleft'
p1318
(lp1319
S'fissure'
p1320
asS'even'
p1321
(lp1322
S'm\xc3\xaame'
p1323
asS'shallow'
p1324
(lp1325
S'superficiel'
p1326
asS'though'
p1327
(lp1328
S'cependant'
p1329
asS'toxic'
p1330
(lp1331
S'toxique'
p1332
asS'object'
p1333
(lp1334
S'fin'
p1335
asS'viscosity'
p1336
(lp1337
S'viscosit\xc3\xa9'
p1338
asS'what'
p1339
(lp1340
S'que'
p1341
asS'anatomy'
p1342
(lp1343
S'structure'
p1344
asS'rumble'
p1345
(lp1346
S'd\xc3\xa9couvrir'
p1347
asS'regular'
p1348
(lp1349
S'v\xc3\xa9ritable'
p1350
asS'mouth'
p1351
(lp1352
S'bouche'
p1353
asS'portion'
p1354
(lp1355
S'partie'
p1356
asS'letter'
p1357
(lp1358
S'lettre'
p1359
asS'organization'
p1360
(lp1361
S'structure'
p1362
asS'phase'
p1363
(lp1364
S'phase'
p1365
asS'drought'
p1366
(lp1367
S's\xc3\xa9cheresse'
p1368
asS'grave'
p1369
(lp1370
S'important'
p1371
asS'glow'
p1372
(lp1373
S'feu'
p1374
asS'mitigate'
p1375
(lp1376
S'r\xc3\xa9duire'
p1377
asS'don'
p1378
(lp1379
S'mettre'
p1380
asS'observation'
p1381
(lp1382
S'surveillance'
p1383
asS'alarm'
p1384
(lp1385
S'r\xc3\xa9veil'
p1386
asS'devastating'
p1387
(lp1388
S'profond'
p1389
asS'flow'
p1390
(lp1391
S'couler'
p1392
asS'dog'
p1393
(lp1394
S'suivre'
p1395
asS'swamp'
p1396
(lp1397
S'inonder'
p1398
asS'orderly'
p1399
(lp1400
S'r\xc3\xa9gulier'
p1401
asS'definitely'
p1402
(lp1403
S'bien'
p1404
asS'prevention'
p1405
(lp1406
S'pr\xc3\xa9vention'
p1407
asS'trave'
p1408
(lp1409
S'travail'
p1410
asS'pineapple'
p1411
(lp1412
S'ananas'
p1413
asS'stubby'
p1414
(lp1415
S'\xc3\xa9pais'
p1416
asS'amphitheatre'
p1417
(lp1418
S'cirque'
p1419
asS'scream'
p1420
(lp1421
S'cri'
p1422
asS'dot'
p1423
(lp1424
S'point'
p1425
asS'marvel'
p1426
(lp1427
S'\xc3\xa9tonner'
p1428
asS'advisory'
p1429
(lp1430
S'alerte'
p1431
asS'bomb'
p1432
(lp1433
S'bombe'
p1434
asS'inspire'
p1435
(lp1436
S'inspirer'
p1437
asS'visitor'
p1438
(lp1439
S'visiteur'
p1440
asS'laccolith'
p1441
(lp1442
S'laccolithe'
p1443
asS'probe'
p1444
(lp1445
S'sonde'
p1446
asS'precarious'
p1447
(lp1448
S'pr\xc3\xa9caire'
p1449
asS'brief'
p1450
(lp1451
S'cause'
p1452
asS'maverick'
p1453
(lp1454
S'ind\xc3\xa9pendant'
p1455
asS'radio'
p1456
(lp1457
S'radio'
p1458
asS'poison'
p1459
(lp1460
S'toxique'
p1461
asS'participate'
p1462
(lp1463
S'participer'
p1464
asS'lethal'
p1465
(lp1466
S'meurtrier'
p1467
asS'earth'
p1468
(lp1469
S'terre'
p1470
asS'smog'
p1471
(lp1472
S'brouillard'
p1473
asS'availability'
p1474
(lp1475
S'disponibilit\xc3\xa9'
p1476
asS'toast'
p1477
(lp1478
S'arroser'
p1479
asS'stoop'
p1480
(lp1481
S'plonger'
p1482
asS'busy'
p1483
(lp1484
S'plein'
p1485
asS'resemblance'
p1486
(lp1487
S'ressemblance'
p1488
asS'painfully'
p1489
(lp1490
S'terriblement'
p1491
asS'headline'
p1492
(lp1493
S'titre'
p1494
asS'explain'
p1495
(lp1496
S'pr\xc3\xa9senter'
p1497
asS'sentence'
p1498
(lp1499
S'peine'
p1500
asS'such'
p1501
(lp1502
S'si'
p1503
asS'cripple'
p1504
(lp1505
S'bloquer'
p1506
asS'haven'
p1507
(lp1508
S'port'
p1509
asS'restrict'
p1510
(lp1511
S'encadrer'
p1512
asS'geologist'
p1513
(lp1514
S'g\xc3\xa9ologue'
p1515
asS'rich'
p1516
(lp1517
S'riche'
p1518
asS'lodge'
p1519
(lp1520
S'd\xc3\xa9poser'
p1521
asS'announce'
p1522
(lp1523
S'annoncer'
p1524
asS'adequate'
p1525
(lp1526
S'suffisant'
p1527
asS'rice'
p1528
(lp1529
S'riz'
p1530
asS'do'
p1531
(lp1532
S'faire'
p1533
asS'mixture'
p1534
(lp1535
S'm\xc3\xa9lange'
p1536
asS'terrifying'
p1537
(lp1538
S'terrible'
p1539
asS'fossil'
p1540
(lp1541
S'fossile'
p1542
asS'colorful'
p1543
(lp1544
S'pittoresque'
p1545
asS'toll'
p1546
(lp1547
S'bilan'
p1548
asS'stop'
p1549
(lp1550
S'point'
p1551
asS'fluid'
p1552
(lp1553
S'fluide'
p1554
asS'coast'
p1555
(lp1556
S'c\xc3\xb4te'
p1557
asS'pocket'
p1558
(lp1559
S'poche'
p1560
asS'cushion'
p1561
(lp1562
S'coussin'
p1563
asS'despite'
p1564
(lp1565
S'malgr\xc3\xa9'
p1566
asS'report'
p1567
(lp1568
S'explosion'
p1569
asS'reconstruct'
p1570
(lp1571
S'reconstituer'
p1572
asS'nasty'
p1573
(lp1574
S'dangereux'
p1575
asS'tribute'
p1576
(lp1577
S'hommage'
p1578
asS'unfortunately'
p1579
(lp1580
S'malheureusement'
p1581
asS'infrequent'
p1582
(lp1583
S'rare'
p1584
asS'earn'
p1585
(lp1586
S'gagner'
p1587
asS'extrusive'
p1588
(lp1589
S'extrusif'
p1590
asS'igneous'
p1591
(lp1592
S'ign\xc3\xa9'
p1593
asS'shape'
p1594
(lp1595
S'forme'
p1596
asS'bay'
p1597
(lp1598
S'golfe'
p1599
asS'bag'
p1600
(lp1601
S'tuer'
p1602
asS'bad'
p1603
(lp1604
S'gros'
p1605
asS'erupt'
p1606
(lp1607
S'appara\xc3\xaetre'
p1608
asS'troop'
p1609
(lp1610
S'groupe'
p1611
asS'ban'
p1612
(lp1613
S'exclure'
p1614
asS'automatic'
p1615
(lp1616
S'm\xc3\xa9canique'
p1617
asS'steam'
p1618
(lp1619
S'vapeur'
p1620
asS'secretary'
p1621
(lp1622
S'ministre'
p1623
asS'respond'
p1624
(lp1625
S'r\xc3\xa9pondre'
p1626
asS'disaster'
p1627
(lp1628
S'catastrophe'
p1629
asS'fair'
p1630
(lp1631
S'moyen'
p1632
asS'specialist'
p1633
(lp1634
S'sp\xc3\xa9cialiste'
p1635
asS'testing'
p1636
(lp1637
S'mesure'
p1638
asS'rivulet'
p1639
(lp1640
S'ruisseau'
p1641
asS'detection'
p1642
(lp1643
S'd\xc3\xa9couverte'
p1644
asS'opposite'
p1645
(lp1646
S'autre'
p1647
asS'spirit'
p1648
(lp1649
S'\xc3\xa9nergie'
p1650
asS'result'
p1651
(lp1652
S'r\xc3\xa9sulter'
p1653
asS'fail'
p1654
(lp1655
S'\xc3\xa9tendre'
p1656
asS'miserable'
p1657
(lp1658
S'malheureux'
p1659
asS'hammer'
p1660
(lp1661
S'\xc3\xa9tendre'
p1662
asS'subject'
p1663
(lp1664
S'partie'
p1665
asS'oceanic'
p1666
(lp1667
S'oc\xc3\xa9anique'
p1668
asS'onto'
p1669
(lp1670
S'sur'
p1671
asS'propulsion'
p1672
(lp1673
S'propulsion'
p1674
asS'away'
p1675
(lp1676
S'loin'
p1677
asS'artificial'
p1678
(lp1679
S'artificiel'
p1680
asS'continually'
p1681
(lp1682
S'constamment'
p1683
asS'symmetric'
p1684
(lp1685
S'sym\xc3\xa9trique'
p1686
asS'mud'
p1687
(lp1688
S'boue'
p1689
asS'exhalation'
p1690
(lp1691
S'exhalaison'
p1692
asS'scorn'
p1693
(lp1694
S'rejeter'
p1695
asS'approach'
p1696
(lp1697
S'approcher'
p1698
asS'ire'
p1699
(lp1700
S'col\xc3\xa8re'
p1701
asS'discovery'
p1702
(lp1703
S'd\xc3\xa9couverte'
p1704
asS'emplacement'
p1705
(lp1706
S'emplacement'
p1707
asS'accord'
p1708
(lp1709
S't\xc3\xa9moigner'
p1710
asS'extend'
p1711
(lp1712
S'continuer'
p1713
asS'nature'
p1714
(lp1715
S'nature'
p1716
asS'confusion'
p1717
(lp1718
S'trouble'
p1719
asS'handful'
p1720
(lp1721
S'poign\xc3\xa9e'
p1722
asS'veil'
p1723
(lp1724
S'voile'
p1725
asS'however'
p1726
(lp1727
S'si'
p1728
asS'devour'
p1729
(lp1730
S'engloutir'
p1731
asS'wear'
p1732
(lp1733
S'avoir'
p1734
asS'extent'
p1735
(lp1736
S'mesure'
p1737
asS'spurt'
p1738
(lp1739
S'projeter'
p1740
asS'carbon'
p1741
(lp1742
S'carbone'
p1743
asS'motto'
p1744
(lp1745
S'devise'
p1746
asS'excavate'
p1747
(lp1748
S'd\xc3\xa9gager'
p1749
asS'blasted'
p1750
(lp1751
S'sacr\xc3\xa9'
p1752
asS'improve'
p1753
(lp1754
S'augmenter'
p1755
asS'essentially'
p1756
(lp1757
S'essentiellement'
p1758
asS'outcome'
p1759
(lp1760
S'cons\xc3\xa9quence'
p1761
asS'irregular'
p1762
(lp1763
S'intermittent'
p1764
asS'resistant'
p1765
(lp1766
S'r\xc3\xa9sistant'
p1767
asS'country'
p1768
(lp1769
S'terre'
p1770
asS'postulate'
p1771
(lp1772
S'postuler'
p1773
asS'swim'
p1774
(lp1775
S'bain'
p1776
asS'heating'
p1777
(lp1778
S'\xc3\xa9chauffement'
p1779
asS'against'
p1780
(lp1781
S'sur'
p1782
asS'torrent'
p1783
(lp1784
S'avalanche'
p1785
asS'iron'
p1786
(lp1787
S'fer'
p1788
asS'transmission'
p1789
(lp1790
S'communication'
p1791
asS'expense'
p1792
(lp1793
S'frais'
p1794
asS'con'
p1795
(lp1796
S'avoir'
p1797
asS'prospect'
p1798
(lp1799
S'vue'
p1800
asS'presumably'
p1801
(lp1802
S'probablement'
p1803
asS'tough'
p1804
(lp1805
S'solide'
p1806
asS'timescale'
p1807
(lp1808
S'p\xc3\xa9riode'
p1809
asS'royal'
p1810
(lp1811
S'royal'
p1812
asS'unexpectedly'
p1813
(lp1814
S'subitement'
p1815
asS'vast'
p1816
(lp1817
S'grand'
p1818
asS'height'
p1819
(lp1820
S'altitude'
p1821
asS'canyon'
p1822
(lp1823
S'gorge'
p1824
asS'prone'
p1825
(lp1826
S'sujet'
p1827
asS'wither'
p1828
(lp1829
S'alt\xc3\xa9rer'
p1830
asS'blending'
p1831
(lp1832
S'fusion'
p1833
asS'majestic'
p1834
(lp1835
S'majestueux'
p1836
asS'refill'
p1837
(lp1838
S'remplir'
p1839
asS'trust'
p1840
(lp1841
S'devoir'
p1842
asS'speak'
p1843
(lp1844
S'dire'
p1845
asS'conference'
p1846
(lp1847
S'rapport'
p1848
asS'strong'
p1849
(lp1850
S'grand'
p1851
asS'lightly'
p1852
(lp1853
S'l\xc3\xa9g\xc3\xa8rement'
p1854
asS'beef'
p1855
(lp1856
S'b\xc5\x93uf'
p1857
asS'basis'
p1858
(lp1859
S'base'
p1860
asS'union'
p1861
(lp1862
S'r\xc3\xa9union'
p1863
asS'smash'
p1864
(lp1865
S'd\xc3\xa9truire'
p1866
asS'subside'
p1867
(lp1868
S'retomber'
p1869
asS'superheat'
p1870
(lp1871
S'surchauffe'
p1872
asS'tiny'
p1873
(lp1874
S'minuscule'
p1875
asS'quickly'
p1876
(lp1877
S'rapidement'
p1878
asS'confident'
p1879
(lp1880
S's\xc3\xbbr'
p1881
asS'much'
p1882
(lp1883
S'tr\xc3\xa8s'
p1884
asS'interest'
p1885
(lp1886
S'int\xc3\xa9resser'
p1887
asS'basic'
p1888
(lp1889
S'premier'
p1890
asS'basin'
p1891
(lp1892
S'cuvette'
p1893
asS'warmth'
p1894
(lp1895
S'chaleur'
p1896
asS'plateau'
p1897
(lp1898
S'plateau'
p1899
asS'life'
p1900
(lp1901
S'vie'
p1902
asS'deeper'
p1903
(lp1904
S'profond'
p1905
asS'mushroom'
p1906
(lp1907
S'champignon'
p1908
asS'eastern'
p1909
(lp1910
S'est'
p1911
asS'suppress'
p1912
(lp1913
S'contenir'
p1914
asS'worker'
p1915
(lp1916
S'bras'
p1917
asS'uncommon'
p1918
(lp1919
S'rare'
p1920
asS'coherent'
p1921
(lp1922
S'suivi'
p1923
asS'lift'
p1924
(lp1925
S'prendre'
p1926
asS'child'
p1927
(lp1928
S'produit'
p1929
asS'catch'
p1930
(lp1931
S'prendre'
p1932
asS'aviation'
p1933
(lp1934
S'aviation'
p1935
asS'thick'
p1936
(lp1937
S'\xc3\xa9pais'
p1938
asS'terse'
p1939
(lp1940
S'brusque'
p1941
asS'chill'
p1942
(lp1943
S'refroidir'
p1944
asS'gritty'
p1945
(lp1946
S'solide'
p1947
asS'tank'
p1948
(lp1949
S'r\xc3\xa9servoir'
p1950
asS'sculpt'
p1951
(lp1952
S'sculpter'
p1953
asS'apprehension'
p1954
(lp1955
S'crainte'
p1956
asS'shrink'
p1957
(lp1958
S'r\xc3\xa9duire'
p1959
asS'asthenosphere'
p1960
(lp1961
S'asth\xc3\xa9nosph\xc3\xa8re'
p1962
asS'originate'
p1963
(lp1964
S'produire'
p1965
asS'pungent'
p1966
(lp1967
S'violent'
p1968
asS'stratosphere'
p1969
(lp1970
S'stratosph\xc3\xa8re'
p1971
asS'air'
p1972
(lp1973
S'air'
p1974
asS'employ'
p1975
(lp1976
S'occuper'
p1977
asS'calcium'
p1978
(lp1979
S'calcium'
p1980
asS'near'
p1981
(lp1982
S'pr\xc3\xa8s'
p1983
asS'abrupt'
p1984
(lp1985
S'soudain'
p1986
asS'aid'
p1987
(lp1988
S'aide'
p1989
asS'balance'
p1990
(lp1991
S'comparer'
p1992
asS'flooding'
p1993
(lp1994
S'inondation'
p1995
asS'anchor'
p1996
(lp1997
S'pr\xc3\xa9senter'
p1998
asS'unlikely'
p1999
(lp2000
S'inattendu'
p2001
asS'spawn'
p2002
(lp2003
S'engendrer'
p2004
asS'upgrade'
p2005
(lp2006
S'mont\xc3\xa9e'
p2007
asS'cylinder'
p2008
(lp2009
S'rouleau'
p2010
asS'cane'
p2011
(lp2012
S'garnir'
p2013
asS'it'
p2014
(lp2015
S'le'
p2016
asS'sting'
p2017
(lp2018
S'avoir'
p2019
asS'characterize'
p2020
(lp2021
S'caract\xc3\xa9riser'
p2022
asS'seismological'
p2023
(lp2024
S'sismologique'
p2025
asS'straits'
p2026
(lp2027
S'extr\xc3\xa9mit\xc3\xa9'
p2028
asS'cone'
p2029
(lp2030
S'c\xc3\xb4ne'
p2031
asS'exterior'
p2032
(lp2033
S'ext\xc3\xa9rieur'
p2034
asS'in'
p2035
(lp2036
S'de'
p2037
asS'atoll'
p2038
(lp2039
S'atoll'
p2040
asS'fluidity'
p2041
(lp2042
S'fluidit\xc3\xa9'
p2043
asS'uplift'
p2044
(lp2045
S'\xc3\xa9lever'
p2046
asS'shift'
p2047
(lp2048
S'vitesse'
p2049
asS'id'
p2050
(lp2051
S'soi'
p2052
asS'disappear'
p2053
(lp2054
S'tomber'
p2055
asS'if'
p2056
(lp2057
S'si'
p2058
asS'hone'
p2059
(lp2060
S'affiler'
p2061
asS'growl'
p2062
(lp2063
S'gronder'
p2064
asS'sap'
p2065
(lp2066
S'mine'
p2067
asS'descent'
p2068
(lp2069
S'pente'
p2070
asS'prior'
p2071
(lp2072
S'pr\xc3\xa9c\xc3\xa9dent'
p2073
asS'perform'
p2074
(lp2075
S'donner'
p2076
asS'border'
p2077
(lp2078
S'bord'
p2079
asS'make'
p2080
(lp2081
S'avoir'
p2082
asS'wound'
p2083
(lp2084
S'blessure'
p2085
asS'airport'
p2086
(lp2087
S'a\xc3\xa9roport'
p2088
asS'complex'
p2089
(lp2090
S'dense'
p2091
asS'potentially'
p2092
(lp2093
S'potentiellement'
p2094
asS'descend'
p2095
(lp2096
S'passer'
p2097
asS'unfortunate'
p2098
(lp2099
S'malheureux'
p2100
asS'evaluate'
p2101
(lp2102
S'estimer'
p2103
asS'vegetable'
p2104
(lp2105
S'plante'
p2106
asS'several'
p2107
(lp2108
S'plusieurs'
p2109
asS'voyager'
p2110
(lp2111
S'passager'
p2112
asS'fairly'
p2113
(lp2114
S'assez'
p2115
asS'satellite'
p2116
(lp2117
S'satellite'
p2118
asS'swell'
p2119
(lp2120
S'augmenter'
p2121
asS'numerical'
p2122
(lp2123
S'num\xc3\xa9rique'
p2124
asS'hang'
p2125
(lp2126
S'retomber'
p2127
asS'rain'
p2128
(lp2129
S'eau'
p2130
asS'hand'
p2131
(lp2132
S'donner'
p2133
asS'delight'
p2134
(lp2135
S'enchanter'
p2136
asS'fuse'
p2137
(lp2138
S'fondre'
p2139
asS'kin'
p2140
(lp2141
S'famille'
p2142
asS'symmetrical'
p2143
(lp2144
S'sym\xc3\xa9trique'
p2145
asS'opportunity'
p2146
(lp2147
S'occasion'
p2148
asS'tune'
p2149
(lp2150
S'air'
p2151
asS'tremendously'
p2152
(lp2153
S'extr\xc3\xaamement'
p2154
asS'jangle'
p2155
(lp2156
S'retentir'
p2157
asS'punctuate'
p2158
(lp2159
S'ponctuer'
p2160
asS'suitable'
p2161
(lp2162
S'propre'
p2163
asS'shortly'
p2164
(lp2165
S'brusquement'
p2166
asS'episodic'
p2167
(lp2168
S'\xc3\xa9pisodique'
p2169
asS'possibly'
p2170
(lp2171
S'peut-\xc3\xaatre'
p2172
asS'acoustics'
p2173
(lp2174
S'acoustique'
p2175
asS'smoker'
p2176
(lp2177
S'fumeur'
p2178
asS'intrigue'
p2179
(lp2180
S'liaison'
p2181
asS'ragged'
p2182
(lp2183
S'irr\xc3\xa9gulier'
p2184
asS'academic'
p2185
(lp2186
S'th\xc3\xa9orique'
p2187
asS'contact'
p2188
(lp2189
S'atteindre'
p2190
asS'greatest'
p2191
(lp2192
S'majeur'
p2193
asS'telephone'
p2194
(lp2195
S'appeler'
p2196
asS'the'
p2197
(lp2198
S'le'
p2199
asS'submarine'
p2200
(lp2201
S'sous-marin'
p2202
asS'premonitory'
p2203
(lp2204
S'pr\xc3\xa9curseur'
p2205
asS'left'
p2206
(lp2207
S'gauche'
p2208
asS'mingle'
p2209
(lp2210
S'm\xc3\xa9langer'
p2211
asS'background'
p2212
(lp2213
S'fond'
p2214
asS'just'
p2215
(lp2216
S'juste'
p2217
asS'diameter'
p2218
(lp2219
S'diam\xc3\xa8tre'
p2220
asS'yea'
p2221
(lp2222
S'voire'
p2223
asS'photo'
p2224
(lp2225
S'photo'
p2226
asS'repose'
p2227
(lp2228
S'mettre'
p2229
asS'identify'
p2230
(lp2231
S'd\xc3\xa9couvrir'
p2232
asS'human'
p2233
(lp2234
S'humain'
p2235
asS'yes'
p2236
(lp2237
S'si'
p2238
asS'emergence'
p2239
(lp2240
S'naissance'
p2241
asS'impending'
p2242
(lp2243
S'prochain'
p2244
asS'previous'
p2245
(lp2246
S'dernier'
p2247
asS'terrific'
p2248
(lp2249
S'\xc3\xa9norme'
p2250
asS'unique'
p2251
(lp2252
S'exceptionnel'
p2253
asS'campaign'
p2254
(lp2255
S'campagne'
p2256
asS'mix'
p2257
(lp2258
S'faire'
p2259
asS'photographer'
p2260
(lp2261
S'photographe'
p2262
asS'ease'
p2263
(lp2264
S'r\xc3\xa9duire'
p2265
asS'character'
p2266
(lp2267
S'type'
p2268
asS'sometimes'
p2269
(lp2270
S'parfois'
p2271
asS'passive'
p2272
(lp2273
S'passif'
p2274
asS'spread'
p2275
(lp2276
S'r\xc3\xa9pandre'
p2277
asS'easy'
p2278
(lp2279
S'paisible'
p2280
asS'prison'
p2281
(lp2282
S'd\xc3\xa9p\xc3\xb4t'
p2283
asS'east'
p2284
(lp2285
S'est'
p2286
asS'hat'
p2287
(lp2288
S'bonnet'
p2289
asS'flowing'
p2290
(lp2291
S'fluide'
p2292
asS'designate'
p2293
(lp2294
S'd\xc3\xa9signer'
p2295
asS'comprehensive'
p2296
(lp2297
S'vaste'
p2298
asS'elevation'
p2299
(lp2300
S'altitude'
p2301
asS'survival'
p2302
(lp2303
S'vestige'
p2304
asS'possible'
p2305
(lp2306
S'possible'
p2307
asS'seismograph'
p2308
(lp2309
S'sismographe'
p2310
asS'sulphuric'
p2311
(lp2312
S'sulfurique'
p2313
asS'objective'
p2314
(lp2315
S'but'
p2316
asS'cultural'
p2317
(lp2318
S'culturel'
p2319
asS'birth'
p2320
(lp2321
S'naissance'
p2322
asS'performance'
p2323
(lp2324
S'comportement'
p2325
asS'judge'
p2326
(lp2327
S'estimer'
p2328
asS'shadow'
p2329
(lp2330
S'filer'
p2331
asS'replace'
p2332
(lp2333
S'renouveler'
p2334
asS'divert'
p2335
(lp2336
S'd\xc3\xa9river'
p2337
asS'advanced'
p2338
(lp2339
S'sup\xc3\xa9rieur'
p2340
asS'flagstaff'
p2341
(lp2342
S'm\xc3\xa2t'
p2343
asS'desire'
p2344
(lp2345
S'aspirer'
p2346
asS'melting'
p2347
(lp2348
S'fusion'
p2349
asS'rustle'
p2350
(lp2351
S'frissonner'
p2352
asS'cooler'
p2353
(lp2354
S'glaci\xc3\xa8re'
p2355
asS'hunt'
p2356
(lp2357
S'poursuivre'
p2358
asS'specific'
p2359
(lp2360
S'particulier'
p2361
asS'remind'
p2362
(lp2363
S'rappeler'
p2364
asS'pavement'
p2365
(lp2366
S'terrasse'
p2367
asS'officer'
p2368
(lp2369
S'commander'
p2370
asS'sparse'
p2371
(lp2372
S'rare'
p2373
asS'night'
p2374
(lp2375
S'nuit'
p2376
asS'augur'
p2377
(lp2378
S'pr\xc3\xa9voir'
p2379
asS'security'
p2380
(lp2381
S'titre'
p2382
asS'fluoride'
p2383
(lp2384
S'fluor\xc3\xa9'
p2385
asS'signal'
p2386
(lp2387
S'signaler'
p2388
asS'effusion'
p2389
(lp2390
S'\xc3\xa9coulement'
p2391
asS'beneficial'
p2392
(lp2393
S'bienfaisant'
p2394
asS'geophysical'
p2395
(lp2396
S'g\xc3\xa9ophysique'
p2397
asS'old'
p2398
(lp2399
S'ancien'
p2400
asS'creek'
p2401
(lp2402
S'ruisseau'
p2403
asS'deal'
p2404
(lp2405
S'donner'
p2406
asS'people'
p2407
(lp2408
S'on'
p2409
asS'prolonged'
p2410
(lp2411
S'long'
p2412
asS'successfully'
p2413
(lp2414
S'heureusement'
p2415
asS'crown'
p2416
(lp2417
S'forme'
p2418
asS'dead'
p2419
(lp2420
S'mort'
p2421
asS'sprawl'
p2422
(lp2423
S'tomber'
p2424
asS'flatten'
p2425
(lp2426
S'abattre'
p2427
asS'escape'
p2428
(lp2429
S'\xc3\xa9chapper'
p2430
asS'unless'
p2431
(lp2432
S'sauf'
p2433
asS'bore'
p2434
(lp2435
S'percer'
p2436
asS'creep'
p2437
(lp2438
S'tracer'
p2439
asS'confusing'
p2440
(lp2441
S'obscurcissement'
p2442
asS'ignore'
p2443
(lp2444
S'ignorer'
p2445
asS'total'
p2446
(lp2447
S'total'
p2448
asS'dense'
p2449
(lp2450
S'\xc3\xa9pais'
p2451
asS'for'
p2452
(lp2453
S'sur'
p2454
asS'bottom'
p2455
(lp2456
S'dernier'
p2457
asS'phenomenal'
p2458
(lp2459
S'\xc3\xa9norme'
p2460
asS'deploy'
p2461
(lp2462
S'd\xc3\xa9velopper'
p2463
asS'jolt'
p2464
(lp2465
S'secousse'
p2466
asS'ice'
p2467
(lp2468
S'glace'
p2469
asS'everything'
p2470
(lp2471
S'tout'
p2472
asS'fog'
p2473
(lp2474
S'voile'
p2475
asS'periphery'
p2476
(lp2477
S'p\xc3\xa9riph\xc3\xa9rie'
p2478
asS'pattern'
p2479
(lp2480
S'exemple'
p2481
asS'beget'
p2482
(lp2483
S'engendrer'
p2484
asS'slurry'
p2485
(lp2486
S'boue'
p2487
asS'core'
p2488
(lp2489
S'noyau'
p2490
asS'peel'
p2491
(lp2492
S'peler'
p2493
asS'deflation'
p2494
(lp2495
S'd\xc3\xa9gonflement'
p2496
asS'elucidate'
p2497
(lp2498
S'expliquer'
p2499
asS'burn'
p2500
(lp2501
S'br\xc3\xbbler'
p2502
asS'cork'
p2503
(lp2504
S'bouchon'
p2505
asS'discount'
p2506
(lp2507
S'actualiser'
p2508
asS'notorious'
p2509
(lp2510
S'c\xc3\xa9l\xc3\xa8bre'
p2511
asS'peer'
p2512
(lp2513
S'\xc3\xa9gal'
p2514
asS'littoral'
p2515
(lp2516
S'littoral'
p2517
asS'post'
p2518
(lp2519
S'annoncer'
p2520
asS'bury'
p2521
(lp2522
S'ensevelir'
p2523
asS'chapter'
p2524
(lp2525
S'page'
p2526
asS'restlessness'
p2527
(lp2528
S'agitation'
p2529
asS'choke'
p2530
(lp2531
S'boucher'
p2532
asS'surround'
p2533
(lp2534
S'entourer'
p2535
asS'ensure'
p2536
(lp2537
S'assurer'
p2538
asS'afternoon'
p2539
(lp2540
S'apr\xc3\xa8s-midi'
p2541
asS'horizon'
p2542
(lp2543
S'vue'
p2544
asS'steadily'
p2545
(lp2546
S'r\xc3\xa9guli\xc3\xa8rement'
p2547
asS'commit'
p2548
(lp2549
S'faire'
p2550
asS'slightly'
p2551
(lp2552
S'faiblement'
p2553
asS'hulking'
p2554
(lp2555
S'gros'
p2556
asS'primitive'
p2557
(lp2558
S'primitif'
p2559
asS'formerly'
p2560
(lp2561
S'autrefois'
p2562
asS'facility'
p2563
(lp2564
S'fonction'
p2565
asS'civil'
p2566
(lp2567
S'civil'
p2568
asS'puzzle'
p2569
(lp2570
S'myst\xc3\xa8re'
p2571
asS'float'
p2572
(lp2573
S'\xc3\xa9mettre'
p2574
asS'cauldron'
p2575
(lp2576
S'chaudron'
p2577
asS'forcefully'
p2578
(lp2579
S'violemment'
p2580
asS'accommodate'
p2581
(lp2582
S'contenir'
p2583
asS'pair'
p2584
(lp2585
S'couple'
p2586
asS'right'
p2587
(lp2588
S'tout'
p2589
asS'coastal'
p2590
(lp2591
S'c\xc3\xb4tier'
p2592
asS'soon'
p2593
(lp2594
S'vite'
p2595
asS'often'
p2596
(lp2597
S'souvent'
p2598
asS'unambiguous'
p2599
(lp2600
S'clair'
p2601
asS'crowd'
p2602
(lp2603
S'entasser'
p2604
asS'periodic'
p2605
(lp2606
S'intermittent'
p2607
asS'lunar'
p2608
(lp2609
S'lunaire'
p2610
asS'altitude'
p2611
(lp2612
S'altitude'
p2613
asS'constantly'
p2614
(lp2615
S'constamment'
p2616
asS'transform'
p2617
(lp2618
S'transformer'
p2619
asS'sunlight'
p2620
(lp2621
S'soleil'
p2622
asS'tame'
p2623
(lp2624
S'dresser'
p2625
asS'width'
p2626
(lp2627
S'diam\xc3\xa8tre'
p2628
asS'editor'
p2629
(lp2630
S'directeur'
p2631
asS'way'
p2632
(lp2633
S'tr\xc3\xa8s'
p2634
asS'overhead'
p2635
(lp2636
S'au-dessus'
p2637
asS'war'
p2638
(lp2639
S'guerre'
p2640
asS'fizz'
p2641
(lp2642
S'gaz'
p2643
asS'starve'
p2644
(lp2645
S'priver'
p2646
asS'head'
p2647
(lp2648
S'haut'
p2649
asS'medium'
p2650
(lp2651
S'moyen'
p2652
asS'gaseous'
p2653
(lp2654
S'gazeux'
p2655
asS'form'
p2656
(lp2657
S'faire'
p2658
asS'offer'
p2659
(lp2660
S'faire'
p2661
asS'spongy'
p2662
(lp2663
S'spongieux'
p2664
asS'heal'
p2665
(lp2666
S'apaiser'
p2667
asS'recommend'
p2668
(lp2669
S'indiquer'
p2670
asS'analyse'
p2671
(lp2672
S'expliquer'
p2673
asS'landing'
p2674
(lp2675
S'\xc3\xa9tage'
p2676
asS'peninsula'
p2677
(lp2678
S'p\xc3\xa9ninsule'
p2679
asS'failure'
p2680
(lp2681
S'chute'
p2682
asS'heat'
p2683
(lp2684
S'temp\xc3\xa9rature'
p2685
asS'hear'
p2686
(lp2687
S'recevoir'
p2688
asS'emanate'
p2689
(lp2690
S'provenir'
p2691
asS'heap'
p2692
(lp2693
S'masse'
p2694
asS'overburden'
p2695
(lp2696
S'surcharger'
p2697
asS'sustained'
p2698
(lp2699
S'r\xc3\xa9gulier'
p2700
asS'safeguard'
p2701
(lp2702
S'prot\xc3\xa9ger'
p2703
asS'true'
p2704
(lp2705
S'v\xc3\xa9ritable'
p2706
asS'fumarole'
p2707
(lp2708
S'fumerolle'
p2709
asS'week'
p2710
(lp2711
S'semaine'
p2712
asS'absent'
p2713
(lp2714
S'absent'
p2715
asS'throw'
p2716
(lp2717
S'projeter'
p2718
asS'slope'
p2719
(lp2720
S'flanc'
p2721
asS'type'
p2722
(lp2723
S'type'
p2724
asS'inside'
p2725
(lp2726
S'dans'
p2727
asS'ancestral'
p2728
(lp2729
S'ascendant'
p2730
asS'maximum'
p2731
(lp2732
S'maximum'
p2733
asS'crystal'
p2734
(lp2735
S'cristallin'
p2736
asS'unusually'
p2737
(lp2738
S'exceptionnellement'
p2739
asS'emit'
p2740
(lp2741
S'\xc3\xa9mettre'
p2742
asS'election'
p2743
(lp2744
S'\xc3\xa9lection'
p2745
asS'tonne'
p2746
(lp2747
S'tonne'
p2748
asS'later'
p2749
(lp2750
S'apr\xc3\xa8s'
p2751
asS'sill'
p2752
(lp2753
S'seuil'
p2754
asS'classic'
p2755
(lp2756
S'type'
p2757
asS'fury'
p2758
(lp2759
S'violence'
p2760
asS'abstract'
p2761
(lp2762
S'extraire'
p2763
asS'statistic'
p2764
(lp2765
S'chiffre'
p2766
asS'evidence'
p2767
(lp2768
S'signe'
p2769
asS'crumbly'
p2770
(lp2771
S'meuble'
p2772
asS'exist'
p2773
(lp2774
S'vivre'
p2775
asS'erode'
p2776
(lp2777
S'd\xc3\xa9grader'
p2778
asS'floating'
p2779
(lp2780
S'instable'
p2781
asS'face'
p2782
(lp2783
S'surface'
p2784
asS'check'
p2785
(lp2786
S'contenir'
p2787
asS'constriction'
p2788
(lp2789
S'verrou'
p2790
asS'pipe'
p2791
(lp2792
S'jouer'
p2793
asS'rough'
p2794
(lp2795
S'premier'
p2796
asS'upheaval'
p2797
(lp2798
S's\xc3\xa9isme'
p2799
asS'faithful'
p2800
(lp2801
S'exact'
p2802
asS'floor'
p2803
(lp2804
S'sol'
p2805
asS'glacier'
p2806
(lp2807
S'glacier'
p2808
asS'weaken'
p2809
(lp2810
S'diminuer'
p2811
asS'generally'
p2812
(lp2813
S'g\xc3\xa9n\xc3\xa9ralement'
p2814
asS'reality'
p2815
(lp2816
S'r\xc3\xa9alit\xc3\xa9'
p2817
asS'flood'
p2818
(lp2819
S'avalanche'
p2820
asS'interested'
p2821
(lp2822
S'curieux'
p2823
asS'congeal'
p2824
(lp2825
S'figer'
p2826
asS'rapidity'
p2827
(lp2828
S'vitesse'
p2829
asS'holding'
p2830
(lp2831
S'ferme'
p2832
asS'digital'
p2833
(lp2834
S'num\xc3\xa9rique'
p2835
asS'test'
p2836
(lp2837
S'composition'
p2838
asS'erosion'
p2839
(lp2840
S'\xc3\xa9rosion'
p2841
asS'roll'
p2842
(lp2843
S'r\xc3\xb4le'
p2844
asS'realize'
p2845
(lp2846
S'atteindre'
p2847
asS'picture'
p2848
(lp2849
S'photo'
p2850
asS'savage'
p2851
(lp2852
S'brutal'
p2853
asS'preceding'
p2854
(lp2855
S'pr\xc3\xa9c\xc3\xa9dent'
p2856
asS'mechanical'
p2857
(lp2858
S'm\xc3\xa9canique'
p2859
asS'scald'
p2860
(lp2861
S'br\xc3\xbbler'
p2862
asS'journey'
p2863
(lp2864
S'route'
p2865
asS'intent'
p2866
(lp2867
S'intention'
p2868
asS'violent'
p2869
(lp2870
S'violent'
p2871
asS'undersea'
p2872
(lp2873
S'sous-marin'
p2874
asS'variable'
p2875
(lp2876
S'variable'
p2877
asS'discharge'
p2878
(lp2879
S'\xc3\xa9mettre'
p2880
asS'weekend'
p2881
(lp2882
S'week-end'
p2883
asS'billion'
p2884
(lp2885
S'milliard'
p2886
asS'warn'
p2887
(lp2888
S'pr\xc3\xa9venir'
p2889
asS'mildly'
p2890
(lp2891
S'l\xc3\xa9g\xc3\xa8rement'
p2892
asS'longer'
p2893
(lp2894
S'davantage'
p2895
asS'glass'
p2896
(lp2897
S'glace'
p2898
asS'assume'
p2899
(lp2900
S'que'
p2901
asS'painting'
p2902
(lp2903
S'composition'
p2904
asS'interval'
p2905
(lp2906
S'distance'
p2907
asS'daily'
p2908
(lp2909
S'quotidien'
p2910
asS'south-eastern'
p2911
(lp2912
S'sud-est'
p2913
asS'loyal'
p2914
(lp2915
S'fid\xc3\xa8le'
p2916
asS'safe'
p2917
(lp2918
S'solide'
p2919
asS'reception'
p2920
(lp2921
S'accueil'
p2922
asS'time'
p2923
(lp2924
S'heure'
p2925
asS'push'
p2926
(lp2927
S'dynamisme'
p2928
asS'serious'
p2929
(lp2930
S'important'
p2931
asS'dust'
p2932
(lp2933
S'poussi\xc3\xa8re'
p2934
asS'precedent'
p2935
(lp2936
S'pr\xc3\xa9c\xc3\xa9dent'
p2937
asS'overdue'
p2938
(lp2939
S'tardif'
p2940
asS'shop'
p2941
(lp2942
S'donner'
p2943
asS'now'
p2944
(lp2945
S'alors'
p2946
asS'concept'
p2947
(lp2948
S'id\xc3\xa9e'
p2949
asS'chain'
p2950
(lp2951
S'suite'
p2952
asS'global'
p2953
(lp2954
S'mondial'
p2955
asS'datum'
p2956
(lp2957
S'donn\xc3\xa9e'
p2958
asS'focus'
p2959
(lp2960
S'si\xc3\xa8ge'
p2961
asS'adjective'
p2962
(lp2963
S'candidat'
p2964
asS'avalanche'
p2965
(lp2966
S'avalanche'
p2967
asS'mile'
p2968
(lp2969
S'mille'
p2970
asS'skiing'
p2971
(lp2972
S'ski'
p2973
asS'battle'
p2974
(lp2975
S'lutter'
p2976
asS'mill'
p2977
(lp2978
S'usine'
p2979
asS'abundant'
p2980
(lp2981
S'riche'
p2982
asS'milk'
p2983
(lp2984
S'exploiter'
p2985
asS'discern'
p2986
(lp2987
S'distinguer'
p2988
asS'certainly'
p2989
(lp2990
S'certes'
p2991
asS'hurry'
p2992
(lp2993
S'pr\xc3\xa9cipitation'
p2994
asS'depend'
p2995
(lp2996
S'tenir'
p2997
asS'zone'
p2998
(lp2999
S'zone'
p3000
asS'flask'
p3001
(lp3002
S'bouteille'
p3003
asS'graph'
p3004
(lp3005
S'diagramme'
p3006
asS'freelance'
p3007
(lp3008
S'ind\xc3\xa9pendant'
p3009
asS'flash'
p3010
(lp3011
S'projeter'
p3012
asS'father'
p3013
(lp3014
S'engendrer'
p3015
asS'crater'
p3016
(lp3017
S'crat\xc3\xa8re'
p3018
asS'environment'
p3019
(lp3020
S'milieu'
p3021
asS'charge'
p3022
(lp3023
S'prendre'
p3024
asS'unpleasant'
p3025
(lp3026
S'mauvais'
p3027
asS'permanently'
p3028
(lp3029
S'd\xc3\xa9finitivement'
p3030
asS'olivine'
p3031
(lp3032
S'olivine'
p3033
asS'text'
p3034
(lp3035
S'texte'
p3036
asS'terror'
p3037
(lp3038
S'lascar'
p3039
asS'analogous'
p3040
(lp3041
S'analogue'
p3042
asS'ride'
p3043
(lp3044
S'monter'
p3045
asS'southwest'
p3046
(lp3047
S'sud-ouest'
p3048
asS'brown'
p3049
(lp3050
S'brun'
p3051
asS'protective'
p3052
(lp3053
S'protecteur'
p3054
asS'string'
p3055
(lp3056
S'monter'
p3057
asS'advantage'
p3058
(lp3059
S'profit'
p3060
asS'cataclysmic'
p3061
(lp3062
S'cataclysmique'
p3063
asS'cook'
p3064
(lp3065
S'cuire'
p3066
asS'word'
p3067
(lp3068
S'ordre'
p3069
asS'trouble'
p3070
(lp3071
S'peine'
p3072
asS'blast'
p3073
(lp3074
S'explosion'
p3075
asS'exact'
p3076
(lp3077
S'parfait'
p3078
asS'minute'
p3079
(lp3080
S'minute'
p3081
asS'cool'
p3082
(lp3083
S'refroidir'
p3084
asS'respiratory'
p3085
(lp3086
S'respiratoire'
p3087
asS'impressive'
p3088
(lp3089
S'impressionnant'
p3090
asS'level'
p3091
(lp3092
S'couche'
p3093
asS'eruptive'
p3094
(lp3095
S'\xc3\xa9ruptif'
p3096
asS'die'
p3097
(lp3098
S'retomber'
p3099
asS'sedimentary'
p3100
(lp3101
S's\xc3\xa9dimentaire'
p3102
asS'dig'
p3103
(lp3104
S'percer'
p3105
asS'accidentally'
p3106
(lp3107
S'accidentellement'
p3108
asS'skewed'
p3109
(lp3110
S'faux'
p3111
asS'leave'
p3112
(lp3113
S'd\xc3\xa9poser'
p3114
asS'p'
p3115
(lp3116
S'tenir'
p3117
asS'settle'
p3118
(lp3119
S'constituer'
p3120
asS'gut'
p3121
(lp3122
S'vider'
p3123
asS'quick'
p3124
(lp3125
S'rapide'
p3126
asS'movie'
p3127
(lp3128
S'film'
p3129
asS'guy'
p3130
(lp3131
S'type'
p3132
asS'dip'
p3133
(lp3134
S'baisse'
p3135
asS'accumulation'
p3136
(lp3137
S'accumulation'
p3138
asS'shave'
p3139
(lp3140
S'raser'
p3141
asS'prevent'
p3142
(lp3143
S'\xc3\xa9viter'
p3144
asS'bulldozer'
p3145
(lp3146
S'bulldozer'
p3147
asS'brave'
p3148
(lp3149
S'beau'
p3150
asS'meadow'
p3151
(lp3152
S'prairie'
p3153
asS'findings'
p3154
(lp3155
S'verdict'
p3156
asS'trend'
p3157
(lp3158
S'direction'
p3159
asS'discover'
p3160
(lp3161
S'trouver'
p3162
asS'agitate'
p3163
(lp3164
S'perturber'
p3165
asS'sign'
p3166
(lp3167
S'passer'
p3168
asS'measurably'
p3169
(lp3170
S'sensiblement'
p3171
asS'wherefore'
p3172
(lp3173
S'pourquoi'
p3174
asS'cost'
p3175
(lp3176
S'co\xc3\xbbter'
p3177
asS'scarcity'
p3178
(lp3179
S'manque'
p3180
asS'bacterial'
p3181
(lp3182
S'bact\xc3\xa9rien'
p3183
asS'port'
p3184
(lp3185
S'porter'
p3186
asS'resurgence'
p3187
(lp3188
S'reprise'
p3189
asS'predictor'
p3190
(lp3191
S'indice'
p3192
asS'appear'
p3193
(lp3194
S'appara\xc3\xaetre'
p3195
asS'assistance'
p3196
(lp3197
S'aide'
p3198
asS'melt'
p3199
(lp3200
S'fondre'
p3201
asS'debate'
p3202
(lp3203
S'agiter'
p3204
asS'current'
p3205
(lp3206
S'actuel'
p3207
asS'suspect'
p3208
(lp3209
S'soup\xc3\xa7onner'
p3210
asS'pluton'
p3211
(lp3212
S'pluton'
p3213
asS'international'
p3214
(lp3215
S'international'
p3216
asS'appeal'
p3217
(lp3218
S'int\xc3\xa9r\xc3\xaat'
p3219
asS'statistically'
p3220
(lp3221
S'statistiquement'
p3222
asS'pose'
p3223
(lp3224
S'constituer'
p3225
asS'explosion'
p3226
(lp3227
S'explosion'
p3228
asS'dwarf'
p3229
(lp3230
S'\xc3\xa9craser'
p3231
asS'passage'
p3232
(lp3233
S'page'
p3234
asS'briquette'
p3235
(lp3236
S'agglom\xc3\xa9rer'
p3237
asS'understanding'
p3238
(lp3239
S'accord'
p3240
asS'water'
p3241
(lp3242
S'eau'
p3243
asS'pause'
p3244
(lp3245
S'repos'
p3246
asS'address'
p3247
(lp3248
S'abord'
p3249
asS'alone'
p3250
(lp3251
S'seul'
p3252
asS'gorge'
p3253
(lp3254
S'engloutir'
p3255
asS'earthquake'
p3256
(lp3257
S's\xc3\xa9isme'
p3258
asS'change'
p3259
(lp3260
S'varier'
p3261
asS'wait'
p3262
(lp3263
S'attendre'
p3264
asS'box'
p3265
(lp3266
S'si\xc3\xa8ge'
p3267
asS'boy'
p3268
(lp3269
S'petit'
p3270
asS'pearly'
p3271
(lp3272
S'laiteux'
p3273
asS'incoming'
p3274
(lp3275
S'nouveau'
p3276
asS'thirty'
p3277
(lp3278
S'trente'
p3279
asS'brilliant'
p3280
(lp3281
S'lumineux'
p3282
asS'infrequently'
p3283
(lp3284
S'rarement'
p3285
asS'wherever'
p3286
(lp3287
S'o\xc3\xb9'
p3288
asS'commonly'
p3289
(lp3290
S'g\xc3\xa9n\xc3\xa9ralement'
p3291
asS'hydrostatic'
p3292
(lp3293
S'hydrostatique'
p3294
asS'exploitation'
p3295
(lp3296
S'exploitation'
p3297
asS'trial'
p3298
(lp3299
S'essai'
p3300
asS'simultaneous'
p3301
(lp3302
S'simultan\xc3\xa9'
p3303
asS'usually'
p3304
(lp3305
S'g\xc3\xa9n\xc3\xa9ralement'
p3306
asS'ill-fated'
p3307
(lp3308
S'n\xc3\xa9faste'
p3309
asS'bob'
p3310
(lp3311
S'bouchon'
p3312
asS'rediscover'
p3313
(lp3314
S'retrouver'
p3315
asS'pillow'
p3316
(lp3317
S'reposer'
p3318
asS'influx'
p3319
(lp3320
S'mar\xc3\xa9e'
p3321
asS'genuinely'
p3322
(lp3323
S'vraiment'
p3324
asS'emerge'
p3325
(lp3326
S'appara\xc3\xaetre'
p3327
asS'breathtaking'
p3328
(lp3329
S'vertigineux'
p3330
asS'sticky'
p3331
(lp3332
S'visqueux'
p3333
asS'raise'
p3334
(lp3335
S'provoquer'
p3336
asS'extra'
p3337
(lp3338
S'suppl\xc3\xa9mentaire'
p3339
asS'tweak'
p3340
(lp3341
S'tirer'
p3342
asS'merely'
p3343
(lp3344
S'uniquement'
p3345
asS'prefer'
p3346
(lp3347
S'\xc3\xa9lever'
p3348
asS'marked'
p3349
(lp3350
S'fort'
p3351
asS'bloody'
p3352
(lp3353
S'rouge'
p3354
asS'uphill'
p3355
(lp3356
S'difficile'
p3357
asS'variety'
p3358
(lp3359
S'type'
p3360
asS'light-colored'
p3361
(lp3362
S'clair'
p3363
asS'texture'
p3364
(lp3365
S'structure'
p3366
asS'marker'
p3367
(lp3368
S'marque'
p3369
asS'vulcanian'
p3370
(lp3371
S'vulcanien'
p3372
asS'rarely'
p3373
(lp3374
S'rarement'
p3375
asS'crisis'
p3376
(lp3377
S'crise'
p3378
asS'vivid'
p3379
(lp3380
S'pr\xc3\xa9cis'
p3381
asS'prove'
p3382
(lp3383
S'montrer'
p3384
asS'positive'
p3385
(lp3386
S'certain'
p3387
asS'angry'
p3388
(lp3389
S'mauvais'
p3390
asS'wane'
p3391
(lp3392
S'diminuer'
p3393
asS'visit'
p3394
(lp3395
S'visiter'
p3396
asS'only'
p3397
(lp3398
S'mais'
p3399
asS'ravage'
p3400
(lp3401
S'd\xc3\xa9vaster'
p3402
asS'intense'
p3403
(lp3404
S'grand'
p3405
asS'various'
p3406
(lp3407
S'plusieurs'
p3408
asS'live'
p3409
(lp3410
S'ardent'
p3411
asS'frothy'
p3412
(lp3413
S'l\xc3\xa9ger'
p3414
asS'memory'
p3415
(lp3416
S'm\xc3\xa9moire'
p3417
asS'sharpen'
p3418
(lp3419
S'tailler'
p3420
asS'today'
p3421
(lp3422
S'maintenant'
p3423
asS'plug'
p3424
(lp3425
S'bouchon'
p3426
asS'entrance'
p3427
(lp3428
S'transporter'
p3429
asS'afford'
p3430
(lp3431
S'pr\xc3\xa9senter'
p3432
asS'share'
p3433
(lp3434
S'part'
p3435
asS'fast-moving'
p3436
(lp3437
S'rapide'
p3438
asS'apparent'
p3439
(lp3440
S'\xc3\xa9vident'
p3441
asS'envelope'
p3442
(lp3443
S'enveloppe'
p3444
asS'validity'
p3445
(lp3446
S'bien-fond\xc3\xa9'
p3447
asS'chocolate'
p3448
(lp3449
S'rocher'
p3450
asS'fuel'
p3451
(lp3452
S'charbon'
p3453
asS'everywhere'
p3454
(lp3455
S'partout'
p3456
asS'olive'
p3457
(lp3458
S'olivier'
p3459
asS'effort'
p3460
(lp3461
S'peine'
p3462
asS'fly'
p3463
(lp3464
S'jaillir'
p3465
asS'demolish'
p3466
(lp3467
S'd\xc3\xa9truire'
p3468
asS'graphic'
p3469
(lp3470
S'vivant'
p3471
asS'gassy'
p3472
(lp3473
S'gazeux'
p3474
asS'sphere'
p3475
(lp3476
S'domaine'
p3477
asS'car'
p3478
(lp3479
S'voiture'
p3480
asS'cap'
p3481
(lp3482
S'bouchon'
p3483
asS'cat'
p3484
(lp3485
S'type'
p3486
asS'intensely'
p3487
(lp3488
S'extr\xc3\xaamement'
p3489
asS'minimum'
p3490
(lp3491
S'minimum'
p3492
asS'can'
p3493
(lp3494
S'pouvoir'
p3495
asS'tragic'
p3496
(lp3497
S'dramatique'
p3498
asS'following'
p3499
(lp3500
S'apr\xc3\xa8s'
p3501
asS'ferry'
p3502
(lp3503
S'passage'
p3504
asS'detached'
p3505
(lp3506
S'objectif'
p3507
asS'arrive'
p3508
(lp3509
S'arriver'
p3510
asS'social'
p3511
(lp3512
S'social'
p3513
asS'pent-up'
p3514
(lp3515
S'contenu'
p3516
asS'claim'
p3517
(lp3518
S'titre'
p3519
asS'crazy'
p3520
(lp3521
S'terrible'
p3522
asS'figure'
p3523
(lp3524
S'forme'
p3525
asS'predict'
p3526
(lp3527
S'pr\xc3\xa9voir'
p3528
asS'attribute'
p3529
(lp3530
S'attribuer'
p3531
asS'awesome'
p3532
(lp3533
S'impressionnant'
p3534
asS'sense'
p3535
(lp3536
S'd\xc3\xa9tecter'
p3537
asS'sample'
p3538
(lp3539
S'exemple'
p3540
asS'abort'
p3541
(lp3542
S'interrompre'
p3543
asS'yard'
p3544
(lp3545
S'd\xc3\xa9p\xc3\xb4t'
p3546
asS'council'
p3547
(lp3548
S'conseil'
p3549
asS'sharp'
p3550
(lp3551
S'violent'
p3552
asS'topple'
p3553
(lp3554
S'tomber'
p3555
asS'counting'
p3556
(lp3557
S'calcul'
p3558
asS'hydrogen'
p3559
(lp3560
S'hydrog\xc3\xa8ne'
p3561
asS'occur'
p3562
(lp3563
S'arriver'
p3564
asS'pink'
p3565
(lp3566
S'percer'
p3567
asS'monitoring'
p3568
(lp3569
S'surveillance'
p3570
asS'winter'
p3571
(lp3572
S'hiver'
p3573
asS'fortunately'
p3574
(lp3575
S'heureusement'
p3576
asS'tilt'
p3577
(lp3578
S'inclinaison'
p3579
asS'discussion'
p3580
(lp3581
S'explication'
p3582
asS'sandstone'
p3583
(lp3584
S'gr\xc3\xa8s'
p3585
asS'innumerable'
p3586
(lp3587
S'innombrable'
p3588
asS'pine'
p3589
(lp3590
S'pin'
p3591
asS'chemical'
p3592
(lp3593
S'produit'
p3594
asS'till'
p3595
(lp3596
S'fa\xc3\xa7onner'
p3597
asS'flank'
p3598
(lp3599
S'flanc'
p3600
asS'criterion'
p3601
(lp3602
S'crit\xc3\xa8re'
p3603
asS'pure'
p3604
(lp3605
S'naturel'
p3606
asS'significant'
p3607
(lp3608
S'important'
p3609
asS'plus'
p3610
(lp3611
S'plus'
p3612
asS'youth'
p3613
(lp3614
S'jeune'
p3615
asS'guarantee'
p3616
(lp3617
S'assurer'
p3618
asS'parameter'
p3619
(lp3620
S'param\xc3\xa8tre'
p3621
asS'nonstop'
p3622
(lp3623
S'direct'
p3624
asS'economy'
p3625
(lp3626
S'\xc3\xa9conomie'
p3627
asS'map'
p3628
(lp3629
S'plan'
p3630
asS'product'
p3631
(lp3632
S'produit'
p3633
asS'designer'
p3634
(lp3635
S'cr\xc3\xa9ateur'
p3636
asS'explorer'
p3637
(lp3638
S'sonde'
p3639
asS'information'
p3640
(lp3641
S'savoir'
p3642
asS'escalate'
p3643
(lp3644
S'monter'
p3645
asS'dive'
p3646
(lp3647
S'plonger'
p3648
asS'southern'
p3649
(lp3650
S'sud'
p3651
asS'produce'
p3652
(lp3653
S'faire'
p3654
asS'value'
p3655
(lp3656
S'estimer'
p3657
asS'date'
p3658
(lp3659
S'dater'
p3660
asS'drastic'
p3661
(lp3662
S'violent'
p3663
asS'suck'
p3664
(lp3665
S'aspirer'
p3666
asS'destructive'
p3667
(lp3668
S'd\xc3\xa9vastateur'
p3669
asS'data'
p3670
(lp3671
S'information'
p3672
asS'grow'
p3673
(lp3674
S'faire'
p3675
asS'repeat'
p3676
(lp3677
S'reprise'
p3678
asS'man'
p3679
(lp3680
S'type'
p3681
asS'classroom'
p3682
(lp3683
S'classe'
p3684
asS'supersonic'
p3685
(lp3686
S'supersonique'
p3687
asS'stress'
p3688
(lp3689
S'pression'
p3690
asS'natural'
p3691
(lp3692
S'nature'
p3693
asS'neck'
p3694
(lp3695
S'neck'
p3696
asS'commodity'
p3697
(lp3698
S'produit'
p3699
asS'joint'
p3700
(lp3701
S'commun'
p3702
asS'whenever'
p3703
(lp3704
S'quand'
p3705
asS'maybe'
p3706
(lp3707
S'peut-\xc3\xaatre'
p3708
asS'amuse'
p3709
(lp3710
S'amuser'
p3711
asS'outpouring'
p3712
(lp3713
S'\xc3\xa9panchement'
p3714
asS'cascade'
p3715
(lp3716
S'pluie'
p3717
asS'switch'
p3718
(lp3719
S'contact'
p3720
asS'so'
p3721
(lp3722
S'si'
p3723
asS'deposit'
p3724
(lp3725
S'fond'
p3726
asS'spray'
p3727
(lp3728
S'bombe'
p3729
asS'unleash'
p3730
(lp3731
S'd\xc3\xa9clencher'
p3732
asS'tall'
p3733
(lp3734
S'grand'
p3735
asS'talk'
p3736
(lp3737
S'parler'
p3738
asS'outlet'
p3739
(lp3740
S'sortie'
p3741
asS'uncork'
p3742
(lp3743
S'd\xc3\xa9boucher'
p3744
asS'shield'
p3745
(lp3746
S'couvrir'
p3747
asS'nerve'
p3748
(lp3749
S'aplomb'
p3750
asS'gradual'
p3751
(lp3752
S'doux'
p3753
asS'shaky'
p3754
(lp3755
S'fragile'
p3756
asS'mainly'
p3757
(lp3758
S'surtout'
p3759
asS'damage'
p3760
(lp3761
S'br\xc3\xbbler'
p3762
asS'course'
p3763
(lp3764
S'terrain'
p3765
asS'yearn'
p3766
(lp3767
S'aspirer'
p3768
asS'terrace'
p3769
(lp3770
S'\xc3\xa9tage'
p3771
asS'shake'
p3772
(lp3773
S'tremblement'
p3774
asS'equip'
p3775
(lp3776
S'monter'
p3777
asS'cold'
p3778
(lp3779
S'froid'
p3780
asS'still'
p3781
(lp3782
S'encore'
p3783
asS'skeleton'
p3784
(lp3785
S'carcasse'
p3786
asS'carapace'
p3787
(lp3788
S'carapace'
p3789
asS'solitary'
p3790
(lp3791
S'seul'
p3792
asS'derive'
p3793
(lp3794
S'trouver'
p3795
asS'disconnect'
p3796
(lp3797
S's\xc3\xa9parer'
p3798
asS'monitor'
p3799
(lp3800
S'surveiller'
p3801
asS'acknowledge'
p3802
(lp3803
S'admettre'
p3804
asS'interesting'
p3805
(lp3806
S'int\xc3\xa9ressant'
p3807
asS'mantle'
p3808
(lp3809
S'recouvrir'
p3810
asS'hot'
p3811
(lp3812
S'violent'
p3813
asS'window'
p3814
(lp3815
S'glace'
p3816
asS'suffocate'
p3817
(lp3818
S'asphyxier'
p3819
asS'farmer'
p3820
(lp3821
S'habitant'
p3822
asS'suspension'
p3823
(lp3824
S'suspension'
p3825
asS'main'
p3826
(lp3827
S'grand'
p3828
asS'instantly'
p3829
(lp3830
S'instantan\xc3\xa9ment'
p3831
asS'correspondence'
p3832
(lp3833
S'correspondance'
p3834
asS'apron'
p3835
(lp3836
S'tablier'
p3837
asS'centenary'
p3838
(lp3839
S'si\xc3\xa8cle'
p3840
asS'unplanned'
p3841
(lp3842
S'sauvage'
p3843
asS'halt'
p3844
(lp3845
S'arr\xc3\xaater'
p3846
asS'civilian'
p3847
(lp3848
S'civil'
p3849
asS'devastated'
p3850
(lp3851
S'sinistr\xc3\xa9'
p3852
asS'killer'
p3853
(lp3854
S'meurtrier'
p3855
asS'shatter'
p3856
(lp3857
S'd\xc3\xa9truire'
p3858
asS'solubility'
p3859
(lp3860
S'solubilit\xc3\xa9'
p3861
asS'nation'
p3862
(lp3863
S'peuple'
p3864
asS'underneath'
p3865
(lp3866
S'sous'
p3867
asS'interview'
p3868
(lp3869
S'interroger'
p3870
asS'drilling'
p3871
(lp3872
S'forage'
p3873
asS'half'
p3874
(lp3875
S'moiti\xc3\xa9'
p3876
asS'not'
p3877
(lp3878
S'pas'
p3879
asS'thus'
p3880
(lp3881
S'ainsi'
p3882
asS'locus'
p3883
(lp3884
S'point'
p3885
asS'discuss'
p3886
(lp3887
S'agiter'
p3888
asS'down'
p3889
(lp3890
S'descendre'
p3891
asS'term'
p3892
(lp3893
S'appeler'
p3894
asS'name'
p3895
(lp3896
S'appeler'
p3897
asS'rendering'
p3898
(lp3899
S'interpr\xc3\xa9tation'
p3900
asS'clutch'
p3901
(lp3902
S'crise'
p3903
asS'drop'
p3904
(lp3905
S'pendant'
p3906
asS'scurry'
p3907
(lp3908
S'filer'
p3909
asS'offshore'
p3910
(lp3911
S'c\xc3\xb4tier'
p3912
asS'rock'
p3913
(lp3914
S'roche'
p3915
asS'instability'
p3916
(lp3917
S'instabilit\xc3\xa9'
p3918
asS'entirely'
p3919
(lp3920
S'compl\xc3\xa8tement'
p3921
asS'quarter'
p3922
(lp3923
S'gr\xc3\xa2ce'
p3924
asS'vogue'
p3925
(lp3926
S'mode'
p3927
asS'successful'
p3928
(lp3929
S'\xc3\xa9lu'
p3930
asS'en'
p3931
(lp3932
S'n'
p3933
asS'retrieve'
p3934
(lp3935
S'retrouver'
p3936
asS'significantly'
p3937
(lp3938
S'fortement'
p3939
asS'scheme'
p3940
(lp3941
S'plan'
p3942
asS'abnormal'
p3943
(lp3944
S'aberrant'
p3945
asS'richly'
p3946
(lp3947
S'profond\xc3\xa9ment'
p3948
asS'sponsor'
p3949
(lp3950
S'organiser'
p3951
asS'year'
p3952
(lp3953
S'an'
p3954
asS'happen'
p3955
(lp3956
S'arriver'
p3957
asS'summary'
p3958
(lp3959
S'pr\xc3\xa9cis'
p3960
asS'amusement'
p3961
(lp3962
S'jeu'
p3963
asS'living'
p3964
(lp3965
S'ardent'
p3966
asS'accomplish'
p3967
(lp3968
S'effectuer'
p3969
asS'space'
p3970
(lp3971
S'place'
p3972
asS'truly'
p3973
(lp3974
S'vraiment'
p3975
asS'factory'
p3976
(lp3977
S'usine'
p3978
asS'hastily'
p3979
(lp3980
S'pr\xc3\xa9cipitamment'
p3981
asS'increase'
p3982
(lp3983
S'augmenter'
p3984
asS'seriously'
p3985
(lp3986
S's\xc3\xa9rieusement'
p3987
asS'investigation'
p3988
(lp3989
S'enqu\xc3\xaate'
p3990
asS'dioxide'
p3991
(lp3992
S'dioxyde'
p3993
asS'dominate'
p3994
(lp3995
S'dominer'
p3996
asS'sensor'
p3997
(lp3998
S'capteur'
p3999
asS'correct'
p4000
(lp4001
S'bon'
p4002
asS'she'
p4003
(lp4004
S'il'
p4005
asS'after'
p4006
(lp4007
S'sur'
p4008
asS'monster'
p4009
(lp4010
S'colossal'
p4011
asS'unexpected'
p4012
(lp4013
S'soudain'
p4014
asS'sideways'
p4015
(lp4016
S'lat\xc3\xa9ralement'
p4017
asS'million'
p4018
(lp4019
S'million'
p4020
asS'envelop'
p4021
(lp4022
S'envelopper'
p4023
asS'isotope'
p4024
(lp4025
S'isotope'
p4026
asS'quite'
p4027
(lp4028
S'tout'
p4029
asS'complicated'
p4030
(lp4031
S'complexe'
p4032
asS'lump'
p4033
(lp4034
S'masse'
p4035
asS'besides'
p4036
(lp4037
S'outre'
p4038
asS'salvage'
p4039
(lp4040
S'r\xc3\xa9cup\xc3\xa9rer'
p4041
asS'ominous'
p4042
(lp4043
S'inqui\xc3\xa9tant'
p4044
asS'marine'
p4045
(lp4046
S'marin'
p4047
asS'inevitable'
p4048
(lp4049
S'obligatoire'
p4050
asS'vestige'
p4051
(lp4052
S'vestige'
p4053
asS'advance'
p4054
(lp4055
S'\xc3\xa9mettre'
p4056
asS'training'
p4057
(lp4058
S'formation'
p4059
asS'language'
p4060
(lp4061
S'langue'
p4062
asS'ministry'
p4063
(lp4064
S'minist\xc3\xa8re'
p4065
asS'gabbro'
p4066
(lp4067
S'gabbro'
p4068
asS'wrong'
p4069
(lp4070
S'mauvais'
p4071
asS'motion'
p4072
(lp4073
S'mouvement'
p4074
asS'initiate'
p4075
(lp4076
S'lancer'
p4077
asS'place'
p4078
(lp4079
S'situer'
p4080
asS'massive'
p4081
(lp4082
S'\xc3\xa9pais'
p4083
asS'plagioclase'
p4084
(lp4085
S'plagioclase'
p4086
asS'warning'
p4087
(lp4088
S'observation'
p4089
asS'neglect'
p4090
(lp4091
S'oublier'
p4092
asS'frequent'
p4093
(lp4094
S'nombreux'
p4095
asS'first'
p4096
(lp4097
S'premier'
p4098
asS'origin'
p4099
(lp4100
S'origine'
p4101
asS'initial'
p4102
(lp4103
S'premier'
p4104
asS'dwelling'
p4105
(lp4106
S'habitation'
p4107
asS'striking'
p4108
(lp4109
S'sonnant'
p4110
asS'safety'
p4111
(lp4112
S's\xc3\xa9curit\xc3\xa9'
p4113
asS'bluish'
p4114
(lp4115
S'bleut\xc3\xa9'
p4116
asS'reopen'
p4117
(lp4118
S'reprendre'
p4119
asS'long'
p4120
(lp4121
S'grand'
p4122
asS'directly'
p4123
(lp4124
S'directement'
p4125
asS'spectrometer'
p4126
(lp4127
S'spectrom\xc3\xa8tre'
p4128
asS'carry'
p4129
(lp4130
S'produire'
p4131
asS'impossible'
p4132
(lp4133
S'impossible'
p4134
asS'array'
p4135
(lp4136
S'ordre'
p4137
asS'open'
p4138
(lp4139
S'commencer'
p4140
asS'cheesy'
p4141
(lp4142
S'large'
p4143
asS'engineer'
p4144
(lp4145
S'r\xc3\xa9aliser'
p4146
asS'sheep'
p4147
(lp4148
S'mouton'
p4149
asS'city'
p4150
(lp4151
S'ville'
p4152
asS'little'
p4153
(lp4154
S'petit'
p4155
asS'necessarily'
p4156
(lp4157
S'forc\xc3\xa9ment'
p4158
asS'sheet'
p4159
(lp4160
S'plaque'
p4161
asS'silent'
p4162
(lp4163
S'silencieux'
p4164
asS'district'
p4165
(lp4166
S'r\xc3\xa9gion'
p4167
asS'bite'
p4168
(lp4169
S'morceau'
p4170
asS'carbonate'
p4171
(lp4172
S'carbonater'
p4173
asS'response'
p4174
(lp4175
S'r\xc3\xa9action'
p4176
asS'anyone'
p4177
(lp4178
S'on'
p4179
asS'indicate'
p4180
(lp4181
S'montrer'
p4182
asS'cooling'
p4183
(lp4184
S'refroidissement'
p4185
asS'draft'
p4186
(lp4187
S'effet'
p4188
asS'dissipate'
p4189
(lp4190
S'disperser'
p4191
asS'fiery'
p4192
(lp4193
S'volcanique'
p4194
asS'convention'
p4195
(lp4196
S'convention'
p4197
asS'white'
p4198
(lp4199
S'blanc'
p4200
asS'cite'
p4201
(lp4202
S'citer'
p4203
asS'friend'
p4204
(lp4205
S'ami'
p4206
asS'parting'
p4207
(lp4208
S'ligne'
p4209
asS'mining'
p4210
(lp4211
S'extraction'
p4212
asS'thaw'
p4213
(lp4214
S'fondre'
p4215
asS'spiral'
p4216
(lp4217
S'spiro\xc3\xafdal'
p4218
asS'hub'
p4219
(lp4220
S'centre'
p4221
asS'that'
p4222
(lp4223
S'ce'
p4224
asS'season'
p4225
(lp4226
S'\xc3\xa9poque'
p4227
asS'continuous'
p4228
(lp4229
S'continu'
p4230
asS'accurately'
p4231
(lp4232
S'pr\xc3\xa9cis\xc3\xa9ment'
p4233
asS'broadcast'
p4234
(lp4235
S'\xc3\xa9mettre'
p4236
asS'portend'
p4237
(lp4238
S'annoncer'
p4239
asS'undoubtedly'
p4240
(lp4241
S'indubitablement'
p4242
asS'than'
p4243
(lp4244
S'que'
p4245
asS'infiltrate'
p4246
(lp4247
S'infiltrer'
p4248
asS'population'
p4249
(lp4250
S'population'
p4251
asS'wide'
p4252
(lp4253
S'grand'
p4254
asS'television'
p4255
(lp4256
S't\xc3\xa9l\xc3\xa9vision'
p4257
asS'translate'
p4258
(lp4259
S'traduire'
p4260
asS'third'
p4261
(lp4262
S'trois'
p4263
asS'require'
p4264
(lp4265
S'n\xc3\xa9cessiter'
p4266
asS'yet'
p4267
(lp4268
S'encore'
p4269
asS'diplomatic'
p4270
(lp4271
S'politique'
p4272
asS'reinforce'
p4273
(lp4274
S'consolider'
p4275
asS'future'
p4276
(lp4277
S'devenir'
p4278
asS'magnesium'
p4279
(lp4280
S'magn\xc3\xa9sium'
p4281
asS'venture'
p4282
(lp4283
S'avancer'
p4284
asS'extinguish'
p4285
(lp4286
S'\xc3\xa9teindre'
p4287
asS'happy'
p4288
(lp4289
S'gris'
p4290
asS'photosynthesis'
p4291
(lp4292
S'photosynth\xc3\xa8se'
p4293
asS'and'
p4294
(lp4295
S'et'
p4296
asS'gathering'
p4297
(lp4298
S'r\xc3\xa9union'
p4299
asS'geophysicist'
p4300
(lp4301
S'g\xc3\xa9ophysicien'
p4302
asS'froth'
p4303
(lp4304
S'vent'
p4305
asS'fragmented'
p4306
(lp4307
S'fractionn\xc3\xa9'
p4308
asS'sumptuous'
p4309
(lp4310
S'riche'
p4311
asS'seal'
p4312
(lp4313
S'fermer'
p4314
asS'sag'
p4315
(lp4316
S'baisse'
p4317
asS'overnight'
p4318
(lp4319
S'soudain'
p4320
asS'say'
p4321
(lp4322
S'faire'
p4323
asS'plunge'
p4324
(lp4325
S'chute'
p4326
asS'spectacle'
p4327
(lp4328
S'spectacle'
p4329
asS'anger'
p4330
(lp4331
S'col\xc3\xa8re'
p4332
asS'slag'
p4333
(lp4334
S'scorie'
p4335
asS'recover'
p4336
(lp4337
S'remonter'
p4338
asS'slab'
p4339
(lp4340
S'bloc'
p4341
asS'any'
p4342
(lp4343
S'tout'
p4344
asS'invite'
p4345
(lp4346
S'appeler'
p4347
asS'publicity'
p4348
(lp4349
S'publicit\xc3\xa9'
p4350
asS'squat'
p4351
(lp4352
S'lourd'
p4353
asS'offering'
p4354
(lp4355
S'offrande'
p4356
asS'general'
p4357
(lp4358
S'g\xc3\xa9n\xc3\xa9ral'
p4359
asS'knead'
p4360
(lp4361
S'travailler'
p4362
asS'isolate'
p4363
(lp4364
S'isoler'
p4365
asS'note'
p4366
(lp4367
S'effet'
p4368
asS'equipment'
p4369
(lp4370
S'mat\xc3\xa9riel'
p4371
asS'ideal'
p4372
(lp4373
S'id\xc3\xa9al'
p4374
asS'potential'
p4375
(lp4376
S'possible'
p4377
asS'take'
p4378
(lp4379
S'avoir'
p4380
asS'fracture'
p4381
(lp4382
S'fracture'
p4383
asS'interior'
p4384
(lp4385
S'int\xc3\xa9rieur'
p4386
asS'destroy'
p4387
(lp4388
S'd\xc3\xa9truire'
p4389
asS'wonder'
p4390
(lp4391
S'penser'
p4392
asS'channel'
p4393
(lp4394
S'cha\xc3\xaene'
p4395
asS'urge'
p4396
(lp4397
S'pousser'
p4398
asS'begin'
p4399
(lp4400
S'prendre'
p4401
asS'sure'
p4402
(lp4403
S'certain'
p4404
asS'prick'
p4405
(lp4406
S'crever'
p4407
asS'trace'
p4408
(lp4409
S'retrouver'
p4410
asS'normal'
p4411
(lp4412
S'r\xc3\xa9gulier'
p4413
asS'track'
p4414
(lp4415
S'trace'
p4416
asS'price'
p4417
(lp4418
S'\xc3\xa9valuer'
p4419
asS'enter'
p4420
(lp4421
S'entrer'
p4422
asS'healthy'
p4423
(lp4424
S'solide'
p4425
asS'to'
p4426
(lp4427
S'en'
p4428
asS'evaporate'
p4429
(lp4430
S'dispara\xc3\xaetre'
p4431
asS'falls'
p4432
(lp4433
S'cascade'
p4434
asS'boiling'
p4435
(lp4436
S'br\xc3\xbblant'
p4437
asS'assault'
p4438
(lp4439
S'violenter'
p4440
asS'whichever'
p4441
(lp4442
S'quel'
p4443
asS'billow'
p4444
(lp4445
S'onduler'
p4446
asS'clatter'
p4447
(lp4448
S'fracas'
p4449
asS'sun'
p4450
(lp4451
S'solaire'
p4452
asS'snowslide'
p4453
(lp4454
S'avalanche'
p4455
asS'conspicuous'
p4456
(lp4457
S'visible'
p4458
asS'voluntary'
p4459
(lp4460
S'volontaire'
p4461
asS'wireless'
p4462
(lp4463
S'radio'
p4464
asS'forever'
p4465
(lp4466
S'toujours'
p4467
asS'vapor'
p4468
(lp4469
S'vapeur'
p4470
asS'radioactive'
p4471
(lp4472
S'radioactif'
p4473
asS'especially'
p4474
(lp4475
S'particuli\xc3\xa8rement'
p4476
asS'surprising'
p4477
(lp4478
S'surprenant'
p4479
asS'energize'
p4480
(lp4481
S'alimenter'
p4482
asS'average'
p4483
(lp4484
S'moyen'
p4485
asS'adopt'
p4486
(lp4487
S'suivre'
p4488
asS'steady'
p4489
(lp4490
S'solide'
p4491
asS'drive'
p4492
(lp4493
S'entra\xc3\xaener'
p4494
asS'trotter'
p4495
(lp4496
S'pied'
p4497
asS'prepare'
p4498
(lp4499
S'pr\xc3\xa9parer'
p4500
asS'aerosol'
p4501
(lp4502
S'bombe'
p4503
asS'obsidian'
p4504
(lp4505
S'obsidienne'
p4506
asS'grassland'
p4507
(lp4508
S'prairie'
p4509
asS'professional'
p4510
(lp4511
S'excellent'
p4512
asS'quantity'
p4513
(lp4514
S'quantit\xc3\xa9'
p4515
asS'precise'
p4516
(lp4517
S'pr\xc3\xa9cis'
p4518
asS'perch'
p4519
(lp4520
S'percher'
p4521
asS'drastically'
p4522
(lp4523
S'consid\xc3\xa9rablement'
p4524
asS'shot'
p4525
(lp4526
S'photo'
p4527
asS'solar'
p4528
(lp4529
S'solaire'
p4530
asS'show'
p4531
(lp4532
S'donner'
p4533
asS'friction'
p4534
(lp4535
S'd\xc3\xa9saccord'
p4536
asS'far-reaching'
p4537
(lp4538
S'vaste'
p4539
asS'bright'
p4540
(lp4541
S'bon'
p4542
asS'typify'
p4543
(lp4544
S'r\xc3\xa9sumer'
p4545
asS'hack'
p4546
(lp4547
S'monter'
p4548
asS'corner'
p4549
(lp4550
S'angle'
p4551
asS'label'
p4552
(lp4553
S'marquer'
p4554
asS'line'
p4555
(lp4556
S'vers'
p4557
asS'fifth'
p4558
(lp4559
S'bouteille'
p4560
asS'ground'
p4561
(lp4562
S'terre'
p4563
asS'protrusion'
p4564
(lp4565
S'avanc\xc3\xa9e'
p4566
asS'cabin'
p4567
(lp4568
S'carlingue'
p4569
asS'ratio'
p4570
(lp4571
S'raison'
p4572
asS'gulf'
p4573
(lp4574
S'golfe'
p4575
asS'title'
p4576
(lp4577
S'titre'
p4578
asS'plume'
p4579
(lp4580
S'panache'
p4581
asS'devote'
p4582
(lp4583
S'affecter'
p4584
asS'proportion'
p4585
(lp4586
S'partie'
p4587
asS'behind'
p4588
(lp4589
S'apr\xc3\xa8s'
p4590
asS'shimmer'
p4591
(lp4592
S'trembler'
p4593
asS'fickle'
p4594
(lp4595
S'l\xc3\xa9ger'
p4596
asS'stand'
p4597
(lp4598
S'\xc3\xaatre'
p4599
asS'black'
p4600
(lp4601
S'violent'
p4602
asS'sierra'
p4603
(lp4604
S'sierra'
p4605
asS'shrill'
p4606
(lp4607
S'violent'
p4608
asS'over'
p4609
(lp4610
S'plus'
p4611
asS'awareness'
p4612
(lp4613
S'conscience'
p4614
asS'dispute'
p4615
(lp4616
S'attaquer'
p4617
asS'hurl'
p4618
(lp4619
S'lancer'
p4620
asS'touch'
p4621
(lp4622
S'atteindre'
p4623
asS'get'
p4624
(lp4625
S'\xc3\xaatre'
p4626
asS'hiss'
p4627
(lp4628
S'cracher'
p4629
asS'expectation'
p4630
(lp4631
S'pr\xc3\xa9vision'
p4632
asS'mission'
p4633
(lp4634
S'mission'
p4635
asS'aim'
p4636
(lp4637
S'fin'
p4638
asS'nearly'
p4639
(lp4640
S'pr\xc3\xa8s'
p4641
asS'imprint'
p4642
(lp4643
S'marquer'
p4644
asS'distinctly'
p4645
(lp4646
S'particuli\xc3\xa8rement'
p4647
asS'suggest'
p4648
(lp4649
S'proposer'
p4650
asS'trade'
p4651
(lp4652
S'\xc3\xa9tat'
p4653
asS'secondary'
p4654
(lp4655
S'second'
p4656
asS'prime'
p4657
(lp4658
S'premier'
p4659
asS'reveal'
p4660
(lp4661
S'pr\xc3\xa9senter'
p4662
asS'smokestack'
p4663
(lp4664
S'chemin\xc3\xa9e'
p4665
asS'pinnacle'
p4666
(lp4667
S'sommet'
p4668
asS'aluminum'
p4669
(lp4670
S'aluminium'
p4671
asS'seldom'
p4672
(lp4673
S'rarement'
p4674
asS'obliterate'
p4675
(lp4676
S'd\xc3\xa9truire'
p4677
asS'borrow'
p4678
(lp4679
S'emprunter'
p4680
asS'yield'
p4681
(lp4682
S'produire'
p4683
asS'morning'
p4684
(lp4685
S'matin'
p4686
asS'skyline'
p4687
(lp4688
S'profil'
p4689
asS'scientist'
p4690
(lp4691
S'scientifique'
p4692
asS'source'
p4693
(lp4694
S'origine'
p4695
asS'liable'
p4696
(lp4697
S'responsable'
p4698
asS'uncover'
p4699
(lp4700
S'retrouver'
p4701
asS'photographically'
p4702
(lp4703
S'photographiquement'
p4704
asS'where'
p4705
(lp4706
S'o\xc3\xb9'
p4707
asS'entomb'
p4708
(lp4709
S'ensevelir'
p4710
asS'village'
p4711
(lp4712
S'village'
p4713
asS'staff'
p4714
(lp4715
S'port\xc3\xa9e'
p4716
asS'concert'
p4717
(lp4718
S'concert'
p4719
asS'burst'
p4720
(lp4721
S'explosion'
p4722
asS'imposing'
p4723
(lp4724
S'impressionnant'
p4725
asS'sear'
p4726
(lp4727
S'br\xc3\xbbler'
p4728
asS'station'
p4729
(lp4730
S'mettre'
p4731
asS'famine'
p4732
(lp4733
S'famine'
p4734
asS'sulphide'
p4735
(lp4736
S'sulfure'
p4737
asS'actively'
p4738
(lp4739
S's\xc3\xa9rieusement'
p4740
asS'college'
p4741
(lp4742
S'universit\xc3\xa9'
p4743
asS'flatly'
p4744
(lp4745
S'net'
p4746
asS'hell'
p4747
(lp4748
S'enfer'
p4749
asS'concern'
p4750
(lp4751
S'int\xc3\xa9resser'
p4752
asS'detect'
p4753
(lp4754
S'distinguer'
p4755
asS'vertical'
p4756
(lp4757
S'vertical'
p4758
asS'subsequent'
p4759
(lp4760
S'suivant'
p4761
asS'review'
p4762
(lp4763
S'\xc3\xa9tude'
p4764
asS'telegraph'
p4765
(lp4766
S'd\xc3\xa9voiler'
p4767
asS'forecast'
p4768
(lp4769
S'projection'
p4770
asS'gage'
p4771
(lp4772
S'gage'
p4773
asS'enough'
p4774
(lp4775
S'assez'
p4776
asS'kilometer'
p4777
(lp4778
S'kilom\xc3\xa8tre'
p4779
asS'between'
p4780
(lp4781
S'entre'
p4782
asS'reading'
p4783
(lp4784
S'culture'
p4785
asS'presage'
p4786
(lp4787
S'annoncer'
p4788
asS'arrival'
p4789
(lp4790
S'apparition'
p4791
asS'notice'
p4792
(lp4793
S'observer'
p4794
asS'august'
p4795
(lp4796
S'imposant'
p4797
asS'parent'
p4798
(lp4799
S'p\xc3\xa8re'
p4800
asS'screen'
p4801
(lp4802
S'projeter'
p4803
asS'dome'
p4804
(lp4805
S'd\xc3\xb4me'
p4806
asS'pluck'
p4807
(lp4808
S'courage'
p4809
asS'blame'
p4810
(lp4811
S'condamner'
p4812
asS'concentrate'
p4813
(lp4814
S'concentrer'
p4815
asS'spare'
p4816
(lp4817
S'\xc3\xa9viter'
p4818
asS'article'
p4819
(lp4820
S'article'
p4821
asS'spark'
p4822
(lp4823
S'provoquer'
p4824
asS'come'
p4825
(lp4826
S'venir'
p4827
asS'reaction'
p4828
(lp4829
S'r\xc3\xa9action'
p4830
asS'circumference'
p4831
(lp4832
S'tour'
p4833
asS'many'
p4834
(lp4835
S'nombreux'
p4836
asS'region'
p4837
(lp4838
S'r\xc3\xa9gion'
p4839
asS'resist'
p4840
(lp4841
S'r\xc3\xa9sister'
p4842
asS'monk'
p4843
(lp4844
S'moine'
p4845
asS'contract'
p4846
(lp4847
S'prendre'
p4848
asS'temper'
p4849
(lp4850
S'col\xc3\xa8re'
p4851
asS'sketchy'
p4852
(lp4853
S'maigre'
p4854
asS'densely'
p4855
(lp4856
S'dru'
p4857
asS'torrential'
p4858
(lp4859
S'diluvien'
p4860
asS'nearby'
p4861
(lp4862
S'pr\xc3\xa8s'
p4863
asS'stance'
p4864
(lp4865
S'station'
p4866
asS'among'
p4867
(lp4868
S'entre'
p4869
asS'afterwards'
p4870
(lp4871
S'apr\xc3\xa8s'
p4872
asS'cancer'
p4873
(lp4874
S'cancer'
p4875
asS'color'
p4876
(lp4877
S'couleur'
p4878
asS'continuation'
p4879
(lp4880
S'suite'
p4881
asS'pot'
p4882
(lp4883
S'mettre'
p4884
asS'roman'
p4885
(lp4886
S'romain'
p4887
asS'colony'
p4888
(lp4889
S'colonie'
p4890
asS'period'
p4891
(lp4892
S'point'
p4893
asS'pop'
p4894
(lp4895
S'mettre'
p4896
asS'sampling'
p4897
(lp4898
S'\xc3\xa9chantillonnage'
p4899
asS'pole'
p4900
(lp4901
S'sonde'
p4902
asS'cancel'
p4903
(lp4904
S'arr\xc3\xaater'
p4905
asS'aerial'
p4906
(lp4907
S'a\xc3\xa9rien'
p4908
asS'buoyancy'
p4909
(lp4910
S'pouss\xc3\xa9e'
p4911
asS'writing'
p4912
(lp4913
S'composition'
p4914
asS'turkey'
p4915
(lp4916
S'four'
p4917
asS'save'
p4918
(lp4919
S'\xc3\xa9viter'
p4920
asS'intrude'
p4921
(lp4922
S'imposer'
p4923
asS'capable'
p4924
(lp4925
S'capable'
p4926
asS'stretch'
p4927
(lp4928
S'donner'
p4929
asS'west'
p4930
(lp4931
S'ouest'
p4932
asS'rebuild'
p4933
(lp4934
S'remonter'
p4935
asS'markedly'
p4936
(lp4937
S'nettement'
p4938
asS'mark'
p4939
(lp4940
S'point'
p4941
asS'breath'
p4942
(lp4943
S'souffle'
p4944
asS'workshop'
p4945
(lp4946
S'atelier'
p4947
asS'combined'
p4948
(lp4949
S'mixte'
p4950
asS'helicopter'
p4951
(lp4952
S'h\xc3\xa9licopt\xc3\xa8re'
p4953
asS'hardly'
p4954
(lp4955
S'presque'
p4956
asS'engine'
p4957
(lp4958
S'moteur'
p4959
asS'asphyxiate'
p4960
(lp4961
S'asphyxier'
p4962
asS'indirect'
p4963
(lp4964
S'lointain'
p4965
asS'unsafe'
p4966
(lp4967
S'dangereux'
p4968
asS'thousand'
p4969
(lp4970
S'millier'
p4971
asS'geothermal'
p4972
(lp4973
S'g\xc3\xa9othermique'
p4974
asS'dramatic'
p4975
(lp4976
S'spectaculaire'
p4977
asS'wake'
p4978
(lp4979
S'r\xc3\xa9veiller'
p4980
asS'minister'
p4981
(lp4982
S'ministre'
p4983
asS'inundate'
p4984
(lp4985
S'inonder'
p4986
asS'careful'
p4987
(lp4988
S's\xc3\xa9rieux'
p4989
asS'diffuse'
p4990
(lp4991
S'r\xc3\xa9pandre'
p4992
asS'countless'
p4993
(lp4994
S'innombrable'
p4995
asS'case'
p4996
(lp4997
S'cas'
p4998
asS'myself'
p4999
(lp5000
S'me'
p5001
asS'prehistoric'
p5002
(lp5003
S'pr\xc3\xa9historique'
p5004
asS'slumber'
p5005
(lp5006
S'sommeil'
p5007
asS'mount'
p5008
(lp5009
S'mont'
p5010
asS'premature'
p5011
(lp5012
S'pr\xc3\xa9coce'
p5013
asS'deformation'
p5014
(lp5015
S'd\xc3\xa9formation'
p5016
asS'intimately'
p5017
(lp5018
S'intimement'
p5019
asS'cast'
p5020
(lp5021
S'coul\xc3\xa9e'
p5022
asS'tragedy'
p5023
(lp5024
S'tragique'
p5025
asS'sometime'
p5026
(lp5027
S'ancien'
p5028
asS'ongoing'
p5029
(lp5030
S'actuel'
p5031
asS'shear'
p5032
(lp5033
S'raser'
p5034
asS'joke'
p5035
(lp5036
S'tour'
p5037
asS'vibrate'
p5038
(lp5039
S'retentir'
p5040
asS'situation'
p5041
(lp5042
S'place'
p5043
asS'mound'
p5044
(lp5045
S'monticule'
p5046
asS'landslide'
p5047
(lp5048
S'\xc3\xa9boulement'
p5049
asS'margin'
p5050
(lp5051
S'bord'
p5052
asS'seepage'
p5053
(lp5054
S'fuite'
p5055
asS'understand'
p5056
(lp5057
S'comprendre'
p5058
asS'magmatic'
p5059
(lp5060
S'magmatique'
p5061
asS'then'
p5062
(lp5063
S'alors'
p5064
asS'soil'
p5065
(lp5066
S'terre'
p5067
asS'strait'
p5068
(lp5069
S'pas'
p5070
asS'startling'
p5071
(lp5072
S'surprenant'
p5073
asS'discrepancy'
p5074
(lp5075
S'diff\xc3\xa9rence'
p5076
asS'quiet'
p5077
(lp5078
S'bas'
p5079
asS'cluster'
p5080
(lp5081
S'groupe'
p5082
asS'unit'
p5083
(lp5084
S'bloc'
p5085
asS'good'
p5086
(lp5087
S'grand'
p5088
asS'clutter'
p5089
(lp5090
S'd\xc3\xa9sordre'
p5091
asS'dangerously'
p5092
(lp5093
S's\xc3\xa9rieusement'
p5094
asS'rally'
p5095
(lp5096
S'mieux'
p5097
asS'helium'
p5098
(lp5099
S'h\xc3\xa9lium'
p5100
asS'fame'
p5101
(lp5102
S'm\xc3\xa9moire'
p5103
asS'worry'
p5104
(lp5105
S'travailler'
p5106
asS'helmet'
p5107
(lp5108
S'casque'
p5109
asS'different'
p5110
(lp5111
S'plusieurs'
p5112
asS'develop'
p5113
(lp5114
S'former'
p5115
asS'harsh'
p5116
(lp5117
S'violent'
p5118
asS'doctor'
p5119
(lp5120
S'couper'
p5121
asS'pay'
p5122
(lp5123
S'pr\xc3\xa9senter'
p5124
asS'tour'
p5125
(lp5126
S'tour'
p5127
asS'lava'
p5128
(lp5129
S'lave'
p5130
asS'archive'
p5131
(lp5132
S'archives'
p5133
asS'epoch'
p5134
(lp5135
S'p\xc3\xa9riode'
p5136
asS'loudly'
p5137
(lp5138
S'haut'
p5139
asS'weakness'
p5140
(lp5141
S'faible'
p5142
asS'document'
p5143
(lp5144
S'd\xc3\xa9crire'
p5145
asS'breakdown'
p5146
(lp5147
S'effondrement'
p5148
asS'exhaust'
p5149
(lp5150
S'tuer'
p5151
asS'finish'
p5152
(lp5153
S'fin'
p5154
asS'thunderbolt'
p5155
(lp5156
S'foudre'
p5157
asS'meteorological'
p5158
(lp5159
S'm\xc3\xa9t\xc3\xa9orologique'
p5160
asS'assist'
p5161
(lp5162
S'assister'
p5163
asS'deflate'
p5164
(lp5165
S'd\xc3\xa9gonfler'
p5166
asS'director'
p5167
(lp5168
S'directeur'
p5169
asS'decently'
p5170
(lp5171
S'bien'
p5172
asS'delicate'
p5173
(lp5174
S'fin'
p5175
asS'puff'
p5176
(lp5177
S'gonfler'
p5178
asS'footprint'
p5179
(lp5180
S'pas'
p5181
asS'totally'
p5182
(lp5183
S'compl\xc3\xa8tement'
p5184
asS'reference'
p5185
(lp5186
S'rapport'
p5187
asS'villa'
p5188
(lp5189
S'villa'
p5190
asS'drain'
p5191
(lp5192
S'\xc3\xa9vacuer'
p5193
asS'perennial'
p5194
(lp5195
S'perp\xc3\xa9tuel'
p5196
asS'snow'
p5197
(lp5198
S'neige'
p5199
asS'intermittent'
p5200
(lp5201
S'intermittent'
p5202
asS'minimize'
p5203
(lp5204
S'r\xc3\xa9duire'
p5205
asS'locality'
p5206
(lp5207
S'r\xc3\xa9gion'
p5208
asS'roughly'
p5209
(lp5210
S'brutalement'
p5211
asS'severe'
p5212
(lp5213
S'on'
p5214
asS'without'
p5215
(lp5216
S'sans'
p5217
asS'solve'
p5218
(lp5219
S'r\xc3\xa9soudre'
p5220
asS'relief'
p5221
(lp5222
S'relief'
p5223
asS'bottle'
p5224
(lp5225
S'bouteille'
p5226
asS'very'
p5227
(lp5228
S'tout'
p5229
asS'model'
p5230
(lp5231
S'exemple'
p5232
asS'dimension'
p5233
(lp5234
S'dimension'
p5235
asS'summer'
p5236
(lp5237
S'\xc3\xa9t\xc3\xa9'
p5238
asS'clog'
p5239
(lp5240
S'bloquer'
p5241
asS'livestock'
p5242
(lp5243
S'b\xc3\xa9tail'
p5244
asS'vent'
p5245
(lp5246
S'chemin\xc3\xa9e'
p5247
asS'being'
p5248
(lp5249
S'\xc3\xaatre'
p5250
asS'fume'
p5251
(lp5252
S'fumer'
p5253
asS'disconcert'
p5254
(lp5255
S'interdire'
p5256
asS'researcher'
p5257
(lp5258
S'chercheur'
p5259
asS'risk'
p5260
(lp5261
S'risque'
p5262
asS'clot'
p5263
(lp5264
S'figer'
p5265
asS'foot'
p5266
(lp5267
S'bas'
p5268
asS'steamer'
p5269
(lp5270
S'vapeur'
p5271
asS'fateful'
p5272
(lp5273
S'fatal'
p5274
asS'disperse'
p5275
(lp5276
S'r\xc3\xa9pandre'
p5277
asS'aspect'
p5278
(lp5279
S'air'
p5280
asS'part'
p5281
(lp5282
S'partie'
p5283
asS'differentiation'
p5284
(lp5285
S'diff\xc3\xa9renciation'
p5286
asS'speed'
p5287
(lp5288
S'vitesse'
p5289
asS'wreathe'
p5290
(lp5291
S'couronner'
p5292
asS'blow'
p5293
(lp5294
S'faire'
p5295
asS'announcement'
p5296
(lp5297
S'avis'
p5298
asS'blot'
p5299
(lp5300
S's\xc3\xa9cher'
p5301
asS'hint'
p5302
(lp5303
S'conseil'
p5304
asS'rigid'
p5305
(lp5306
S'raide'
p5307
asS'rose'
p5308
(lp5309
S'rose'
p5310
asS'remember'
p5311
(lp5312
S'retrouver'
p5313
asS'senseless'
p5314
(lp5315
S'stupide'
p5316
asS'except'
p5317
(lp5318
S'exclure'
p5319
asS'geological'
p5320
(lp5321
S'g\xc3\xa9ologique'
p5322
asS'silver'
p5323
(lp5324
S'argent'
p5325
asS'instrument'
p5326
(lp5327
S'effet'
p5328
asS'decompression'
p5329
(lp5330
S'd\xc3\xa9compression'
p5331
asS'blob'
p5332
(lp5333
S'goutte'
p5334
asS'overthrow'
p5335
(lp5336
S'chute'
p5337
asS'republic'
p5338
(lp5339
S'r\xc3\xa9publique'
p5340
asS'extensive'
p5341
(lp5342
S'important'
p5343
asS'disrupt'
p5344
(lp5345
S'interrompre'
p5346
asS'impound'
p5347
(lp5348
S'retenir'
p5349
asS'grip'
p5350
(lp5351
S'passionner'
p5352
asS'northeast'
p5353
(lp5354
S'nord-est'
p5355
asS'hover'
p5356
(lp5357
S'flotter'
p5358
asS'grit'
p5359
(lp5360
S'sable'
p5361
asS'around'
p5362
(lp5363
S'vers'
p5364
asS'spectacular'
p5365
(lp5366
S'spectaculaire'
p5367
asS'read'
p5368
(lp5369
S'faire'
p5370
asS'outermost'
p5371
(lp5372
S'ext\xc3\xa9rieur'
p5373
asS'specimen'
p5374
(lp5375
S'exemple'
p5376
asS'early'
p5377
(lp5378
S'premier'
p5379
asS'forge'
p5380
(lp5381
S'former'
p5382
asS'inflation'
p5383
(lp5384
S'gonflement'
p5385
asS'traffic'
p5386
(lp5387
S'circulation'
p5388
asS'world'
p5389
(lp5390
S'terre'
p5391
asS'breakage'
p5392
(lp5393
S'rupture'
p5394
asS'walk'
p5395
(lp5396
S'pas'
p5397
asS'dare'
p5398
(lp5399
S'affronter'
p5400
asS'vertically'
p5401
(lp5402
S'verticalement'
p5403
asS'particle'
p5404
(lp5405
S'particule'
p5406
asS'siliceous'
p5407
(lp5408
S'siliceux'
p5409
asS'smell'
p5410
(lp5411
S'odeur'
p5412
asS'tend'
p5413
(lp5414
S'surveiller'
p5415
asS'lightning'
p5416
(lp5417
S'surprise'
p5418
asS'shutter'
p5419
(lp5420
S'rideau'
p5421
asS'chamber'
p5422
(lp5423
S'chambre'
p5424
asS'benefit'
p5425
(lp5426
S'gagner'
p5427
asS'full-scale'
p5428
(lp5429
S'total'
p5430
asS'either'
p5431
(lp5432
S'chaque'
p5433
asS'clay'
p5434
(lp5435
S'terre'
p5436
asS'output'
p5437
(lp5438
S'sortir'
p5439
asS'downward'
p5440
(lp5441
S'descendant'
p5442
asS'why'
p5443
(lp5444
S'que'
p5445
asS'twelve'
p5446
(lp5447
S'douze'
p5448
asS'satisfactory'
p5449
(lp5450
S'suffisant'
p5451
asS'superintendent'
p5452
(lp5453
S'directeur'
p5454
asS'afflict'
p5455
(lp5456
S'\xc3\xa9prouver'
p5457
asS'ascend'
p5458
(lp5459
S'remonter'
p5460
asS'competition'
p5461
(lp5462
S'course'
p5463
asS'magma'
p5464
(lp5465
S'magma'
p5466
asS'table'
p5467
(lp5468
S'd\xc3\xa9poser'
p5469
asS'duration'
p5470
(lp5471
S'dur\xc3\xa9e'
p5472
asS'root'
p5473
(lp5474
S'origine'
p5475
asS'intact'
p5476
(lp5477
S'entier'
p5478
asS'ascent'
p5479
(lp5480
S'mont\xc3\xa9e'
p5481
asS'extinct'
p5482
(lp5483
S'mort'
p5484
asS'booming'
p5485
(lp5486
S'gros'
p5487
asS'herald'
p5488
(lp5489
S'annoncer'
p5490
asS'slice'
p5491
(lp5492
S'partie'
p5493
asS'mood'
p5494
(lp5495
S'disposition'
p5496
asS'confirm'
p5497
(lp5498
S'confirmer'
p5499
asS'cavity'
p5500
(lp5501
S'cavit\xc3\xa9'
p5502
asS'noon'
p5503
(lp5504
S'midi'
p5505
asS'searing'
p5506
(lp5507
S'br\xc3\xbblant'
p5508
asS'extensively'
p5509
(lp5510
S'beaucoup'
p5511
asS'moon'
p5512
(lp5513
S'lune'
p5514
asS'pioneer'
p5515
(lp5516
S'pr\xc3\xa9curseur'
p5517
asS'throat'
p5518
(lp5519
S'gorge'
p5520
asS'corrosive'
p5521
(lp5522
S'destructeur'
p5523
asS'exit'
p5524
(lp5525
S'sortir'
p5526
asS'inject'
p5527
(lp5528
S'injecter'
p5529
asS'squirt'
p5530
(lp5531
S'jaillir'
p5532
asS'moderate'
p5533
(lp5534
S'moyen'
p5535
asS'situate'
p5536
(lp5537
S'situer'
p5538
asS'porter'
p5539
(lp5540
S'porter'
p5541
asS'refer'
p5542
(lp5543
S'parler'
p5544
asS'measuring'
p5545
(lp5546
S'mesure'
p5547
asS'process'
p5548
(lp5549
S'transformer'
p5550
asS'welcome'
p5551
(lp5552
S'recevoir'
p5553
asS'tomorrow'
p5554
(lp5555
S'lendemain'
p5556
asS'roast'
p5557
(lp5558
S'br\xc3\xbbler'
p5559
asS'business'
p5560
(lp5561
S'activit\xc3\xa9'
p5562
asS'intimate'
p5563
(lp5564
S'annoncer'
p5565
asS'equivalent'
p5566
(lp5567
S'\xc3\xa9quivalent'
p5568
asS'notable'
p5569
(lp5570
S'\xc3\xa9minent'
p5571
asS'poise'
p5572
(lp5573
S'gr\xc3\xa2ce'
p5574
asS'update'
p5575
(lp5576
S'actualiser'
p5577
asS'uneasy'
p5578
(lp5579
S'difficile'
p5580
asS'assemble'
p5581
(lp5582
S'monter'
p5583
asS'remarkable'
p5584
(lp5585
S'remarquable'
p5586
asS'comparison'
p5587
(lp5588
S'comparaison'
p5589
asS'stone'
p5590
(lp5591
S'pierre'
p5592
asS'subdued'
p5593
(lp5594
S'bas'
p5595
asS'central'
p5596
(lp5597
S'central'
p5598
asS'roar'
p5599
(lp5600
S'gronder'
p5601
asS'island'
p5602
(lp5603
S'insulaire'
p5604
asS'industry'
p5605
(lp5606
S'fili\xc3\xa8re'
p5607
asS'fringe'
p5608
(lp5609
S'bord'
p5610
asS'slender'
p5611
(lp5612
S'fin'
p5613
asS'side'
p5614
(lp5615
S'flanc'
p5616
asS'practical'
p5617
(lp5618
S'mat\xc3\xa9riel'
p5619
asS'tremendous'
p5620
(lp5621
S'\xc3\xa9norme'
p5622
asS'greatly'
p5623
(lp5624
S'tr\xc3\xa8s'
p5625
asS'neighbor'
p5626
(lp5627
S'voisin'
p5628
asS'act'
p5629
(lp5630
S'agir'
p5631
asS'mixed'
p5632
(lp5633
S'mixte'
p5634
asS'mean'
p5635
(lp5636
S'petit'
p5637
asS'or'
p5638
(lp5639
S'ou'
p5640
asS'road'
p5641
(lp5642
S'route'
p5643
asS'amber'
p5644
(lp5645
S'orange'
p5646
asS'tribe'
p5647
(lp5648
S'gent'
p5649
asS'quietly'
p5650
(lp5651
S'silencieusement'
p5652
asS'fertile'
p5653
(lp5654
S'fertile'
p5655
asS'shapely'
p5656
(lp5657
S'fin'
p5658
asS'burning'
p5659
(lp5660
S'ardent'
p5661
asS'inclusion'
p5662
(lp5663
S'inclusion'
p5664
asS'coupon'
p5665
(lp5666
S'bon'
p5667
asS'communication'
p5668
(lp5669
S'information'
p5670
asS'image'
p5671
(lp5672
S'image'
p5673
asS'secure'
p5674
(lp5675
S'prendre'
p5676
asS'determine'
p5677
(lp5678
S'\xc3\xa9tablir'
p5679
asS'heated'
p5680
(lp5681
S'chaud'
p5682
asS'operator'
p5683
(lp5684
S'directeur'
p5685
asS'valuable'
p5686
(lp5687
S'pr\xc3\xa9cieux'
p5688
asS'lastly'
p5689
(lp5690
S'enfin'
p5691
asS'your'
p5692
(lp5693
S'son'
p5694
asS'fluorine'
p5695
(lp5696
S'fluor'
p5697
asS'intervention'
p5698
(lp5699
S'intervention'
p5700
asS'bubbly'
p5701
(lp5702
S'champ'
p5703
asS'tropical'
p5704
(lp5705
S'tropical'
p5706
asS'vaporize'
p5707
(lp5708
S'vaporiser'
p5709
asS'log'
p5710
(lp5711
S'enregistrer'
p5712
asS'her'
p5713
(lp5714
S'le'
p5715
asS'area'
p5716
(lp5717
S'r\xc3\xa9gion'
p5718
asS'strictly'
p5719
(lp5720
S'exactement'
p5721
asS'there'
p5722
(lp5723
S'y'
p5724
asS'stark'
p5725
(lp5726
S'brutal'
p5727
asS'start'
p5728
(lp5729
S'd\xc3\xa9but'
p5730
asS'outflow'
p5731
(lp5732
S'd\xc3\xa9bit'
p5733
asS'low'
p5734
(lp5735
S'petit'
p5736
asS'lot'
p5737
(lp5738
S'sort'
p5739
asS'worst'
p5740
(lp5741
S'pire'
p5742
asS'slowly'
p5743
(lp5744
S'lentement'
p5745
asS'valley'
p5746
(lp5747
S'vall\xc3\xa9e'
p5748
asS'bubble'
p5749
(lp5750
S'bulle'
p5751
asS'shower'
p5752
(lp5753
S'pluie'
p5754
asS'complete'
p5755
(lp5756
S'total'
p5757
asS'groan'
p5758
(lp5759
S'grognement'
p5760
asS'outcrop'
p5761
(lp5762
S'affleurement'
p5763
asS'regard'
p5764
(lp5765
S'observer'
p5766
asS'co-worker'
p5767
(lp5768
S'coll\xc3\xa8gue'
p5769
asS'seismologist'
p5770
(lp5771
S'sismologue'
p5772
asS'hydrochloric'
p5773
(lp5774
S'chlorhydrique'
p5775
asS'cabinet'
p5776
(lp5777
S'meuble'
p5778
asS'shroud'
p5779
(lp5780
S'ensevelir'
p5781
asS'curiously'
p5782
(lp5783
S'curieusement'
p5784
asS'radioactivity'
p5785
(lp5786
S'radioactivit\xc3\xa9'
p5787
asS'intoxication'
p5788
(lp5789
S'intoxication'
p5790
asS'cottage'
p5791
(lp5792
S'villa'
p5793
asS'slowdown'
p5794
(lp5795
S'ralentissement'
p5796
asS'with'
p5797
(lp5798
S'de'
p5799
asS'handsome'
p5800
(lp5801
S'riche'
p5802
asS'pull'
p5803
(lp5804
S'faire'
p5805
asS'hire'
p5806
(lp5807
S'payer'
p5808
asS'darken'
p5809
(lp5810
S'obscurcir'
p5811
asS'circulation'
p5812
(lp5813
S'circulation'
p5814
asS'rage'
p5815
(lp5816
S'col\xc3\xa8re'
p5817
asS'potato'
p5818
(lp5819
S'patate'
p5820
asS'wet'
p5821
(lp5822
S'frais'
p5823
asS'dirty'
p5824
(lp5825
S'grossier'
p5826
asS'grass'
p5827
(lp5828
S'mouton'
p5829
asS'agree'
p5830
(lp5831
S'admettre'
p5832
asS'expect'
p5833
(lp5834
S'pr\xc3\xa9voir'
p5835
asS'detailed'
p5836
(lp5837
S'minutieux'
p5838
asS'money'
p5839
(lp5840
S'financier'
p5841
asS'ad'
p5842
(lp5843
S'annonce'
p5844
asS'subdue'
p5845
(lp5846
S'contenir'
p5847
asS'tectonic'
p5848
(lp5849
S'tectonique'
p5850
asS'taste'
p5851
(lp5852
S'conna\xc3\xaetre'
p5853
asS'certain'
p5854
(lp5855
S'certain'
p5856
asS'describe'
p5857
(lp5858
S'd\xc3\xa9crire'
p5859
asS'direction'
p5860
(lp5861
S'ordre'
p5862
asS'deep'
p5863
(lp5864
S'grand'
p5865
asS'fellow'
p5866
(lp5867
S'type'
p5868
asS'imagination'
p5869
(lp5870
S'imagination'
p5871
asS'examine'
p5872
(lp5873
S'observer'
p5874
asS'at'
p5875
(lp5876
S'en'
p5877
asS'file'
p5878
(lp5879
S'd\xc3\xa9poser'
p5880
asS'lifetime'
p5881
(lp5882
S'vie'
p5883
asS'flock'
p5884
(lp5885
S'troupeau'
p5886
asS'film'
p5887
(lp5888
S'couche'
p5889
asS'fill'
p5890
(lp5891
S'gonfler'
p5892
asS'hit'
p5893
(lp5894
S'atteindre'
p5895
asS'again'
p5896
(lp5897
S'encore'
p5898
asS'storage'
p5899
(lp5900
S'accumulation'
p5901
asS'slew'
p5902
(lp5903
S'virer'
p5904
asS'field'
p5905
(lp5906
S'partie'
p5907
asS'thermal'
p5908
(lp5909
S'thermique'
p5910
asS'cleanup'
p5911
(lp5912
S'profit'
p5913
asS'starkly'
p5914
(lp5915
S'violemment'
p5916
asS'you'
p5917
(lp5918
S'on'
p5919
asS'residence'
p5920
(lp5921
S'habitation'
p5922
asS'deviation'
p5923
(lp5924
S'd\xc3\xa9rive'
p5925
asS'polar'
p5926
(lp5927
S'polaire'
p5928
asS'separate'
p5929
(lp5930
S'autre'
p5931
asS'shelter'
p5932
(lp5933
S'prot\xc3\xa9ger'
p5934
asS'symbol'
p5935
(lp5936
S'symbole'
p5937
asS'narrative'
p5938
(lp5939
S'histoire'
p5940
asS'drift'
p5941
(lp5942
S'nuage'
p5943
asS'slant'
p5944
(lp5945
S'angle'
p5946
asS'seriousness'
p5947
(lp5948
S'importance'
p5949
asS'important'
p5950
(lp5951
S'important'
p5952
asS'peak'
p5953
(lp5954
S'piton'
p5955
asS'coverage'
p5956
(lp5957
S'couverture'
p5958
asS'pool'
p5959
(lp5960
S'zone'
p5961
asS'delineate'
p5962
(lp5963
S'pr\xc3\xa9senter'
p5964
asS'neighbour'
p5965
(lp5966
S'voisin'
p5967
asS'individual'
p5968
(lp5969
S'particulier'
p5970
asS'unload'
p5971
(lp5972
S'd\xc3\xa9verser'
p5973
asS'percentage'
p5974
(lp5975
S'proportion'
p5976
asS'curve'
p5977
(lp5978
S'courbe'
p5979
asS'observe'
p5980
(lp5981
S'observer'
p5982
asS'mass'
p5983
(lp5984
S'massif'
p5985
asS'overseas'
p5986
(lp5987
S'ext\xc3\xa9rieur'
p5988
asS'granitic'
p5989
(lp5990
S'granitique'
p5991
asS'represent'
p5992
(lp5993
S'pr\xc3\xa9senter'
p5994
asS'all'
p5995
(lp5996
S'tout'
p5997
asS'smoking'
p5998
(lp5999
S'fumant'
p6000
asS'consider'
p6001
(lp6002
S'compter'
p6003
asS'degas'
p6004
(lp6005
S'd\xc3\xa9gazer'
p6006
asS'lack'
p6007
(lp6008
S'manque'
p6009
asS'unrest'
p6010
(lp6011
S'agitation'
p6012
asS'debris'
p6013
(lp6014
S'd\xc3\xa9bris'
p6015
asS'subtle'
p6016
(lp6017
S'fin'
p6018
asS'zinc'
p6019
(lp6020
S'zinc'
p6021
asS'fairness'
p6022
(lp6023
S'blancheur'
p6024
asS'messy'
p6025
(lp6026
S'd\xc3\xa9licat'
p6027
asS'follow'
p6028
(lp6029
S'suivre'
p6030
asS'settlement'
p6031
(lp6032
S'village'
p6033
asS'lace'
p6034
(lp6035
S'arroser'
p6036
asS'carpet'
p6037
(lp6038
S'tapis'
p6039
asS'synthetic'
p6040
(lp6041
S'artificiel'
p6042
asS'dreadful'
p6043
(lp6044
S'terrible'
p6045
asS'glimpse'
p6046
(lp6047
S'apercevoir'
p6048
asS'red-hot'
p6049
(lp6050
S'br\xc3\xbblant'
p6051
asS'catastrophe'
p6052
(lp6053
S'catastrophe'
p6054
asS'scrutinize'
p6055
(lp6056
S'pointer'
p6057
asS'insulate'
p6058
(lp6059
S's\xc3\xa9parer'
p6060
asS'former'
p6061
(lp6062
S'ancien'
p6063
asS'matrix'
p6064
(lp6065
S'matrice'
p6066
asS'program'
p6067
(lp6068
S'\xc3\xa9mission'
p6069
asS'present'
p6070
(lp6071
S'produire'
p6072
asS'health'
p6073
(lp6074
S'sant\xc3\xa9'
p6075
asS'pilot'
p6076
(lp6077
S'diriger'
p6078
asS'presentation'
p6079
(lp6080
S'production'
p6081
asS'roadway'
p6082
(lp6083
S'tablier'
p6084
asS'sound'
p6085
(lp6086
S'son'
p6087
asS'resounding'
p6088
(lp6089
S'extraordinaire'
p6090
asS'relieve'
p6091
(lp6092
S'lib\xc3\xa9rer'
p6093
asS'parcel'
p6094
(lp6095
S'paquet'
p6096
asS'far'
p6097
(lp6098
S'autre'
p6099
asS'induce'
p6100
(lp6101
S'produire'
p6102
asS'me'
p6103
(lp6104
S'me'
p6105
asS'fan'
p6106
(lp6107
S'supporter'
p6108
asS'scour'
p6109
(lp6110
S'creuser'
p6111
asS'decide'
p6112
(lp6113
S'd\xc3\xa9terminer'
p6114
asS'bleach'
p6115
(lp6116
S'oxyg\xc3\xa9ner'
p6117
asS'laser'
p6118
(lp6119
S'laser'
p6120
asS'subterranean'
p6121
(lp6122
S'souterrain'
p6123
asS'difference'
p6124
(lp6125
S'diff\xc3\xa9rence'
p6126
asS'condition'
p6127
(lp6128
S'\xc3\xa9tat'
p6129
asS'trigger'
p6130
(lp6131
S'provoquer'
p6132
asS'extrusion'
p6133
(lp6134
S'extrusion'
p6135
asS'cable'
p6136
(lp6137
S't\xc3\xa9l\xc3\xa9gramme'
p6138
asS'celebrity'
p6139
(lp6140
S'c\xc3\xa9l\xc3\xa9brit\xc3\xa9'
p6141
asS'list'
p6142
(lp6143
S'd\xc3\xa9nombrer'
p6144
asS'mild'
p6145
(lp6146
S'faible'
p6147
asS'large'
p6148
(lp6149
S'grand'
p6150
asS'dinosaur'
p6151
(lp6152
S'dinosaure'
p6153
asS'sand'
p6154
(lp6155
S'sable'
p6156
asS'harry'
p6157
(lp6158
S'd\xc3\xa9vaster'
p6159
asS'small'
p6160
(lp6161
S'petit'
p6162
asS'mammal'
p6163
(lp6164
S'mammif\xc3\xa8re'
p6165
asS'economically'
p6166
(lp6167
S'\xc3\xa9conomiquement'
p6168
asS'programme'
p6169
(lp6170
S'\xc3\xa9mission'
p6171
asS'portable'
p6172
(lp6173
S'portable'
p6174
asS'ten'
p6175
(lp6176
S'dizaine'
p6177
asS'colossal'
p6178
(lp6179
S'colossal'
p6180
asS'skin'
p6181
(lp6182
S'cro\xc3\xbbte'
p6183
asS'soldier'
p6184
(lp6185
S'militaire'
p6186
asS'split'
p6187
(lp6188
S'fissure'
p6189
asS'past'
p6190
(lp6191
S'apr\xc3\xa8s'
p6192
asS'rate'
p6193
(lp6194
S'vitesse'
p6195
asS'overlie'
p6196
(lp6197
S'recouvrir'
p6198
asS'design'
p6199
(lp6200
S'\xc3\xa9tude'
p6201
asS'perspective'
p6202
(lp6203
S'optique'
p6204
asS'pass'
p6205
(lp6206
S'pas'
p6207
asS'further'
p6208
(lp6209
S'plus'
p6210
asS'hamper'
p6211
(lp6212
S'g\xc3\xaaner'
p6213
asS'belief'
p6214
(lp6215
S'croyance'
p6216
asS'will'
p6217
(lp6218
S'vouloir'
p6219
asS'dial'
p6220
(lp6221
S'faire'
p6222
asS'darkness'
p6223
(lp6224
S'noir'
p6225
asS'deeply'
p6226
(lp6227
S'profond'
p6228
asS'poisonous'
p6229
(lp6230
S'toxique'
p6231
asS'resume'
p6232
(lp6233
S'recommencer'
p6234
asS'crust'
p6235
(lp6236
S'd\xc3\xa9p\xc3\xb4t'
p6237
asS'anniversary'
p6238
(lp6239
S'anniversaire'
p6240
asS'thickness'
p6241
(lp6242
S'\xc3\xa9paisseur'
p6243
asS'crush'
p6244
(lp6245
S'd\xc3\xa9truire'
p6246
asS'public'
p6247
(lp6248
S'public'
p6249
asS'version'
p6250
(lp6251
S'mod\xc3\xa8le'
p6252
asS'intersect'
p6253
(lp6254
S'couper'
p6255
asS'nurse'
p6256
(lp6257
S'nourrir'
p6258
asS'everlasting'
p6259
(lp6260
S'perp\xc3\xa9tuel'
p6261
asS'racing'
p6262
(lp6263
S'course'
p6264
asS'method'
p6265
(lp6266
S'fa\xc3\xa7on'
p6267
asS'contrast'
p6268
(lp6269
S'opposer'
p6270
asS'movement'
p6271
(lp6272
S'mouvement'
p6273
asS'turmoil'
p6274
(lp6275
S'\xc3\xa9bullition'
p6276
asS'full'
p6277
(lp6278
S'large'
p6279
asS'reawaken'
p6280
(lp6281
S'r\xc3\xa9veiller'
p6282
asS'scoria'
p6283
(lp6284
S'scorie'
p6285
asS'loose'
p6286
(lp6287
S'liquide'
p6288
asS'component'
p6289
(lp6290
S'\xc3\xa9l\xc3\xa9ment'
p6291
asS'breccia'
p6292
(lp6293
S'br\xc3\xa8che'
p6294
asS'behaviour'
p6295
(lp6296
S'comportement'
p6297
asS'disastrous'
p6298
(lp6299
S'catastrophique'
p6300
asS'excess'
p6301
(lp6302
S'trop'
p6303
asS'standard'
p6304
(lp6305
S'type'
p6306
asS'legend'
p6307
(lp6308
S'l\xc3\xa9gende'
p6309
asS'search'
p6310
(lp6311
S'recherche'
p6312
asS'substance'
p6313
(lp6314
S'fond'
p6315
asS'ahead'
p6316
(lp6317
S'devant'
p6318
asS'extraordinary'
p6319
(lp6320
S'extraordinaire'
p6321
asS'exceptionally'
p6322
(lp6323
S'exceptionnellement'
p6324
asS'reason'
p6325
(lp6326
S'cause'
p6327
asS'experience'
p6328
(lp6329
S'conna\xc3\xaetre'
p6330
asS'miniature'
p6331
(lp6332
S'minuscule'
p6333
asS'amount'
p6334
(lp6335
S'partie'
p6336
asS'abnormally'
p6337
(lp6338
S'anormalement'
p6339
asS'stiffness'
p6340
(lp6341
S'difficult\xc3\xa9'
p6342
asS'pick'
p6343
(lp6344
S'choisir'
p6345
asS'action'
p6346
(lp6347
S'effet'
p6348
asS'corps'
p6349
(lp6350
S'corps'
p6351
asS'narrow'
p6352
(lp6353
S'petit'
p6354
asS'raze'
p6355
(lp6356
S'raser'
p6357
asS'authorize'
p6358
(lp6359
S'autoriser'
p6360
asS'technique'
p6361
(lp6362
S'technique'
p6363
asS'family'
p6364
(lp6365
S'maison'
p6366
asS'vie'
p6367
(lp6368
S'lutter'
p6369
asS'suddenly'
p6370
(lp6371
S'brutalement'
p6372
asS'transit'
p6373
(lp6374
S'passage'
p6375
asS'put'
p6376
(lp6377
S'faire'
p6378
asS'resident'
p6379
(lp6380
S'habitant'
p6381
asS'extinction'
p6382
(lp6383
S'disparition'
p6384
asS'establish'
p6385
(lp6386
S'former'
p6387
asS'teach'
p6388
(lp6389
S'apprendre'
p6390
asS'select'
p6391
(lp6392
S'composer'
p6393
asS'readily'
p6394
(lp6395
S'ais\xc3\xa9ment'
p6396
asS'pulverize'
p6397
(lp6398
S'pulv\xc3\xa9riser'
p6399
asS'conventional'
p6400
(lp6401
S'classique'
p6402
asS'eye'
p6403
(lp6404
S'piton'
p6405
asS'injure'
p6406
(lp6407
S'compromettre'
p6408
asS'distinct'
p6409
(lp6410
S'diff\xc3\xa9rent'
p6411
asS'faint'
p6412
(lp6413
S'petit'
p6414
asS'finally'
p6415
(lp6416
S'enfin'
p6417
asS'vote'
p6418
(lp6419
S'voix'
p6420
asS'almost'
p6421
(lp6422
S'presque'
p6423
asS'splash'
p6424
(lp6425
S'barboter'
p6426
asS'morn'
p6427
(lp6428
S'matin'
p6429
asS'raft'
p6430
(lp6431
S'ras'
p6432
asS'injury'
p6433
(lp6434
S'blessure'
p6435
asS'minor'
p6436
(lp6437
S'petit'
p6438
asS'more'
p6439
(lp6440
S'plus'
p6441
asS'flat'
p6442
(lp6443
S'plan'
p6444
asS'diamond'
p6445
(lp6446
S'terrain'
p6447
asS'door'
p6448
(lp6449
S'lourde'
p6450
asS'lush'
p6451
(lp6452
S'riche'
p6453
asS'company'
p6454
(lp6455
S'maison'
p6456
asS'emission'
p6457
(lp6458
S'\xc3\xa9mission'
p6459
asS'surprisingly'
p6460
(lp6461
S'\xc3\xa9tonnamment'
p6462
asS'unstable'
p6463
(lp6464
S'instable'
p6465
asS'controlling'
p6466
(lp6467
S'd\xc3\xa9terminant'
p6468
asS'stick'
p6469
(lp6470
S'rester'
p6471
asS'particular'
p6472
(lp6473
S'particulier'
p6474
asS'doom'
p6475
(lp6476
S'ruine'
p6477
asS'vigorous'
p6478
(lp6479
S'vert'
p6480
asS'weathering'
p6481
(lp6482
S'alt\xc3\xa9ration'
p6483
asS'town'
p6484
(lp6485
S'ville'
p6486
asS'none'
p6487
(lp6488
S'personne'
p6489
asS'include'
p6490
(lp6491
S'comprendre'
p6492
asS'apportion'
p6493
(lp6494
S'partager'
p6495
asS'hour'
p6496
(lp6497
S'heure'
p6498
asS'middle'
p6499
(lp6500
S'taille'
p6501
asS'recall'
p6502
(lp6503
S'retrouver'
p6504
asS'equation'
p6505
(lp6506
S'\xc3\xa9quation'
p6507
asS'plea'
p6508
(lp6509
S'd\xc3\xa9fense'
p6510
asS'remain'
p6511
(lp6512
S'rester'
p6513
asS'sudden'
p6514
(lp6515
S'brutal'
p6516
asS'nine'
p6517
(lp6518
S'neuf'
p6519
asS'learn'
p6520
(lp6521
S'\xc3\xa9tudier'
p6522
asS'abandon'
p6523
(lp6524
S'laisser'
p6525
asS'marble'
p6526
(lp6527
S'bille'
p6528
asS'history'
p6529
(lp6530
S'histoire'
p6531
asS'beautiful'
p6532
(lp6533
S'superbe'
p6534
asS'soft'
p6535
(lp6536
S'fin'
p6537
asS'compare'
p6538
(lp6539
S'comparer'
p6540
asS'prompt'
p6541
(lp6542
S'provoquer'
p6543
asS'division'
p6544
(lp6545
S'chambre'
p6546
asS'abandonment'
p6547
(lp6548
S'abandon'
p6549
asS'accept'
p6550
(lp6551
S'retenir'
p6552
asS'collision'
p6553
(lp6554
S'choc'
p6555
asS'fiercely'
p6556
(lp6557
S'violemment'
p6558
asS'attain'
p6559
(lp6560
S'atteindre'
p6561
asS'arise'
p6562
(lp6563
S'r\xc3\xa9sulter'
p6564
asS'pond'
p6565
(lp6566
S'mare'
p6567
asS'airplane'
p6568
(lp6569
S'avion'
p6570
asS'species'
p6571
(lp6572
S'esp\xc3\xa8ce'
p6573
asS'botanist'
p6574
(lp6575
S'botaniste'
p6576
asS'murderous'
p6577
(lp6578
S'meurtrier'
p6579
asS'hydrophone'
p6580
(lp6581
S'hydrophone'
p6582
asS'huge'
p6583
(lp6584
S'\xc3\xa9norme'
p6585
asS'interconnect'
p6586
(lp6587
S'communiquer'
p6588
asS'goal'
p6589
(lp6590
S'but'
p6591
asS'terribly'
p6592
(lp6593
S'extr\xc3\xaamement'
p6594
asS'rather'
p6595
(lp6596
S'bien'
p6597
asS'imminent'
p6598
(lp6599
S'proche'
p6600
asS'breaking'
p6601
(lp6602
S'fracture'
p6603
asS'utilize'
p6604
(lp6605
S'utiliser'
p6606
asS'unlucky'
p6607
(lp6608
S'mauvais'
p6609
asS'glowing'
p6610
(lp6611
S'ardent'
p6612
asS'occasionally'
p6613
(lp6614
S'parfois'
p6615
asS'party'
p6616
(lp6617
S'partie'
p6618
asS'reject'
p6619
(lp6620
S'rejeter'
p6621
asS'stir'
p6622
(lp6623
S'soulever'
p6624
asS'detonation'
p6625
(lp6626
S'explosion'
p6627
asS'creature'
p6628
(lp6629
S'\xc3\xaatre'
p6630
asS'gash'
p6631
(lp6632
S'd\xc3\xa9chirer'
p6633
asS'plant'
p6634
(lp6635
S'pied'
p6636
asS'countryside'
p6637
(lp6638
S'nature'
p6639
asS'suppose'
p6640
(lp6641
S'penser'
p6642
asS'advice'
p6643
(lp6644
S'avis'
p6645
asS'soda'
p6646
(lp6647
S'cristaux'
p6648
asS'mapping'
p6649
(lp6650
S'fonction'
p6651
asS'reflect'
p6652
(lp6653
S'retenir'
p6654
asS'volatilize'
p6655
(lp6656
S'volatiliser'
p6657
asS'plane'
p6658
(lp6659
S'niveau'
p6660
asS'adventure'
p6661
(lp6662
S'risquer'
p6663
asS'faculty'
p6664
(lp6665
S'aptitude'
p6666
asS'gasp'
p6667
(lp6668
S'souffler'
p6669
asS'horizontal'
p6670
(lp6671
S'horizontal'
p6672
asS'bloom'
p6673
(lp6674
S'fleur'
p6675
asS'castle'
p6676
(lp6677
S'tour'
p6678
asS'a'
p6679
(lp6680
S'du'
p6681
asS'short'
p6682
(lp6683
S'petit'
p6684
asS'chiefly'
p6685
(lp6686
S'surtout'
p6687
asS'coat'
p6688
(lp6689
S'couche'
p6690
asS'meticulous'
p6691
(lp6692
S'minutieux'
p6693
asS'documentation'
p6694
(lp6695
S'documentation'
p6696
asS'departure'
p6697
(lp6698
S'sortie'
p6699
asS'mislead'
p6700
(lp6701
S'abuser'
p6702
asS'coal'
p6703
(lp6704
S'charbon'
p6705
asS'shore'
p6706
(lp6707
S'c\xc3\xb4te'
p6708
asS'responsibility'
p6709
(lp6710
S'charge'
p6711
asS'fundamental'
p6712
(lp6713
S'essentiel'
p6714
asS'reshape'
p6715
(lp6716
S'remodeler'
p6717
asS'banks'
p6718
(lp6719
S'banque'
p6720
asS'pleasure'
p6721
(lp6722
S'aise'
p6723
asS'geographic'
p6724
(lp6725
S'g\xc3\xa9ographique'
p6726
asS'egg'
p6727
(lp6728
S'pousser'
p6729
asS'balloon'
p6730
(lp6731
S'bulle'
p6732
asS'rounded'
p6733
(lp6734
S'gros'
p6735
asS'help'
p6736
(lp6737
S'faire'
p6738
asS'reservoir'
p6739
(lp6740
S'r\xc3\xa9servoir'
p6741
asS'incessantly'
p6742
(lp6743
S'constamment'
p6744
asS'developed'
p6745
(lp6746
S'form\xc3\xa9'
p6747
asS'oblique'
p6748
(lp6749
S'oblique'
p6750
asS'institution'
p6751
(lp6752
S'ouverture'
p6753
asS'distortion'
p6754
(lp6755
S'd\xc3\xa9formation'
p6756
asS'radar'
p6757
(lp6758
S'radar'
p6759
asS'attitude'
p6760
(lp6761
S'position'
p6762
asS'paper'
p6763
(lp6764
S'effet'
p6765
asS'through'
p6766
(lp6767
S'entre'
p6768
asS'same'
p6769
(lp6770
S'm\xc3\xaame'
p6771
asS'committee'
p6772
(lp6773
S'bureau'
p6774
asS'existence'
p6775
(lp6776
S'vie'
p6777
asS'suffer'
p6778
(lp6779
S'conna\xc3\xaetre'
p6780
asS'its'
p6781
(lp6782
S'son'
p6783
asS'style'
p6784
(lp6785
S'appeler'
p6786
asS'rapidly'
p6787
(lp6788
S'rapidement'
p6789
asS'fissure'
p6790
(lp6791
S'fissure'
p6792
asS'sodium'
p6793
(lp6794
S'sodium'
p6795
asS'susceptible'
p6796
(lp6797
S'susceptible'
p6798
asS'peridot'
p6799
(lp6800
S'p\xc3\xa9ridot'
p6801
asS'lateral'
p6802
(lp6803
S'lat\xc3\xa9ral'
p6804
asS'actually'
p6805
(lp6806
S'actuellement'
p6807
asS'late'
p6808
(lp6809
S'dernier'
p6810
asS'harmless'
p6811
(lp6812
S'inoffensif'
p6813
asS'absence'
p6814
(lp6815
S'manque'
p6816
asS'microscopic'
p6817
(lp6818
S'minuscule'
p6819
asS'bypass'
p6820
(lp6821
S'\xc3\xa9viter'
p6822
asS'might'
p6823
(lp6824
S'force'
p6825
asS'alter'
p6826
(lp6827
S'transformer'
p6828
asS'northwest'
p6829
(lp6830
S'nord-ouest'
p6831
asS'colleague'
p6832
(lp6833
S'coll\xc3\xa8gue'
p6834
asS'evening'
p6835
(lp6836
S'soir\xc3\xa9e'
p6837
asS'return'
p6838
(lp6839
S'produire'
p6840
asS'calm'
p6841
(lp6842
S'paisible'
p6843
asS'severely'
p6844
(lp6845
S's\xc3\xa9rieusement'
p6846
asS'food'
p6847
(lp6848
S'cro\xc3\xbbte'
p6849
asS'propose'
p6850
(lp6851
S'porter'
p6852
asS'primary'
p6853
(lp6854
S'premier'
p6855
asS'underground'
p6856
(lp6857
S'souterrain'
p6858
asS'remarkably'
p6859
(lp6860
S'extr\xc3\xaamement'
p6861
asS'vomit'
p6862
(lp6863
S'rendre'
p6864
asS'rank'
p6865
(lp6866
S'mettre'
p6867
asS'compound'
p6868
(lp6869
S'm\xc3\xa9langer'
p6870
asS'accumulate'
p6871
(lp6872
S'accumuler'
p6873
asS'towering'
p6874
(lp6875
S'\xc3\xa9norme'
p6876
asS'feeder'
p6877
(lp6878
S'secondaire'
p6879
asS'association'
p6880
(lp6881
S'association'
p6882
asS'mystery'
p6883
(lp6884
S'myst\xc3\xa9rieux'
p6885
asS'easily'
p6886
(lp6887
S'bien'
p6888
asS'huddle'
p6889
(lp6890
S'amas'
p6891
asS'always'
p6892
(lp6893
S'toujours'
p6894
asS'ashen'
p6895
(lp6896
S'cendreux'
p6897
asS'evade'
p6898
(lp6899
S'\xc3\xa9viter'
p6900
asS'capability'
p6901
(lp6902
S'capacit\xc3\xa9'
p6903
asS'tear'
p6904
(lp6905
S'arracher'
p6906
asS'found'
p6907
(lp6908
S'constituer'
p6909
asS'shocking'
p6910
(lp6911
S'terrible'
p6912
asS'mercy'
p6913
(lp6914
S'gr\xc3\xa2ce'
p6915
asS'heavy'
p6916
(lp6917
S'grand'
p6918
asS'status'
p6919
(lp6920
S'position'
p6921
asS'harm'
p6922
(lp6923
S'endommager'
p6924
asS'everyone'
p6925
(lp6926
S'chacun'
p6927
asS'restless'
p6928
(lp6929
S'imp\xc3\xa9tueux'
p6930
asS'weight'
p6931
(lp6932
S'poids'
p6933
asS'needless'
p6934
(lp6935
S'gratuit'
p6936
asS'generation'
p6937
(lp6938
S'production'
p6939
asS'house'
p6940
(lp6941
S'maison'
p6942
asS'energy'
p6943
(lp6944
S'\xc3\xa9nergie'
p6945
asS'hard'
p6946
(lp6947
S'grand'
p6948
asS'reduce'
p6949
(lp6950
S'r\xc3\xa9duire'
p6951
asS'idea'
p6952
(lp6953
S'plan'
p6954
asS'brother'
p6955
(lp6956
S'fr\xc3\xa8re'
p6957
asS'sober'
p6958
(lp6959
S'grave'
p6960
asS'oil'
p6961
(lp6962
S'p\xc3\xa9trole'
p6963
asS'phreatic'
p6964
(lp6965
S'phr\xc3\xa9atique'
p6966
asS'connect'
p6967
(lp6968
S'associer'
p6969
asS'undertake'
p6970
(lp6971
S'assurer'
p6972
asS'measurement'
p6973
(lp6974
S'mesure'
p6975
asS'operation'
p6976
(lp6977
S'effet'
p6978
asS'beyond'
p6979
(lp6980
S'au-del\xc3\xa0'
p6981
asS'event'
p6982
(lp6983
S'cas'
p6984
asS'really'
p6985
(lp6986
S'bien'
p6987
asS'try'
p6988
(lp6989
S'essai'
p6990
asS'flower'
p6991
(lp6992
S'fleur'
p6993
asS'telltale'
p6994
(lp6995
S't\xc3\xa9moin'
p6996
asS'uneven'
p6997
(lp6998
S'irr\xc3\xa9gulier'
p6999
asS'since'
p7000
(lp7001
S'comme'
p7002
asS'testify'
p7003
(lp7004
S'd\xc3\xa9poser'
p7005
asS'publish'
p7006
(lp7007
S'sortir'
p7008
asS'research'
p7009
(lp7010
S'recherche'
p7011
asS'fountain'
p7012
(lp7013
S'fontaine'
p7014
asS'hill'
p7015
(lp7016
S'pente'
p7017
asS'paradise'
p7018
(lp7019
S'paradis'
p7020
asS'cyclone'
p7021
(lp7022
S'cyclone'
p7023
asS'issue'
p7024
(lp7025
S'faire'
p7026
asS'outrun'
p7027
(lp7028
S'd\xc3\xa9passer'
p7029
asS'highway'
p7030
(lp7031
S'autoroute'
p7032
asS'meteoric'
p7033
(lp7034
S'm\xc3\xa9t\xc3\xa9orologique'
p7035
asS'moist'
p7036
(lp7037
S'humide'
p7038
asS'foam'
p7039
(lp7040
S'mousse'
p7041
asS'strain'
p7042
(lp7043
S'pression'
p7044
asS'bass'
p7045
(lp7046
S'bas'
p7047
asS'dirt'
p7048
(lp7049
S'terre'
p7050
asS'team'
p7051
(lp7052
S'\xc3\xa9quipe'
p7053
asS'story'
p7054
(lp7055
S'histoire'
p7056
asS'lesser'
p7057
(lp7058
S'petit'
p7059
asS'difficulty'
p7060
(lp7061
S'peine'
p7062
asS'qualify'
p7063
(lp7064
S'qualifier'
p7065
asS'base'
p7066
(lp7067
S'bas'
p7068
asS'coastline'
p7069
(lp7070
S'c\xc3\xb4te'
p7071
asS'imagine'
p7072
(lp7073
S'voir'
p7074
asS'ask'
p7075
(lp7076
S'poser'
p7077
asS'attendant'
p7078
(lp7079
S'suivant'
p7080
asS'ash'
p7081
(lp7082
S'cendre'
p7083
asS'beginning'
p7084
(lp7085
S'd\xc3\xa9but'
p7086
asS'generate'
p7087
(lp7088
S'faire'
p7089
asS'lag'
p7090
(lp7091
S'habiller'
p7092
asS'temperature'
p7093
(lp7094
S'temp\xc3\xa9rature'
p7095
asS'blister'
p7096
(lp7097
S'bulle'
p7098
asS'definition'
p7099
(lp7100
S'd\xc3\xa9finition'
p7101
asS'thread'
p7102
(lp7103
S'pas'
p7104
asS'launch'
p7105
(lp7106
S'd\xc3\xa9clencher'
p7107
asS'stratify'
p7108
(lp7109
S'stratifier'
p7110
asS'perceptible'
p7111
(lp7112
S'perceptible'
p7113
asS'terrible'
p7114
(lp7115
S'terrible'
p7116
asS'round'
p7117
(lp7118
S'partie'
p7119
asS'caption'
p7120
(lp7121
S'l\xc3\xa9gende'
p7122
asS'uncle'
p7123
(lp7124
S'oncle'
p7125
asS'serviceman'
p7126
(lp7127
S'militaire'
p7128
asS'threat'
p7129
(lp7130
S'menace'
p7131
asS'twenty'
p7132
(lp7133
S'vingt'
p7134
asS'consequence'
p7135
(lp7136
S'cons\xc3\xa9quence'
p7137
asS'heartbeat'
p7138
(lp7139
S'pouls'
p7140
asS'contingency'
p7141
(lp7142
S'\xc3\xa9ventualit\xc3\xa9'
p7143
asS'trickle'
p7144
(lp7145
S'filer'
p7146
asS'clump'
p7147
(lp7148
S'massif'
p7149
asS'assign'
p7150
(lp7151
S'donner'
p7152
asS'feed'
p7153
(lp7154
S'alimentation'
p7155
asS'copper'
p7156
(lp7157
S'cuivre'
p7158
asS'major'
p7159
(lp7160
S'majeur'
p7161
asS'limestone'
p7162
(lp7163
S'calcaire'
p7164
asS'probability'
p7165
(lp7166
S'probabilit\xc3\xa9'
p7167
asS'upper'
p7168
(lp7169
S'dernier'
p7170
asS'feel'
p7171
(lp7172
S'\xc3\xaatre'
p7173
asS'relate'
p7174
(lp7175
S'lier'
p7176
asS'number'
p7177
(lp7178
S'quantit\xc3\xa9'
p7179
asS'antiquity'
p7180
(lp7181
S'antiquit\xc3\xa9'
p7182
asS'well-known'
p7183
(lp7184
S'c\xc3\xa9l\xc3\xa8bre'
p7185
asS'elder'
p7186
(lp7187
S'ancien'
p7188
asS'sailor'
p7189
(lp7190
S'marin'
p7191
asS'plummet'
p7192
(lp7193
S'effondrer'
p7194
asS'notify'
p7195
(lp7196
S'd\xc3\xa9clarer'
p7197
asS'mist'
p7198
(lp7199
S'nuage'
p7200
asS'miss'
p7201
(lp7202
S'perdre'
p7203
asS'occurrence'
p7204
(lp7205
S'cas'
p7206
asS'differ'
p7207
(lp7208
S'diff\xc3\xa9rer'
p7209
asS'guest'
p7210
(lp7211
S'h\xc3\xb4te'
p7212
asS'jet'
p7213
(lp7214
S'jaillir'
p7215
asS'swarm'
p7216
(lp7217
S'nu\xc3\xa9e'
p7218
asS'blossom'
p7219
(lp7220
S'fleur'
p7221
asS'leading'
p7222
(lp7223
S'grand'
p7224
asS'moderately'
p7225
(lp7226
S'relativement'
p7227
asS'revive'
p7228
(lp7229
S'r\xc3\xa9veiller'
p7230
asS'construct'
p7231
(lp7232
S'composer'
p7233
asS'paint'
p7234
(lp7235
S'produire'
p7236
asS'assumption'
p7237
(lp7238
S'hypoth\xc3\xa8se'
p7239
asS'warming'
p7240
(lp7241
S'r\xc3\xa9chauffement'
p7242
asS'saint'
p7243
(lp7244
S'saint'
p7245
asS'ton'
p7246
(lp7247
S'tonne'
p7248
asS'majority'
p7249
(lp7250
S'majorit\xc3\xa9'
p7251
asS'hundred'
p7252
(lp7253
S'centaine'
p7254
asS'store'
p7255
(lp7256
S'd\xc3\xa9p\xc3\xb4t'
p7257
asS'conduit'
p7258
(lp7259
S'conduit'
p7260
asS'watcher'
p7261
(lp7262
S'observateur'
p7263
asS'statement'
p7264
(lp7265
S'dire'
p7266
asS'relationship'
p7267
(lp7268
S'rapport'
p7269
asS'pump'
p7270
(lp7271
S'pompe'
p7272
asS'needle'
p7273
(lp7274
S'aiguille'
p7275
asS'park'
p7276
(lp7277
S'laisser'
p7278
asS'immediate'
p7279
(lp7280
S'prochain'
p7281
asS'measurable'
p7282
(lp7283
S'mesurable'
p7284
asS'basal'
p7285
(lp7286
S'fondamental'
p7287
asS'appreciation'
p7288
(lp7289
S'\xc3\xa9valuation'
p7290
asS'correspondent'
p7291
(lp7292
S'correspondant'
p7293
asS'typhoon'
p7294
(lp7295
S'typhon'
p7296
asS'differentiate'
p7297
(lp7298
S'distinguer'
p7299
asS'weld'
p7300
(lp7301
S'souder'
p7302
asS'believe'
p7303
(lp7304
S'que'
p7305
asS'endlessly'
p7306
(lp7307
S'continuellement'
p7308
asS'andesite'
p7309
(lp7310
S'and\xc3\xa9site'
p7311
asS'oscillate'
p7312
(lp7313
S'varier'
p7314
asS'scoriaceous'
p7315
(lp7316
S'scoriac\xc3\xa9'
p7317
asS'kind'
p7318
(lp7319
S'type'
p7320
asS'b'
p7321
(lp7322
S'si'
p7323
asS'double'
p7324
(lp7325
S'contre'
p7326
asS'anticipate'
p7327
(lp7328
S'pr\xc3\xa9voir'
p7329
asS'largely'
p7330
(lp7331
S'surtout'
p7332
asS'grey'
p7333
(lp7334
S'gris'
p7335
asS'sulphurous'
p7336
(lp7337
S'sulfureux'
p7338
asS'recording'
p7339
(lp7340
S'enregistrement'
p7341
asS'stall'
p7342
(lp7343
S'place'
p7344
asS'stalk'
p7345
(lp7346
S'pied'
p7347
asS'reclaim'
p7348
(lp7349
S'reprendre'
p7350
asS'sister'
p7351
(lp7352
S'fr\xc3\xa8re'
p7353
asS'toward'
p7354
(lp7355
S'vers'
p7356
asS'declare'
p7357
(lp7358
S'annoncer'
p7359
asS'risky'
p7360
(lp7361
S'dangereux'
p7362
asS'amass'
p7363
(lp7364
S'accumuler'
p7365
asS'silence'
p7366
(lp7367
S'\xc3\xa9touffer'
p7368
asS'exert'
p7369
(lp7370
S'exercer'
p7371
asS'footnote'
p7372
(lp7373
S'r\xc3\xa9f\xc3\xa9rence'
p7374
asS'plead'
p7375
(lp7376
S'invoquer'
p7377
asS'beforehand'
p7378
(lp7379
S'avant'
p7380
asS'substantial'
p7381
(lp7382
S'grand'
p7383
asS'room'
p7384
(lp7385
S'place'
p7386
asS'alike'
p7387
(lp7388
S'\xc3\xa9gal'
p7389
asS'concentration'
p7390
(lp7391
S'concentration'
p7392
asS'aged'
p7393
(lp7394
S'vieux'
p7395
asS'vulnerable'
p7396
(lp7397
S'vuln\xc3\xa9rable'
p7398
asS'lid'
p7399
(lp7400
S'casque'
p7401
asS'lie'
p7402
(lp7403
S'\xc3\xaatre'
p7404
asS'speaking'
p7405
(lp7406
S'parlant'
p7407
asS'zero'
p7408
(lp7409
S'bulle'
p7410
asS'trip'
p7411
(lp7412
S'd\xc3\xa9clencher'
p7413
asS'flaming'
p7414
(lp7415
S'ardent'
p7416
asS'onset'
p7417
(lp7418
S'd\xc3\xa9but'
p7419
asS'also'
p7420
(lp7421
S'aussi'
p7422
asS'internal'
p7423
(lp7424
S'int\xc3\xa9rieur'
p7425
asS'lip'
p7426
(lp7427
S'bord'
p7428
asS'build'
p7429
(lp7430
S'faire'
p7431
asS'obviously'
p7432
(lp7433
S'\xc3\xa9videmment'
p7434
asS'finding'
p7435
(lp7436
S'invention'
p7437
asS'commentary'
p7438
(lp7439
S'observation'
p7440
asS'brace'
p7441
(lp7442
S'appareil'
p7443
asS'villager'
p7444
(lp7445
S'villageois'
p7446
asS'transparent'
p7447
(lp7448
S'\xc3\xa9vident'
p7449
asS'province'
p7450
(lp7451
S'domaine'
p7452
asS'play'
p7453
(lp7454
S'faire'
p7455
asS'towards'
p7456
(lp7457
S'sur'
p7458
asS'hurtle'
p7459
(lp7460
S'lancer'
p7461
asS'populate'
p7462
(lp7463
S'peupler'
p7464
asS'reckon'
p7465
(lp7466
S'estimer'
p7467
asS'vibration'
p7468
(lp7469
S'vibration'
p7470
asS'victim'
p7471
(lp7472
S'victime'
p7473
asS'eruption'
p7474
(lp7475
S'\xc3\xa9ruption'
p7476
asS'chart'
p7477
(lp7478
S'carte'
p7479
asS'react'
p7480
(lp7481
S'r\xc3\xa9agir'
p7482
asS'cigarette'
p7483
(lp7484
S's\xc3\xa8che'
p7485
asS'plan'
p7486
(lp7487
S'projeter'
p7488
asS'enduring'
p7489
(lp7490
S'persistant'
p7491
asS'nothing'
p7492
(lp7493
S'rien'
p7494
asS'extremely'
p7495
(lp7496
S'fort'
p7497
asS'mineral'
p7498
(lp7499
S'min\xc3\xa9ral'
p7500
asS'chronicle'
p7501
(lp7502
S'chronique'
p7503
asS'seize'
p7504
(lp7505
S'arr\xc3\xaater'
p7506
asS'mobile'
p7507
(lp7508
S'mobile'
p7509
asS'smoulder'
p7510
(lp7511
S'couver'
p7512
asS'clear'
p7513
(lp7514
S'lib\xc3\xa9rer'
p7515
asS'saturate'
p7516
(lp7517
S'saturer'
p7518
asS'cover'
p7519
(lp7520
S'recouvrir'
p7521
asS'unreasonable'
p7522
(lp7523
S'excessif'
p7524
asS'forerunner'
p7525
(lp7526
S'pr\xc3\xa9curseur'
p7527
asS'optical'
p7528
(lp7529
S'optique'
p7530
asS'mammoth'
p7531
(lp7532
S'\xc3\xa9norme'
p7533
asS'clean'
p7534
(lp7535
S'laver'
p7536
asS'barren'
p7537
(lp7538
S'ingrat'
p7539
asS'velocity'
p7540
(lp7541
S'vitesse'
p7542
asS'barrel'
p7543
(lp7544
S'tonne'
p7545
asS'blend'
p7546
(lp7547
S'fusion'
p7548
asS'technical'
p7549
(lp7550
S'technique'
p7551
asS'science'
p7552
(lp7553
S'savoir'
p7554
asS'think'
p7555
(lp7556
S'que'
p7557
asS'particularly'
p7558
(lp7559
S'particuli\xc3\xa8rement'
p7560
asS'phenomenon'
p7561
(lp7562
S'ph\xc3\xa9nom\xc3\xa8ne'
p7563
asS'gold'
p7564
(lp7565
S'or'
p7566
asS'swelling'
p7567
(lp7568
S'gonflement'
p7569
asS'scattered'
p7570
(lp7571
S'intermittent'
p7572
asS'hillside'
p7573
(lp7574
S'c\xc3\xb4te'
p7575
asS'relation'
p7576
(lp7577
S'rapport'
p7578
asS'freight'
p7579
(lp7580
S'transporter'
p7581
asS'carefully'
p7582
(lp7583
S'prudemment'
p7584
asS'gully'
p7585
(lp7586
S'couloir'
p7587
asS'chock'
p7588
(lp7589
S'chantier'
p7590
asS'fine'
p7591
(lp7592
S'bien'
p7593
asS'find'
p7594
(lp7595
S'trouver'
p7596
asS'emulsion'
p7597
(lp7598
S'\xc3\xa9mulsion'
p7599
asS'impact'
p7600
(lp7601
S'effet'
p7602
asS'cell'
p7603
(lp7604
S'\xc3\xa9l\xc3\xa9ment'
p7605
asS'giant'
p7606
(lp7607
S'gigantesque'
p7608
asS'sluggishly'
p7609
(lp7610
S'lentement'
p7611
asS'northern'
p7612
(lp7613
S'nord'
p7614
asS'geophysics'
p7615
(lp7616
S'g\xc3\xa9ophysique'
p7617
asS'ruin'
p7618
(lp7619
S'couler'
p7620
asS'hope'
p7621
(lp7622
S'esp\xc3\xa9rer'
p7623
asS'vision'
p7624
(lp7625
S'vue'
p7626
asS'grace'
p7627
(lp7628
S'gr\xc3\xa2ce'
p7629
asS'cassette'
p7630
(lp7631
S'recharge'
p7632
asS'betray'
p7633
(lp7634
S'r\xc3\xa9v\xc3\xa9ler'
p7635
asS'pretty'
p7636
(lp7637
S'assez'
p7638
asS'factor'
p7639
(lp7640
S'\xc3\xa9l\xc3\xa9ment'
p7641
asS'circle'
p7642
(lp7643
S'monde'
p7644
asS'boulder'
p7645
(lp7646
S'rocher'
p7647
asS'his'
p7648
(lp7649
S'son'
p7650
asS'dominant'
p7651
(lp7652
S'principal'
p7653
asS'therefore'
p7654
(lp7655
S'aussi'
p7656
asS'meanwhile'
p7657
(lp7658
S'cependant'
p7659
asS'liquid'
p7660
(lp7661
S'liquide'
p7662
asS'express'
p7663
(lp7664
S'\xc3\xa9mettre'
p7665
asS'sunny'
p7666
(lp7667
S'rayonnant'
p7668
asS'obtain'
p7669
(lp7670
S'sortir'
p7671
asS'famous'
p7672
(lp7673
S'c\xc3\xa9l\xc3\xa8bre'
p7674
asS'observatory'
p7675
(lp7676
S'observatoire'
p7677
asS'rest'
p7678
(lp7679
S'rester'
p7680
asS'closely'
p7681
(lp7682
S'beaucoup'
p7683
asS'during'
p7684
(lp7685
S'pendant'
p7686
asS'intensify'
p7687
(lp7688
S'augmenter'
p7689
asS'him'
p7690
(lp7691
S'le'
p7692
asS'chimney'
p7693
(lp7694
S'chemin\xc3\xa9e'
p7695
asS'molten'
p7696
(lp7697
S'fondu'
p7698
asS'enemy'
p7699
(lp7700
S'ennemi'
p7701
asS'progressive'
p7702
(lp7703
S'moderne'
p7704
asS'stratum'
p7705
(lp7706
S'couche'
p7707
asS'cry'
p7708
(lp7709
S'cri'
p7710
asS'alteration'
p7711
(lp7712
S'changement'
p7713
asS'remove'
p7714
(lp7715
S'd\xc3\xa9poser'
p7716
asS'vulcanologist'
p7717
(lp7718
S'volcanologue'
p7719
asS'investigate'
p7720
(lp7721
S'\xc3\xa9tudier'
p7722
asS'common'
p7723
(lp7724
S'commun'
p7725
asS'activity'
p7726
(lp7727
S'activit\xc3\xa9'
p7728
asS'cease'
p7729
(lp7730
S'arr\xc3\xaater'
p7731
asS'archaeologist'
p7732
(lp7733
S'arch\xc3\xa9ologue'
p7734
asS'river'
p7735
(lp7736
S'rivi\xc3\xa8re'
p7737
asS'relentless'
p7738
(lp7739
S'incessant'
p7740
asS'scenery'
p7741
(lp7742
S'paysage'
p7743
asS'set'
p7744
(lp7745
S'monde'
p7746
asS'dump'
p7747
(lp7748
S'd\xc3\xa9p\xc3\xb4t'
p7749
asS'excavation'
p7750
(lp7751
S'creusement'
p7752
asS'vine'
p7753
(lp7754
S'vigne'
p7755
asS'plausible'
p7756
(lp7757
S'vraisemblable'
p7758
asS'culture'
p7759
(lp7760
S'culture'
p7761
asS'see'
p7762
(lp7763
S'conna\xc3\xaetre'
p7764
asS'arc'
p7765
(lp7766
S'arc'
p7767
asS'migration'
p7768
(lp7769
S'migration'
p7770
asS'sea'
p7771
(lp7772
S'mer'
p7773
asS'close'
p7774
(lp7775
S'pr\xc3\xa8s'
p7776
asS'petrify'
p7777
(lp7778
S'p\xc3\xa9trifier'
p7779
asS'arm'
p7780
(lp7781
S'manche'
p7782
asS'project'
p7783
(lp7784
S'projeter'
p7785
asS'practice'
p7786
(lp7787
S'\xc3\xa9tude'
p7788
asS'visualize'
p7789
(lp7790
S'pr\xc3\xa9voir'
p7791
asS'probable'
p7792
(lp7793
S'probable'
p7794
asS'expert'
p7795
(lp7796
S'fin'
p7797
asS'distinctive'
p7798
(lp7799
S'particulier'
p7800
asS'currently'
p7801
(lp7802
S'actuellement'
p7803
asS'please'
p7804
(lp7805
S'contenter'
p7806
asS'topmost'
p7807
(lp7808
S'sup\xc3\xa9rieur'
p7809
asS'myriad'
p7810
(lp7811
S'innombrable'
p7812
asS'acidic'
p7813
(lp7814
S'acide'
p7815
asS'champagne'
p7816
(lp7817
S'champagne'
p7818
asS'numerous'
p7819
(lp7820
S'nombreux'
p7821
asS'thrive'
p7822
(lp7823
S'profiter'
p7824
asS'available'
p7825
(lp7826
S'libre'
p7827
asS'oxidize'
p7828
(lp7829
S'oxyder'
p7830
asS'recently'
p7831
(lp7832
S'r\xc3\xa9cemment'
p7833
asS'hardship'
p7834
(lp7835
S'malheur'
p7836
asS'initially'
p7837
(lp7838
S'initialement'
p7839
asS'attention'
p7840
(lp7841
S'attention'
p7842
asS'punch'
p7843
(lp7844
S'coup'
p7845
asS'aircraft'
p7846
(lp7847
S'avion'
p7848
asS'death'
p7849
(lp7850
S'mort'
p7851
asS'distinguish'
p7852
(lp7853
S'caract\xc3\xa9riser'
p7854
asS'abruptly'
p7855
(lp7856
S'brusquement'
p7857
asS'c'
p7858
(lp7859
S'do'
p7860
asS'thickly'
p7861
(lp7862
S'dru'
p7863
asS'improved'
p7864
(lp7865
S'meilleur'
p7866
asS'reverse'
p7867
(lp7868
S'contraire'
p7869
asS'undergo'
p7870
(lp7871
S'suivre'
p7872
asS'foreign'
p7873
(lp7874
S'ext\xc3\xa9rieur'
p7875
asS'sensitive'
p7876
(lp7877
S'susceptible'
p7878
asS'connection'
p7879
(lp7880
S'rapport'
p7881
asS'intercept'
p7882
(lp7883
S'surprendre'
p7884
asS'fraternity'
p7885
(lp7886
S'communaut\xc3\xa9'
p7887
asS'buzz'
p7888
(lp7889
S'appeler'
p7890
asS'geochemical'
p7891
(lp7892
S'g\xc3\xa9ochimique'
p7893
asS'whole'
p7894
(lp7895
S'tout'
p7896
asS'experimental'
p7897
(lp7898
S'exp\xc3\xa9rimental'
p7899
asS'load'
p7900
(lp7901
S'pression'
p7902
asS'volcanic'
p7903
(lp7904
S'volcanique'
p7905
asS'consume'
p7906
(lp7907
S'br\xc3\xbbler'
p7908
asS'study'
p7909
(lp7910
S'observer'
p7911
asS'point'
p7912
(lp7913
S'point'
p7914
asS'dwindle'
p7915
(lp7916
S'tomber'
p7917
asS'loan'
p7918
(lp7919
S'pr\xc3\xaat'
p7920
asS'smother'
p7921
(lp7922
S'recouvrir'
p7923
asS'community'
p7924
(lp7925
S'colonie'
p7926
asS'hollow'
p7927
(lp7928
S'd\xc3\xa9pression'
p7929
asS'decipher'
p7930
(lp7931
S'd\xc3\xa9crypter'
p7932
asS'simply'
p7933
(lp7934
S'simplement'
p7935
asS'frosty'
p7936
(lp7937
S'froid'
p7938
asS'shutdown'
p7939
(lp7940
S'fermeture'
p7941
asS'contemporaneous'
p7942
(lp7943
S'contemporain'
p7944
asS'turbulent'
p7945
(lp7946
S'turbulent'
p7947
asS'throughout'
p7948
(lp7949
S'pendant'
p7950
asS'acrid'
p7951
(lp7952
S'\xc3\xa2cre'
p7953
asS'belt'
p7954
(lp7955
S'r\xc3\xa9gion'
p7956
asS'decline'
p7957
(lp7958
S'rejeter'
p7959
asS'java'
p7960
(lp7961
S'caf\xc3\xa9'
p7962
asS'mention'
p7963
(lp7964
S'citer'
p7965
asS'meteorite'
p7966
(lp7967
S'm\xc3\xa9t\xc3\xa9orite'
p7968
asS'stamp'
p7969
(lp7970
S'marquer'
p7971
asS'create'
p7972
(lp7973
S'faire'
p7974
asS'overlook'
p7975
(lp7976
S'surveiller'
p7977
asS'political'
p7978
(lp7979
S'politique'
p7980
asS'pyroxene'
p7981
(lp7982
S'pyrox\xc3\xa8ne'
p7983
asS'teacher'
p7984
(lp7985
S'professeur'
p7986
asS'rattle'
p7987
(lp7988
S'trembler'
p7989
asS'reduction'
p7990
(lp7991
S'baisse'
p7992
asS'coarse'
p7993
(lp7994
S'gros'
p7995
asS'ocean'
p7996
(lp7997
S'oc\xc3\xa9anique'
p7998
asS'pile'
p7999
(lp8000
S'\xc3\xa9difice'
p8001
asS'intrusive'
p8002
(lp8003
S'g\xc3\xaanant'
p8004
asS'territory'
p8005
(lp8006
S'terrain'
p8007
asS'meeting'
p8008
(lp8009
S'r\xc3\xa9union'
p8010
asS'empty'
p8011
(lp8012
S'lib\xc3\xa9rer'
p8013
asS'flight'
p8014
(lp8015
S'trajectoire'
p8016
asS'facies'
p8017
(lp8018
S'faci\xc3\xa8s'
p8019
asS'fire'
p8020
(lp8021
S'feu'
p8022
asS'citizen'
p8023
(lp8024
S'habitant'
p8025
asS'gas'
p8026
(lp8027
S'gaz'
p8028
asS'great'
p8029
(lp8030
S'grand'
p8031
asS'new'
p8032
(lp8033
S'autre'
p8034
asS'fund'
p8035
(lp8036
S'fond'
p8037
asS'whatever'
p8038
(lp8039
S'quel'
p8040
asS'awake'
p8041
(lp8042
S'r\xc3\xa9veiller'
p8043
asS'representative'
p8044
(lp8045
S'repr\xc3\xa9sentatif'
p8046
asS'systematic'
p8047
(lp8048
S'syst\xc3\xa9matique'
p8049
asS'demand'
p8050
(lp8051
S'appeler'
p8052
asS'heighten'
p8053
(lp8054
S'remonter'
p8055
asS'pierce'
p8056
(lp8057
S'percer'
p8058
asS'loom'
p8059
(lp8060
S'menacer'
p8061
asS'politician'
p8062
(lp8063
S'politique'
p8064
asS'look'
p8065
(lp8066
S'faire'
p8067
asS'solid'
p8068
(lp8069
S'solide'
p8070
asS'warrant'
p8071
(lp8072
S'bon'
p8073
asS'reliable'
p8074
(lp8075
S'solide'
p8076
asS'bill'
p8077
(lp8078
S'effet'
p8079
asS'batch'
p8080
(lp8081
S'groupe'
p8082
asS'governor'
p8083
(lp8084
S'directeur'
p8085
asS'corrode'
p8086
(lp8087
S'br\xc3\xbbler'
p8088
asS'rope'
p8089
(lp8090
S'bout'
p8091
asS'dusty'
p8092
(lp8093
S'poussi\xc3\xa9reux'
p8094
asS'while'
p8095
(lp8096
S'si'
p8097
asS'barricade'
p8098
(lp8099
S'barrer'
p8100
asS'match'
p8101
(lp8102
S'partie'
p8103
asS'behavior'
p8104
(lp8105
S'comportement'
p8106
asS'error'
p8107
(lp8108
S'erreur'
p8109
asS'endanger'
p8110
(lp8111
S'exposer'
p8112
asS'fleet'
p8113
(lp8114
S'rapide'
p8115
asS'loot'
p8116
(lp8117
S'argent'
p8118
asS'guide'
p8119
(lp8120
S'diriger'
p8121
asS'loop'
p8122
(lp8123
S'\xc5\x93il'
p8124
asS'engulf'
p8125
(lp8126
S'engloutir'
p8127
asS'real'
p8128
(lp8129
S'naturel'
p8130
asS'pound'
p8131
(lp8132
S'livre'
p8133
asS'costly'
p8134
(lp8135
S'riche'
p8136
asS'century'
p8137
(lp8138
S'si\xc3\xa8cle'
p8139
asS'violently'
p8140
(lp8141
S'violemment'
p8142
asS'rip'
p8143
(lp8144
S'd\xc3\xa9chirer'
p8145
asS'rooftop'
p8146
(lp8147
S'toit'
p8148
asS'awakening'
p8149
(lp8150
S'r\xc3\xa9veil'
p8151
asS'itself'
p8152
(lp8153
S'se'
p8154
asS'ready'
p8155
(lp8156
S'pr\xc3\xaat'
p8157
asS'vanish'
p8158
(lp8159
S'fondre'
p8160
asS'rib'
p8161
(lp8162
S'c\xc3\xb4te'
p8163
asS'cumbersome'
p8164
(lp8165
S'lourd'
p8166
asS'cavernous'
p8167
(lp8168
S'\xc3\xa9norme'
p8169
asS'expulsion'
p8170
(lp8171
S'd\xc3\xa9gagement'
p8172
asS'lengthy'
p8173
(lp8174
S'interminable'
p8175
asS'unaffected'
p8176
(lp8177
S'nature'
p8178
asS'myth'
p8179
(lp8180
S'mythe'
p8181
asS'grant'
p8182
(lp8183
S'donner'
p8184
asS'molding'
p8185
(lp8186
S'moulage'
p8187
asS'shorten'
p8188
(lp8189
S'r\xc3\xa9duire'
p8190
asS'elevated'
p8191
(lp8192
S'a\xc3\xa9rien'
p8193
asS'benign'
p8194
(lp8195
S'doux'
p8196
asS'conterminous'
p8197
(lp8198
S'adjacent'
p8199
asS'virtually'
p8200
(lp8201
S'presque'
p8202
asS'corridor'
p8203
(lp8204
S'couloir'
p8205
asS'grand'
p8206
(lp8207
S'grand'
p8208
asS'ray'
p8209
(lp8210
S'rayon'
p8211
asS'composition'
p8212
(lp8213
S'composition'
p8214
asS'higher'
p8215
(lp8216
S'sup\xc3\xa9rieur'
p8217
asS'development'
p8218
(lp8219
S'formation'
p8220
asS'sell'
p8221
(lp8222
S'avoir'
p8223
asS'temporary'
p8224
(lp8225
S'provisoire'
p8226
asS'tower'
p8227
(lp8228
S'culminer'
p8229
asS'mountain'
p8230
(lp8231
S'mont'
p8232
asS'appreciably'
p8233
(lp8234
S'sensiblement'
p8235
asS'defeat'
p8236
(lp8237
S'rejeter'
p8238
asS'yesterday'
p8239
(lp8240
S'pass\xc3\xa9'
p8241
asS'kill'
p8242
(lp8243
S'couler'
p8244
asS'alert'
p8245
(lp8246
S'alerte'
p8247
asS'flurry'
p8248
(lp8249
S'agitation'
p8250
asS'impede'
p8251
(lp8252
S'emp\xc3\xaacher'
p8253
asS'aggregate'
p8254
(lp8255
S'ensemble'
p8256
asS'realm'
p8257
(lp8258
S'monde'
p8259
asS'assortment'
p8260
(lp8261
S'm\xc3\xa9lange'
p8262
asS'nickname'
p8263
(lp8264
S'surnommer'
p8265
asS'implement'
p8266
(lp8267
S'remplir'
p8268
asS'recent'
p8269
(lp8270
S'nouveau'
p8271
asS'dark'
p8272
(lp8273
S'noir'
p8274
asS'lower'
p8275
(lp8276
S'premier'
p8277
asS'task'
p8278
(lp8279
S'devoir'
p8280
asS'encircle'
p8281
(lp8282
S'entourer'
p8283
asS'anybody'
p8284
(lp8285
S'personne'
p8286
asS'analysis'
p8287
(lp8288
S'analyse'
p8289
asS'grind'
p8290
(lp8291
S'tourner'
p8292
asS'concrete'
p8293
(lp8294
S'pr\xc3\xa9cis'
p8295
asS'edge'
p8296
(lp8297
S'taille'
p8298
asS'machinery'
p8299
(lp8300
S'appareil'
p8301
asS'consistency'
p8302
(lp8303
S'coh\xc3\xa9rence'
p8304
asS'landmark'
p8305
(lp8306
S'historique'
p8307
asS'entry'
p8308
(lp8309
S'article'
p8310
asS'chemistry'
p8311
(lp8312
S'chimie'
p8313
asS'spend'
p8314
(lp8315
S'passer'
p8316
asS'comprise'
p8317
(lp8318
S'constituer'
p8319
asS'know'
p8320
(lp8321
S'conna\xc3\xaetre'
p8322
asS'cave'
p8323
(lp8324
S'caverne'
p8325
asS'endeavour'
p8326
(lp8327
S'tenter'
p8328
asS'telegram'
p8329
(lp8330
S't\xc3\xa9l\xc3\xa9gramme'
p8331
asS'isolated'
p8332
(lp8333
S'isol\xc3\xa9'
p8334
asS'profoundly'
p8335
(lp8336
S'compl\xc3\xa8tement'
p8337
asS'rumbling'
p8338
(lp8339
S'grondement'
p8340
asS'turbulence'
p8341
(lp8342
S'agitation'
p8343
asS'useful'
p8344
(lp8345
S'utile'
p8346
asS'metallic'
p8347
(lp8348
S'm\xc3\xa9tallique'
p8349
asS'continent'
p8350
(lp8351
S'continent'
p8352
asS'alignment'
p8353
(lp8354
S'alignement'
p8355
asS'timber'
p8356
(lp8357
S'bois'
p8358
asS'move'
p8359
(lp8360
S'pas'
p8361
asS'cut'
p8362
(lp8363
S'monter'
p8364
asS'disseminate'
p8365
(lp8366
S'diss\xc3\xa9miner'
p8367
asS'alternate'
p8368
(lp8369
S'alterner'
p8370
asS'eager'
p8371
(lp8372
S'ardent'
p8373
asS'cue'
p8374
(lp8375
S'signal'
p8376
asS'location'
p8377
(lp8378
S'ext\xc3\xa9rieur'
p8379
asS'useless'
p8380
(lp8381
S'nul'
p8382
asS'cordon'
p8383
(lp8384
S'contenir'
p8385
asS'suffocation'
p8386
(lp8387
S'asphyxie'
p8388
asS'march'
p8389
(lp8390
S'manifestation'
p8391
asS'emergency'
p8392
(lp8393
S'urgence'
p8394
asS'big'
p8395
(lp8396
S'grand'
p8397
asS'couple'
p8398
(lp8399
S'associer'
p8400
asS'advocate'
p8401
(lp8402
S'avocat'
p8403
asS'displace'
p8404
(lp8405
S'd\xc3\xa9placer'
p8406
asS'game'
p8407
(lp8408
S'partie'
p8409
asS'cataclysm'
p8410
(lp8411
S'cataclysme'
p8412
asS'abound'
p8413
(lp8414
S'abonder'
p8415
asS'bit'
p8416
(lp8417
S'peu'
p8418
asS'like'
p8419
(lp8420
S'en'
p8421
asS'subsidence'
p8422
(lp8423
S'affaissement'
p8424
asS'spine'
p8425
(lp8426
S'cr\xc3\xaate'
p8427
asS'should'
p8428
(lp8429
S'pouvoir'
p8430
asS'pillar'
p8431
(lp8432
S'massif'
p8433
asS'heart'
p8434
(lp8435
S'fond'
p8436
asS'collect'
p8437
(lp8438
S'prendre'
p8439
asS'continue'
p8440
(lp8441
S'continuer'
p8442
asS'indication'
p8443
(lp8444
S'signe'
p8445
asS'vibrant'
p8446
(lp8447
S'vivant'
p8448
asS'popular'
p8449
(lp8450
S'courant'
p8451
asS'essential'
p8452
(lp8453
S'essentiel'
p8454
asS'two'
p8455
(lp8456
S'deux'
p8457
asS'hallmark'
p8458
(lp8459
S'contr\xc3\xb4ler'
p8460
asS'motor'
p8461
(lp8462
S'moteur'
p8463
asS'spring'
p8464
(lp8465
S'fontaine'
p8466
asS'creation'
p8467
(lp8468
S'cr\xc3\xa9ation'
p8469
asS'some'
p8470
(lp8471
S'du'
p8472
asS'back'
p8473
(lp8474
S'dernier'
p8475
asS'bounce'
p8476
(lp8477
S'vider'
p8478
asS'delegation'
p8479
(lp8480
S'd\xc3\xa9l\xc3\xa9gation'
p8481
asS'litter'
p8482
(lp8483
S'couvrir'
p8484
asS'economic'
p8485
(lp8486
S'\xc3\xa9conomique'
p8487
asS'palm'
p8488
(lp8489
S'patte'
p8490
asS'accelerate'
p8491
(lp8492
S'pr\xc3\xa9cipiter'
p8493
asS'sight'
p8494
(lp8495
S'vue'
p8496
asS'mirror'
p8497
(lp8498
S'glace'
p8499
asS'sprint'
p8500
(lp8501
S'foncer'
p8502
asS'pale'
p8503
(lp8504
S'blanc'
p8505
asS'pronounced'
p8506
(lp8507
S'fort'
p8508
asS'gradually'
p8509
(lp8510
S'progressivement'
p8511
asS'scale'
p8512
(lp8513
S'\xc3\xa9chelle'
p8514
asS'twinkle'
p8515
(lp8516
S'briller'
p8517
asS'decision'
p8518
(lp8519
S'arr\xc3\xaat'
p8520
asS'audience'
p8521
(lp8522
S'public'
p8523
asS'behave'
p8524
(lp8525
S'agir'
p8526
asS'simmer'
p8527
(lp8528
S'monter'
p8529
asS'prof'
p8530
(lp8531
S'professeur'
p8532
asS'lime'
p8533
(lp8534
S'chaux'
p8535
asS'terrestrial'
p8536
(lp8537
S'terrestre'
p8538
asS'invade'
p8539
(lp8540
S'envahir'
p8541
asS'nose'
p8542
(lp8543
S'nez'
p8544
asS'porridge'
p8545
(lp8546
S'bouillie'
p8547
asS'be'
p8548
(lp8549
S'\xc3\xaatre'
p8550
asS'sixteen'
p8551
(lp8552
S'seize'
p8553
asS'run'
p8554
(lp8555
S'donner'
p8556
asS'fresco'
p8557
(lp8558
S'fresque'
p8559
asS'peculiarly'
p8560
(lp8561
S'particuli\xc3\xa8rement'
p8562
asS'uniform'
p8563
(lp8564
S'm\xc3\xaame'
p8565
asS'perpendicular'
p8566
(lp8567
S'hauteur'
p8568
asS'step'
p8569
(lp8570
S'pas'
p8571
asS'by'
p8572
(lp8573
S'en'
p8574
asS'neighbourhood'
p8575
(lp8576
S'voisinage'
p8577
asS'anything'
p8578
(lp8579
S'tout'
p8580
asS'most'
p8581
(lp8582
S'tr\xc3\xa8s'
p8583
asS'row'
p8584
(lp8585
S'rayon'
p8586
asS'pumice'
p8587
(lp8588
S'poncer'
p8589
asS'rainfall'
p8590
(lp8591
S'pluviosit\xc3\xa9'
p8592
asS'simulation'
p8593
(lp8594
S'simulation'
p8595
asS'hinge'
p8596
(lp8597
S'd\xc3\xa9pendre'
p8598
asS'stricken'
p8599
(lp8600
S'sinistr\xc3\xa9'
p8601
asS'range'
p8602
(lp8603
S'r\xc3\xa9gion'
p8604
asS'together'
p8605
(lp8606
S'ensemble'
p8607
asS'consequently'
p8608
(lp8609
S'aussi'
p8610
asS'block'
p8611
(lp8612
S'bloc'
p8613
asS'pollution'
p8614
(lp8615
S'pollution'
p8616
asS'repair'
p8617
(lp8618
S'aller'
p8619
asS'crumble'
p8620
(lp8621
S'd\xc3\xa9sagr\xc3\xa9ger'
p8622
asS'plenty'
p8623
(lp8624
S'assez'
p8625
asS'into'
p8626
(lp8627
S'en'
p8628
asS'within'
p8629
(lp8630
S'dans'
p8631
asS'shed'
p8632
(lp8633
S'd\xc3\xa9p\xc3\xb4t'
p8634
asS'ensue'
p8635
(lp8636
S'r\xc3\xa9sulter'
p8637
asS'appropriate'
p8638
(lp8639
S'propre'
p8640
asS'primarily'
p8641
(lp8642
S'surtout'
p8643
asS'sufficiently'
p8644
(lp8645
S'assez'
p8646
asS'physical'
p8647
(lp8648
S'physique'
p8649
asS'canal'
p8650
(lp8651
S'conduit'
p8652
asS'vineyard'
p8653
(lp8654
S'cru'
p8655
asS'span'
p8656
(lp8657
S'dur\xc3\xa9e'
p8658
asS'few'
p8659
(lp8660
S'peu'
p8661
asS'fluctuate'
p8662
(lp8663
S'varier'
p8664
asS'tumble'
p8665
(lp8666
S'chute'
p8667
asS'question'
p8668
(lp8669
S'doute'
p8670
asS'fast'
p8671
(lp8672
S'solide'
p8673
asS'progressively'
p8674
(lp8675
S'progressivement'
p8676
asS'occupy'
p8677
(lp8678
S'occuper'
p8679
asS'doubt'
p8680
(lp8681
S'doute'
p8682
asS'douse'
p8683
(lp8684
S'\xc3\xa9teindre'
p8685
asS'forward'
p8686
(lp8687
S'avant'
p8688
asS'analyze'
p8689
(lp8690
S'analyser'
p8691
asS'considerably'
p8692
(lp8693
S'consid\xc3\xa9rablement'
p8694
asS'himself'
p8695
(lp8696
S'se'
p8697
asS'elsewhere'
p8698
(lp8699
S'ailleurs'
p8700
asS'pronounce'
p8701
(lp8702
S'rendre'
p8703
asS'potassium'
p8704
(lp8705
S'potassium'
p8706
asS'vehicle'
p8707
(lp8708
S'engin'
p8709
asS'slump'
p8710
(lp8711
S'effondrement'
p8712
asS'introduction'
p8713
(lp8714
S'apparition'
p8715
asS'link'
p8716
(lp8717
S'lier'
p8718
asS'authority'
p8719
(lp8720
S'pouvoir'
p8721
asS'episode'
p8722
(lp8723
S'page'
p8724
asS'injection'
p8725
(lp8726
S'injection'
p8727
asS'role'
p8728
(lp8729
S'r\xc3\xb4le'
p8730
asS'considerable'
p8731
(lp8732
S'important'
p8733
asS'consist'
p8734
(lp8735
S'consister'
p8736
asS'characteristic'
p8737
(lp8738
S'particulier'
p8739
asS'up'
p8740
(lp8741
S'augmenter'
p8742
asS'us'
p8743
(lp8744
S'nous'
p8745
asS'planet'
p8746
(lp8747
S'plan\xc3\xa8te'
p8748
asS'exploration'
p8749
(lp8750
S'exploration'
p8751
asS'mature'
p8752
(lp8753
S'fait'
p8754
asS'continuously'
p8755
(lp8756
S'constamment'
p8757
asS'highlight'
p8758
(lp8759
S'souligner'
p8760
asS'autonomous'
p8761
(lp8762
S'autonome'
p8763
asS'similar'
p8764
(lp8765
S'proche'
p8766
asS'professor'
p8767
(lp8768
S'professeur'
p8769
asS'genial'
p8770
(lp8771
S'doux'
p8772
asS'camp'
p8773
(lp8774
S'cabotin'
p8775
asS'constant'
p8776
(lp8777
S'constant'
p8778
asS'worthwhile'
p8779
(lp8780
S'utile'
p8781
asS'expedition'
p8782
(lp8783
S'tour'
p8784
asS'metal'
p8785
(lp8786
S'caract\xc3\xa8re'
p8787
asS'influence'
p8788
(lp8789
S'pouvoir'
p8790
asS'possessor'
p8791
(lp8792
S'propri\xc3\xa9taire'
p8793
asS'deprive'
p8794
(lp8795
S'priver'
p8796
asS'single'
p8797
(lp8798
S'seul'
p8799
asS'diverse'
p8800
(lp8801
S'diff\xc3\xa9rent'
p8802
asS'curb'
p8803
(lp8804
S'contenir'
p8805
asS'chat'
p8806
(lp8807
S'causer'
p8808
asS'graceful'
p8809
(lp8810
S'ais\xc3\xa9'
p8811
asS'curl'
p8812
(lp8813
S'volute'
p8814
asS'work'
p8815
(lp8816
S'faire'
p8817
asS'prevail'
p8818
(lp8819
S'dominer'
p8820
asS'hail'
p8821
(lp8822
S'pluie'
p8823
asS'whom'
p8824
(lp8825
S'qui'
p8826
asS'successive'
p8827
(lp8828
S'successif'
p8829
asS'rainy'
p8830
(lp8831
S'pluvieux'
p8832
asS'tentative'
p8833
(lp8834
S'provisoire'
p8835
asS'occasional'
p8836
(lp8837
S'intermittent'
p8838
asS'application'
p8839
(lp8840
S'attention'
p8841
asS'electrical'
p8842
(lp8843
S'\xc3\xa9lectrique'
p8844
asS'tuff'
p8845
(lp8846
S'tuf'
p8847
asS'department'
p8848
(lp8849
S'rayon'
p8850
asS'confine'
p8851
(lp8852
S'emprisonner'
p8853
asS'principle'
p8854
(lp8855
S'principe'
p8856
asS'draw'
p8857
(lp8858
S'faire'
p8859
asS'energetic'
p8860
(lp8861
S'\xc3\xa9nerg\xc3\xa9tique'
p8862
asS'vesicle'
p8863
(lp8864
S'v\xc3\xa9sicule'
p8865
asS'backbone'
p8866
(lp8867
S'base'
p8868
asS'faintly'
p8869
(lp8870
S'faiblement'
p8871
asS'prepared'
p8872
(lp8873
S'pr\xc3\xaat'
p8874
asS'lens'
p8875
(lp8876
S'verre'
p8877
asS'utterly'
p8878
(lp8879
S'directement'
p8880
asS'weigh'
p8881
(lp8882
S'peser'
p8883
asS'caldera'
p8884
(lp8885
S'caldeira'
p8886
asS'clue'
p8887
(lp8888
S'indice'
p8889
asS'desert'
p8890
(lp8891
S'd\xc3\xa9sert'
p8892
asS'structure'
p8893
(lp8894
S'\xc3\xa9difice'
p8895
asS'lane'
p8896
(lp8897
S'voie'
p8898
asS'land'
p8899
(lp8900
S'terre'
p8901
asS'e'
p8902
(lp8903
S'est'
p8904
asS'liberate'
p8905
(lp8906
S'lib\xc3\xa9rer'
p8907
asS'age'
p8908
(lp8909
S'si\xc3\xa8cle'
p8910
asS'liquefy'
p8911
(lp8912
S'liqu\xc3\xa9fier'
p8913
asS'orbit'
p8914
(lp8915
S'orbite'
p8916
asS'feud'
p8917
(lp8918
S'querelle'
p8919
asS'depth'
p8920
(lp8921
S'profondeur'
p8922
asS'summit'
p8923
(lp8924
S'sommet'
p8925
asS'leak'
p8926
(lp8927
S'couler'
p8928
asS'walker'
p8929
(lp8930
S'promeneur'
p8931
asS'fresh'
p8932
(lp8933
S'nouveau'
p8934
asS'menace'
p8935
(lp8936
S'menacer'
p8937
asS'tube'
p8938
(lp8939
S'tube'
p8940
asS'once'
p8941
(lp8942
S'jamais'
p8943
asS'kilometre'
p8944
(lp8945
S'kilom\xc3\xa8tre'
p8946
asS'partial'
p8947
(lp8948
S'partiel'
p8949
asS'paw'
p8950
(lp8951
S'patte'
p8952
asS'planetary'
p8953
(lp8954
S'plan\xc3\xa9taire'
p8955
asS'scratch'
p8956
(lp8957
S'crisser'
p8958
asS'broaden'
p8959
(lp8960
S'\xc3\xa9tendre'
p8961
asS'resistance'
p8962
(lp8963
S'r\xc3\xa9sistance'
p8964
asS'lowland'
p8965
(lp8966
S'plaine'
p8967
asS'renown'
p8968
(lp8969
S'm\xc3\xa9moire'
p8970
asS'philosopher'
p8971
(lp8972
S'philosophe'
p8973
asS'go'
p8974
(lp8975
S'faire'
p8976
asS'adjustment'
p8977
(lp8978
S'r\xc3\xa9gulation'
p8979
asS'strew'
p8980
(lp8981
S'r\xc3\xa9pandre'
p8982
asS'encrust'
p8983
(lp8984
S'couvrir'
p8985
asS'compact'
p8986
(lp8987
S'dense'
p8988
asS'compose'
p8989
(lp8990
S'constituer'
p8991
asS'overlapping'
p8992
(lp8993
S'chevauchement'
p8994
asS'concerned'
p8995
(lp8996
S'inquiet'
p8997
asS'wizard'
p8998
(lp8999
S'sorcier'
p9000
asS'stave'
p9001
(lp9002
S'port\xc3\xa9e'
p9003
asS'young'
p9004
(lp9005
S'petit'
p9006
asS'send'
p9007
(lp9008
S'rendre'
p9009
asS'shack'
p9010
(lp9011
S'cabane'
p9012
asS'critical'
p9013
(lp9014
S'critique'
p9015
asS'blaze'
p9016
(lp9017
S'explosion'
p9018
asS'stable'
p9019
(lp9020
S'solide'
p9021
asS'weather'
p9022
(lp9023
S'temps'
p9024
asS'breach'
p9025
(lp9026
S'trou'
p9027
asS'tremor'
p9028
(lp9029
S'tremblement'
p9030
asS'fatal'
p9031
(lp9032
S'meurtrier'
p9033
asS'friendly'
p9034
(lp9035
S'ami'
p9036
asS'ingredient'
p9037
(lp9038
S'\xc3\xa9l\xc3\xa9ment'
p9039
asS'breathing'
p9040
(lp9041
S'souffle'
p9042
asS'garden'
p9043
(lp9044
S'jardin'
p9045
asS'outside'
p9046
(lp9047
S'ext\xc3\xa9rieur'
p9048
asS'wave'
p9049
(lp9050
S'mar\xc3\xa9e'
p9051
asS'electron'
p9052
(lp9053
S'\xc3\xa9lectronique'
p9054
asS'foretell'
p9055
(lp9056
S'annoncer'
p9057
asS'literally'
p9058
(lp9059
S'litt\xc3\xa9ralement'
p9060
asS'accuse'
p9061
(lp9062
S'incriminer'
p9063
asS'infrared'
p9064
(lp9065
S'infrarouge'
p9066
asS'continued'
p9067
(lp9068
S'constant'
p9069
asS'wipe'
p9070
(lp9071
S'balayage'
p9072
asS'arrange'
p9073
(lp9074
S'arr\xc3\xaater'
p9075
asS'entire'
p9076
(lp9077
S'tout'
p9078
asS'magic'
p9079
(lp9080
S'magique'
p9081
asS'stiff'
p9082
(lp9083
S'fort'
p9084
asS'harbor'
p9085
(lp9086
S'port'
p9087
asS'shock'
p9088
(lp9089
S'secousse'
p9090
asS'eve'
p9091
(lp9092
S'veille'
p9093
asS'anxious'
p9094
(lp9095
S'angoissant'
p9096
asS'tunnel'
p9097
(lp9098
S'taille'
p9099
asS'race'
p9100
(lp9101
S'raz'
p9102
asS'gauge'
p9103
(lp9104
S'pr\xc3\xa9voir'
p9105
asS'inspection'
p9106
(lp9107
S'examen'
p9108
asS'enforce'
p9109
(lp9110
S'imposer'
p9111
asS'locate'
p9112
(lp9113
S'situer'
p9114
asS'south-east'
p9115
(lp9116
S'sud-est'
p9117
asS'pledge'
p9118
(lp9119
S'gage'
p9120
asS'protect'
p9121
(lp9122
S'prot\xc3\xa9ger'
p9123
asS'bleeding'
p9124
(lp9125
S'purge'
p9126
asS'uncomfortably'
p9127
(lp9128
S'trop'
p9129
asS'crop'
p9130
(lp9131
S's\xc3\xa9rie'
p9132
asS'jump'
p9133
(lp9134
S'franchir'
p9135
asS'imply'
p9136
(lp9137
S'supposer'
p9138
asS'video'
p9139
(lp9140
S'enregistrer'
p9141
asS'sulfide'
p9142
(lp9143
S'sulfure'
p9144
asS'uncomfortable'
p9145
(lp9146
S'mal'
p9147
asS'nephew'
p9148
(lp9149
S'neveu'
p9150
asS'incidentally'
p9151
(lp9152
S'accidentellement'
p9153
asS'dynamics'
p9154
(lp9155
S'dynamique'
p9156
asS'acid'
p9157
(lp9158
S'acide'
p9159
asS'odd'
p9160
(lp9161
S'particulier'
p9162
asS'leakage'
p9163
(lp9164
S'perte'
p9165
asS'depression'
p9166
(lp9167
S'd\xc3\xa9pression'
p9168
asS'scientific'
p9169
(lp9170
S'scientifique'
p9171
asS'index'
p9172
(lp9173
S'signe'
p9174
asS'power'
p9175
(lp9176
S'pouvoir'
p9177
asS'opaque'
p9178
(lp9179
S'stupide'
p9180
asS'squeeze'
p9181
(lp9182
S'pression'
p9183
asS'yellow'
p9184
(lp9185
S'jaune'
p9186
asS'edifice'
p9187
(lp9188
S'\xc3\xa9difice'
p9189
asS'exacerbate'
p9190
(lp9191
S'irriter'
p9192
asS'access'
p9193
(lp9194
S'abord'
p9195
asS'rotten'
p9196
(lp9197
S'vache'
p9198
asS'experiment'
p9199
(lp9200
S'essai'
p9201
asS'volatile'
p9202
(lp9203
S'explosif'
p9204
asS'capital'
p9205
(lp9206
S'principal'
p9207
asS'infuse'
p9208
(lp9209
S'inspirer'
p9210
asS'bird'
p9211
(lp9212
S'type'
p9213
asS'body'
p9214
(lp9215
S'fond'
p9216
asS'degree'
p9217
(lp9218
S'titre'
p9219
asS'leg'
p9220
(lp9221
S'pied'
p9222
asS'respectively'
p9223
(lp9224
S'respectivement'
p9225
asS'commercial'
p9226
(lp9227
S'commercial'
p9228
asS'indicator'
p9229
(lp9230
S'aiguille'
p9231
asS'growing'
p9232
(lp9233
S'croissance'
p9234
asS'geyser'
p9235
(lp9236
S'geyser'
p9237
asS'let'
p9238
(lp9239
S'faire'
p9240
asS'sink'
p9241
(lp9242
S'couler'
p9243
asS'separation'
p9244
(lp9245
S's\xc3\xa9paration'
p9246
asS'consideration'
p9247
(lp9248
S'examen'
p9249
asS'extreme'
p9250
(lp9251
S'profond'
p9252
asS'settling'
p9253
(lp9254
S'constitution'
p9255
asS'convert'
p9256
(lp9257
S'transformer'
p9258
asS'engage'
p9259
(lp9260
S'prendre'
p9261
asS'receive'
p9262
(lp9263
S'prendre'
p9264
asS'metre'
p9265
(lp9266
S'm\xc3\xa8tre'
p9267
asS'titanic'
p9268
(lp9269
S'titanesque'
p9270
asS'scatter'
p9271
(lp9272
S'r\xc3\xa9pandre'
p9273
asS'repel'
p9274
(lp9275
S'repousser'
p9276
asS'survey'
p9277
(lp9278
S'\xc3\xa9tude'
p9279
asS'crystallize'
p9280
(lp9281
S'cristalliser'
p9282
asS'principally'
p9283
(lp9284
S'principalement'
p9285
asS'opinion'
p9286
(lp9287
S'avis'
p9288
asS'climb'
p9289
(lp9290
S'monter'
p9291
asS'salvation'
p9292
(lp9293
S'salut'
p9294
asS'maker'
p9295
(lp9296
S'constructeur'
p9297
asS'writer'
p9298
(lp9299
S'auteur'
p9300
asS'foresee'
p9301
(lp9302
S'pr\xc3\xa9voir'
p9303
asS'apple'
p9304
(lp9305
S'pomme'
p9306
asS'blizzard'
p9307
(lp9308
S'avalanche'
p9309
asS'danger'
p9310
(lp9311
S'danger'
p9312
asS'duct'
p9313
(lp9314
S'conduit'
p9315
asS'win'
p9316
(lp9317
S'trouver'
p9318
asS'manage'
p9319
(lp9320
S'diriger'
p9321
asS'dedicated'
p9322
(lp9323
S's\xc3\xa9rieux'
p9324
asS'surveyor'
p9325
(lp9326
S'expert'
p9327
asS'wit'
p9328
(lp9329
S'sel'
p9330
asS'decrease'
p9331
(lp9332
S'r\xc3\xa9duire'
p9333
asS'composer'
p9334
(lp9335
S'auteur'
p9336
asS'apply'
p9337
(lp9338
S'mettre'
p9339
asS'sugar'
p9340
(lp9341
S'mercredi'
p9342
asS'cloud'
p9343
(lp9344
S'nu\xc3\xa9e'
p9345
asS'imbue'
p9346
(lp9347
S'impr\xc3\xa9gner'
p9348
asS'standing'
p9349
(lp9350
S'r\xc3\xa9gulier'
p9351
asS'use'
p9352
(lp9353
S'prendre'
p9354
asS'from'
p9355
(lp9356
S'dans'
p9357
asS'patron'
p9358
(lp9359
S'patron'
p9360
asS'archbishop'
p9361
(lp9362
S'archev\xc3\xaaque'
p9363
asS'readable'
p9364
(lp9365
S'lisible'
p9366
asS'physics'
p9367
(lp9368
S'physique'
p9369
asS'cretaceous'
p9370
(lp9371
S'cr\xc3\xa9tac\xc3\xa9'
p9372
asS'next'
p9373
(lp9374
S'apr\xc3\xa8s'
p9375
asS'eleven'
p9376
(lp9377
S'onze'
p9378
asS'camera'
p9379
(lp9380
S'appareil'
p9381
asS'bitterly'
p9382
(lp9383
S'profond\xc3\xa9ment'
p9384
asS'themselves'
p9385
(lp9386
S'se'
p9387
asS'stage'
p9388
(lp9389
S'point'
p9390
asS'chloride'
p9391
(lp9392
S'chlorure'
p9393
asS'sort'
p9394
(lp9395
S'nature'
p9396
asS'charcoal'
p9397
(lp9398
S'charbon'
p9399
asS'upcoming'
p9400
(lp9401
S'prochain'
p9402
asS'on'
p9403
(lp9404
S'dans'
p9405
asS'lacerate'
p9406
(lp9407
S'd\xc3\xa9chirer'
p9408
asS'impress'
p9409
(lp9410
S'marquer'
p9411
asS'basalt'
p9412
(lp9413
S'basalte'
p9414
asS'trail'
p9415
(lp9416
S'trace'
p9417
asS'transient'
p9418
(lp9419
S'passager'
p9420
asS'labourer'
p9421
(lp9422
S'ouvrier'
p9423
asS'sharply'
p9424
(lp9425
S'rapidement'
p9426
asS'baby'
p9427
(lp9428
S'b\xc3\xa9b\xc3\xa9'
p9429
asS'rare'
p9430
(lp9431
S'rare'
p9432
asS'harvest'
p9433
(lp9434
S'pr\xc3\xa9lever'
p9435
asS'pollutant'
p9436
(lp9437
S'polluant'
p9438
asS'high'
p9439
(lp9440
S'grand'
p9441
asS'account'
p9442
(lp9443
S'estimer'
p9444
asS'mythical'
p9445
(lp9446
S'fabuleux'
p9447
asS'this'
p9448
(lp9449
S'ce'
p9450
asS'challenge'
p9451
(lp9452
S'attaquer'
p9453
asS'when'
p9454
(lp9455
S'que'
p9456
asS'pour'
p9457
(lp9458
S'couler'
p9459
asS'anywhere'
p9460
(lp9461
S'partout'
p9462
asS'obvious'
p9463
(lp9464
S'visible'
p9465
asS'thin'
p9466
(lp9467
S'petit'
p9468
asS'drill'
p9469
(lp9470
S'rayon'
p9471
asS'of'
p9472
(lp9473
S'de'
p9474
asS'meet'
p9475
(lp9476
S'atteindre'
p9477
asS'nurture'
p9478
(lp9479
S'\xc3\xa9lever'
p9480
asS'dissolve'
p9481
(lp9482
S'dissoudre'
p9483
asS'proof'
p9484
(lp9485
S'preuve'
p9486
asS'control'
p9487
(lp9488
S'contenir'
p9489
asS'violence'
p9490
(lp9491
S'violence'
p9492
asS'tap'
p9493
(lp9494
S'utiliser'
p9495
asS'coincident'
p9496
(lp9497
S'identique'
p9498
asS'crevasse'
p9499
(lp9500
S'crevasse'
p9501
asS'plate'
p9502
(lp9503
S'plaque'
p9504
asS'calculation'
p9505
(lp9506
S'calcul'
p9507
asS'lock'
p9508
(lp9509
S'bloquer'
p9510
asS'coolness'
p9511
(lp9512
S'froid'
p9513
asS'inaccessible'
p9514
(lp9515
S'inaccessible'
p9516
asS'depiction'
p9517
(lp9518
S'description'
p9519
asS'carrot'
p9520
(lp9521
S'carotte'
p9522
asS'slip'
p9523
(lp9524
S'couler'
p9525
asS'devastate'
p9526
(lp9527
S'd\xc3\xa9vaster'
p9528
asS'darkening'
p9529
(lp9530
S'obscurcissement'
p9531
asS'skirt'
p9532
(lp9533
S'\xc3\xa9viter'
p9534
asS'native'
p9535
(lp9536
S'naturel'
p9537
asS'sir'
p9538
(lp9539
S'monsieur'
p9540
asS'educational'
p9541
(lp9542
S'universitaire'
p9543
asS'provoke'
p9544
(lp9545
S'provoquer'
p9546
asS'varied'
p9547
(lp9548
S'divers'
p9549
asS'picturesque'
p9550
(lp9551
S'pittoresque'
p9552
asS'buoyant'
p9553
(lp9554
S'actif'
p9555
asS'six'
p9556
(lp9557
S'six'
p9558
asS'restart'
p9559
(lp9560
S'recommencer'
p9561
asS'delay'
p9562
(lp9563
S'retenir'
p9564
asS'vesicular'
p9565
(lp9566
S'v\xc3\xa9siculaire'
p9567
asS'forest'
p9568
(lp9569
S'for\xc3\xaat'
p9570
asS'animal'
p9571
(lp9572
S'animal'
p9573
asS'instead'
p9574
(lp9575
S'plut\xc3\xb4t'
p9576
asS'furnace'
p9577
(lp9578
S'fournaise'
p9579
asS'panic'
p9580
(lp9581
S'panique'
p9582
asS'circular'
p9583
(lp9584
S'circulaire'
p9585
asS'exemplify'
p9586
(lp9587
S'd\xc3\xa9montrer'
p9588
asS'hydrothermal'
p9589
(lp9590
S'hydrothermal'
p9591
asS'attend'
p9592
(lp9593
S'suivre'
p9594
asS'singular'
p9595
(lp9596
S'rare'
p9597
asS'farm'
p9598
(lp9599
S'\xc3\xa9lever'
p9600
asS'watch'
p9601
(lp9602
S'observer'
p9603
asS'await'
p9604
(lp9605
S'attendre'
p9606
asS'them'
p9607
(lp9608
S'le'
p9609
asS'collection'
p9610
(lp9611
S'ensemble'
p9612
asS'perceive'
p9613
(lp9614
S'comprendre'
p9615
asS'records'
p9616
(lp9617
S'archives'
p9618
asS'hawk'
p9619
(lp9620
S'colporter'
p9621
asS'drape'
p9622
(lp9623
S'mouvement'
p9624
asS'institute'
p9625
(lp9626
S'constituer'
p9627
asS'bind'
p9628
(lp9629
S'lier'
p9630
asS'sit'
p9631
(lp9632
S'passer'
p9633
asS'robot'
p9634
(lp9635
S'automatique'
p9636
asS'element'
p9637
(lp9638
S'\xc3\xa9l\xc3\xa9ment'
p9639
asS'scoop'
p9640
(lp9641
S'lame'
p9642
asS'chief'
p9643
(lp9644
S'principal'
p9645
asS'scoot'
p9646
(lp9647
S'filer'
p9648
asS'allow'
p9649
(lp9650
S'permettre'
p9651
asS'furious'
p9652
(lp9653
S'violent'
p9654
asS'irregularity'
p9655
(lp9656
S'intermittence'
p9657
asS'ignite'
p9658
(lp9659
S'd\xc3\xa9clencher'
p9660
asS'mute'
p9661
(lp9662
S'mod\xc3\xa9rer'
p9663
asS'altogether'
p9664
(lp9665
S'compl\xc3\xa8tement'
p9666
asS'meter'
p9667
(lp9668
S'm\xc3\xa8tre'
p9669
asS'meager'
p9670
(lp9671
S'pauvre'
p9672
asS'enclose'
p9673
(lp9674
S'entourer'
p9675
asS'quake'
p9676
(lp9677
S's\xc3\xa9isme'
p9678
asS'agricultural'
p9679
(lp9680
S'agricole'
p9681
asS'accrete'
p9682
(lp9683
S'accumuler'
p9684
asS'brittle'
p9685
(lp9686
S'fragile'
p9687
asS'glen'
p9688
(lp9689
S'vall\xc3\xa9e'
p9690
asS'underwater'
p9691
(lp9692
S'sous-marin'
p9693
asS'complicate'
p9694
(lp9695
S'compliquer'
p9696
asS'outer'
p9697
(lp9698
S'ext\xc3\xa9rieur'
p9699
asS'exclusion'
p9700
(lp9701
S'exclusion'
p9702
asS'decay'
p9703
(lp9704
S'dissolution'
p9705
asS'pellet'
p9706
(lp9707
S'grain'
p9708
asS'glee'
p9709
(lp9710
S'joie'
p9711
asS'shudder'
p9712
(lp9713
S'vibration'
p9714
asS'previously'
p9715
(lp9716
S'avant'
p9717
asS'permanent'
p9718
(lp9719
S'permanent'
p9720
asS'choose'
p9721
(lp9722
S'd\xc3\xa9cider'
p9723
asS'latitude'
p9724
(lp9725
S'latitude'
p9726
asS'spot'
p9727
(lp9728
S'point'
p9729
asS'flex'
p9730
(lp9731
S'fil'
p9732
asS'unavoidable'
p9733
(lp9734
S'in\xc3\xa9luctable'
p9735
asS'crash'
p9736
(lp9737
S'choc'
p9738
asS'belch'
p9739
(lp9740
S'cracher'
p9741
asS'material'
p9742
(lp9743
S'mati\xc3\xa8re'
p9744
asS'dike'
p9745
(lp9746
S'digue'
p9747
asS'ship'
p9748
(lp9749
S'charger'
p9750
asS'dock'
p9751
(lp9752
S'couper'
p9753
asS'snake'
p9754
(lp9755
S'serpenter'
p9756
asS'legendary'
p9757
(lp9758
S'fabuleux'
p9759
asS'front'
p9760
(lp9761
S'premier'
p9762
asS'bar'
p9763
(lp9764
S'mesure'
p9765
asS'flee'
p9766
(lp9767
S'fuir'
p9768
asS'day'
p9769
(lp9770
S'jour'
p9771
asS'decapitate'
p9772
(lp9773
S'd\xc3\xa9capiter'
p9774
asS'reconstruction'
p9775
(lp9776
S'reconstitution'
p9777
asS'thrill'
p9778
(lp9779
S'transporter'
p9780
asS'profound'
p9781
(lp9782
S'profond'
p9783
asS'scenic'
p9784
(lp9785
S'pittoresque'
p9786
asS'university'
p9787
(lp9788
S'universit\xc3\xa9'
p9789
asS'colonize'
p9790
(lp9791
S'coloniser'
p9792
asS'slide'
p9793
(lp9794
S'chute'
p9795
asS'magnitude'
p9796
(lp9797
S'ouverture'
p9798
asS'mode'
p9799
(lp9800
S'fa\xc3\xa7on'
p9801
asS'viewing'
p9802
(lp9803
S'observation'
p9804
asS'promise'
p9805
(lp9806
S'annoncer'
p9807
asS'beneath'
p9808
(lp9809
S'sous'
p9810
asS'stock'
p9811
(lp9812
S'avoir'
p9813
asS'erratic'
p9814
(lp9815
S'irr\xc3\xa9gulier'
p9816
asS'scorch'
p9817
(lp9818
S'br\xc3\xbbler'
p9819
asS'prevailing'
p9820
(lp9821
S'actuel'
p9822
asS'enigmatic'
p9823
(lp9824
S'\xc3\xa9nigmatique'
p9825
asS'profile'
p9826
(lp9827
S'profil'
p9828
asS'globe'
p9829
(lp9830
S'globe'
p9831
asS'strip'
p9832
(lp9833
S'vider'
p9834
asS'inverted'
p9835
(lp9836
S'renvers\xc3\xa9'
p9837
asS'climatic'
p9838
(lp9839
S'climatique'
p9840
asS'society'
p9841
(lp9842
S'compagnie'
p9843
asS'frequency'
p9844
(lp9845
S'fr\xc3\xa9quence'
p9846
asS'interplay'
p9847
(lp9848
S'jeu'
p9849
asS'measure'
p9850
(lp9851
S'estimer'
p9852
asS'jagged'
p9853
(lp9854
S'irr\xc3\xa9gulier'
p9855
asS'our'
p9856
(lp9857
S'notre'
p9858
asS'repository'
p9859
(lp9860
S'd\xc3\xa9p\xc3\xb4t'
p9861
asS'patch'
p9862
(lp9863
S'plaque'
p9864
asS'tenth'
p9865
(lp9866
S'dixi\xc3\xa8me'
p9867
asS'wander'
p9868
(lp9869
S'tour'
p9870
asS'special'
p9871
(lp9872
S'grand'
p9873
asS'out'
p9874
(lp9875
S'dans'
p9876
asS'category'
p9877
(lp9878
S'cat\xc3\xa9gorie'
p9879
asS'fundamentally'
p9880
(lp9881
S'essentiellement'
p9882
asS'sentiment'
p9883
(lp9884
S'avis'
p9885
asS'disarray'
p9886
(lp9887
S'd\xc3\xa9sordre'
p9888
asS'wholly'
p9889
(lp9890
S'compl\xc3\xa8tement'
p9891
asS'may'
p9892
(lp9893
S'pouvoir'
p9894
asS'tempestuous'
p9895
(lp9896
S'violent'
p9897
asS'evacuation'
p9898
(lp9899
S'\xc3\xa9vacuation'
p9900
asS'electronics'
p9901
(lp9902
S'\xc3\xa9lectronique'
p9903
asS'cause'
p9904
(lp9905
S'produire'
p9906
asS'red'
p9907
(lp9908
S'rouge'
p9909
asS'disclose'
p9910
(lp9911
S'montrer'
p9912
asS'shut'
p9913
(lp9914
S'fermer'
p9915
asS'perish'
p9916
(lp9917
S'mourir'
p9918
asS'frank'
p9919
(lp9920
S'direct'
p9921
asS'tempo'
p9922
(lp9923
S'mesure'
p9924
asS'release'
p9925
(lp9926
S'lib\xc3\xa9rer'
p9927
asS'completely'
p9928
(lp9929
S'directement'
p9930
asS'hazard'
p9931
(lp9932
S'risque'
p9933
asS'tempt'
p9934
(lp9935
S'tenter'
p9936
asS'thrust'
p9937
(lp9938
S'dynamisme'
p9939
asS'obliteration'
p9940
(lp9941
S'destruction'
p9942
asS'likelihood'
p9943
(lp9944
S'probabilit\xc3\xa9'
p9945
asS'obscure'
p9946
(lp9947
S'vague'
p9948
asS'interaction'
p9949
(lp9950
S'relation'
p9951
asS'mainland'
p9952
(lp9953
S'continent'
p9954
asS'hostile'
p9955
(lp9956
S'ingrat'
p9957
asS'geographer'
p9958
(lp9959
S'g\xc3\xa9ographe'
p9960
asS'spill'
p9961
(lp9962
S'r\xc3\xa9pandre'
p9963
asS'could'
p9964
(lp9965
S'pouvoir'
p9966
asS'keep'
p9967
(lp9968
S'avoir'
p9969
asS'counterpart'
p9970
(lp9971
S'double'
p9972
asS'keen'
p9973
(lp9974
S'grand'
p9975
asS'length'
p9976
(lp9977
S'quantit\xc3\xa9'
p9978
asS'shred'
p9979
(lp9980
S'd\xc3\xa9truire'
p9981
asS'transfer'
p9982
(lp9983
S'd\xc3\xa9placer'
p9984
asS'biting'
p9985
(lp9986
S'dur'
p9987
asS'museum'
p9988
(lp9989
S'mus\xc3\xa9e'
p9990
asS'south'
p9991
(lp9992
S'sud'
p9993
asS'widely'
p9994
(lp9995
S'bien'
p9996
asS'confuse'
p9997
(lp9998
S'm\xc3\xa9langer'
p9999
asS'scene'
p10000
(lp10001
S'monde'
p10002
asS'sack'
p10003
(lp10004
S'\xc3\xa9jecter'
p10005
asS'echo'
p10006
(lp10007
S'renvoyer'
p10008
asS'extrude'
p10009
(lp10010
S'rejeter'
p10011
asS'weak'
p10012
(lp10013
S'pauvre'
p10014
asS'ooze'
p10015
(lp10016
S'boue'
p10017
asS'precisely'
p10018
(lp10019
S'pr\xc3\xa9cis\xc3\xa9ment'
p10020
asS'straight'
p10021
(lp10022
S'carr\xc3\xa9'
p10023
asS'stamina'
p10024
(lp10025
S'r\xc3\xa9sistance'
p10026
asS'ancient'
p10027
(lp10028
S'ancien'
p10029
asS'observer'
p10030
(lp10031
S'sp\xc3\xa9cialiste'
p10032
asS'flourish'
p10033
(lp10034
S'prosp\xc3\xa9rer'
p10035
asS'system'
p10036
(lp10037
S'syst\xc3\xa8me'
p10038
asS'overwhelm'
p10039
(lp10040
S'ensevelir'
p10041
asS'attack'
p10042
(lp10043
S'donner'
p10044
asS'accretion'
p10045
(lp10046
S'accumulation'
p10047
asS'perfectly'
p10048
(lp10049
S'parfaitement'
p10050
asS'final'
p10051
(lp10052
S'dernier'
p10053
asS'boil'
p10054
(lp10055
S'chauffer'
p10056
asS'circulate'
p10057
(lp10058
S'propager'
p10059
asS'shell'
p10060
(lp10061
S'bombarder'
p10062
asS'accompany'
p10063
(lp10064
S'suivre'
p10065
asS'gear'
p10066
(lp10067
S'vitesse'
p10068
asS'quarry'
p10069
(lp10070
S'carri\xc3\xa8re'
p10071
asS'explanation'
p10072
(lp10073
S'explication'
p10074
asS'exactly'
p10075
(lp10076
S'pr\xc3\xa9cis\xc3\xa9ment'
p10077
asS'argon'
p10078
(lp10079
S'argon'
p10080
asS'sporadically'
p10081
(lp10082
S'sporadiquement'
p10083
asS'manifestation'
p10084
(lp10085
S'manifestation'
p10086
asS'diminish'
p10087
(lp10088
S'r\xc3\xa9duire'
p10089
asS'commence'
p10090
(lp10091
S'commencer'
p10092
asS'outline'
p10093
(lp10094
S'tour'
p10095
asS'steel'
p10096
(lp10097
S'fer'
p10098
asS'precursory'
p10099
(lp10100
S'annonciateur'
p10101
asS'photograph'
p10102
(lp10103
S'photo'
p10104
asS'viscous'
p10105
(lp10106
S'visqueux'
p10107
asS'correlate'
p10108
(lp10109
S'correspondre'
p10110
asS'speciality'
p10111
(lp10112
S'sp\xc3\xa9cialit\xc3\xa9'
p10113
asS'isolation'
p10114
(lp10115
S'isolement'
p10116
asS'bother'
p10117
(lp10118
S'mal'
p10119
asS'bed'
p10120
(lp10121
S'couche'
p10122
asS'politics'
p10123
(lp10124
S'politique'
p10125
asS'calamity'
p10126
(lp10127
S'malheur'
p10128
asS'defense'
p10129
(lp10130
S'd\xc3\xa9fense'
p10131
asS'amplitude'
p10132
(lp10133
S'ampleur'
p10134
asS'light'
p10135
(lp10136
S'jour'
p10137
asS'elongate'
p10138
(lp10139
S'prolonger'
p10140
asS'steep'
p10141
(lp10142
S'fort'
p10143
asS'distinguished'
p10144
(lp10145
S'\xc3\xa9minent'
p10146
asS'exhibit'
p10147
(lp10148
S'produire'
p10149
asS'rhythmic'
p10150
(lp10151
S'rythmique'
p10152
asS'clip'
p10153
(lp10154
S'tailler'
p10155
asS'fluctuation'
p10156
(lp10157
S'variation'
p10158
asS'gently'
p10159
(lp10160
S'doucement'
p10161
asS'westward'
p10162
(lp10163
S'ouest'
p10164
asS'tide'
p10165
(lp10166
S'mer'
p10167
asS'gentle'
p10168
(lp10169
S'petit'
p10170
asS'cavern'
p10171
(lp10172
S'caverne'
p10173
asS'have'
p10174
(lp10175
S'\xc3\xaatre'
p10176
asS'sporadic'
p10177
(lp10178
S'intermittent'
p10179
asS'need'
p10180
(lp10181
S'difficult\xc3\xa9'
p10182
asS'turn'
p10183
(lp10184
S'pr\xc3\xa9senter'
p10185
asS'apparently'
p10186
(lp10187
S'apparemment'
p10188
asS'clearly'
p10189
(lp10190
S'bien'
p10191
asS'tale'
p10192
(lp10193
S'histoire'
p10194
asS'mountainous'
p10195
(lp10196
S'\xc3\xa9norme'
p10197
asS'angle'
p10198
(lp10199
S'aspect'
p10200
asS'resultant'
p10201
(lp10202
S'r\xc3\xa9sultant'
p10203
asS'agency'
p10204
(lp10205
S'action'
p10206
asS'able'
p10207
(lp10208
S'fort'
p10209
asS'gravity'
p10210
(lp10211
S's\xc3\xa9rieux'
p10212
asS'mechanism'
p10213
(lp10214
S'dispositif'
p10215
asS'outward'
p10216
(lp10217
S'ext\xc3\xa9rieur'
p10218
asS'instance'
p10219
(lp10220
S'cas'
p10221
asS'scree'
p10222
(lp10223
S'\xc3\xa9boulis'
p10224
asS'which'
p10225
(lp10226
S'qui'
p10227
asS'singe'
p10228
(lp10229
S'br\xc3\xbbler'
p10230
asS'truck'
p10231
(lp10232
S'produits'
p10233
asS'detector'
p10234
(lp10235
S'd\xc3\xa9tecteur'
p10236
asS'vegetation'
p10237
(lp10238
S'v\xc3\xa9g\xc3\xa9tation'
p10239
asS'accuracy'
p10240
(lp10241
S'pr\xc3\xa9cision'
p10242
asS'worldwide'
p10243
(lp10244
S'plan\xc3\xa9taire'
p10245
asS'relatively'
p10246
(lp10247
S'relativement'
p10248
asS'clash'
p10249
(lp10250
S'choc'
p10251
asS'centre'
p10252
(lp10253
S'central'
p10254
asS'disgorge'
p10255
(lp10256
S'rendre'
p10257
asS'who'
p10258
(lp10259
S'qui'
p10260
asS'harmful'
p10261
(lp10262
S'n\xc3\xa9faste'
p10263
asS'digestive'
p10264
(lp10265
S'digestif'
p10266
asS'eight'
p10267
(lp10268
S'huit'
p10269
asS'but'
p10270
(lp10271
S'mais'
p10272
asS'device'
p10273
(lp10274
S'moyen'
p10275
asS'thunder'
p10276
(lp10277
S'temp\xc3\xaate'
p10278
asS'segment'
p10279
(lp10280
S'anneau'
p10281
asS'class'
p10282
(lp10283
S'type'
p10284
asS'police'
p10285
(lp10286
S'contr\xc3\xb4ler'
p10287
asS'deny'
p10288
(lp10289
S'rejeter'
p10290
asS'isotopic'
p10291
(lp10292
S'isotope'
p10293
asS'eject'
p10294
(lp10295
S'projeter'
p10296
asS'neighboring'
p10297
(lp10298
S'voisin'
p10299
asS'gather'
p10300
(lp10301
S'former'
p10302
asS'disease'
p10303
(lp10304
S'mal'
p10305
asS'dent'
p10306
(lp10307
S'entailler'
p10308
asS'astonishing'
p10309
(lp10310
S'surprenant'
p10311
asS'south-western'
p10312
(lp10313
S'sud-ouest'
p10314
asS'snapshot'
p10315
(lp10316
S'photo'
p10317
asS'unscramble'
p10318
(lp10319
S'd\xc3\xa9crypter'
p10320
asS'flux'
p10321
(lp10322
S'\xc3\xa9vacuation'
p10323
asS'occasion'
p10324
(lp10325
S'\xc3\xa9v\xc3\xa9nement'
p10326
asS'typical'
p10327
(lp10328
S'type'
p10329
asS'normally'
p10330
(lp10331
S'g\xc3\xa9n\xc3\xa9ralement'
p10332
asS'fact'
p10333
(lp10334
S'\xc3\xa9l\xc3\xa9ment'
p10335
asS'unimpeded'
p10336
(lp10337
S'libre'
p10338
asS'thicken'
p10339
(lp10340
S'lier'
p10341
asS'atmosphere'
p10342
(lp10343
S'atmosph\xc3\xa8re'
p10344
asS'super'
p10345
(lp10346
S'formidable'
p10347
asS'spindly'
p10348
(lp10349
S'gr\xc3\xaale'
p10350
asS'stream'
p10351
(lp10352
S'jet'
p10353
asS'physique'
p10354
(lp10355
S'physique'
p10356
asS'one-off'
p10357
(lp10358
S'exceptionnel'
p10359
asS'bring'
p10360
(lp10361
S'transporter'
p10362
asS'planning'
p10363
(lp10364
S'organisation'
p10365
asS'greenhouse'
p10366
(lp10367
S'serre'
p10368
asS'fear'
p10369
(lp10370
S'risque'
p10371
asS'brink'
p10372
(lp10373
S'bord'
p10374
asS'decade'
p10375
(lp10376
S'dizaine'
p10377
asS'principal'
p10378
(lp10379
S'principal'
p10380
asS'highest'
p10381
(lp10382
S'dernier'
p10383
asS'knowledge'
p10384
(lp10385
S'savoir'
p10386
asS'sparks'
p10387
(lp10388
S'radio'
p10389
asS'incident'
p10390
(lp10391
S'\xc3\xa9pisode'
p10392
asS'operational'
p10393
(lp10394
S'op\xc3\xa9rationnel'
p10395
asS'terminal'
p10396
(lp10397
S'mortel'
p10398
asS'surroundings'
p10399
(lp10400
S'd\xc3\xa9cor'
p10401
asS'score'
p10402
(lp10403
S'titre'
p10404
asS'tape'
p10405
(lp10406
S'enregistrer'
p10407
asS'indeed'
p10408
(lp10409
S'bien'
p10410
asS'employee'
p10411
(lp10412
S'employ\xc3\xa9'
p10413
asS'sulfur'
p10414
(lp10415
S'soufre'
p10416
asS'inhabit'
p10417
(lp10418
S'habiter'
p10419
asS'partially'
p10420
(lp10421
S'partiellement'
p10422
asS'local'
p10423
(lp10424
S'local'
p10425
asS'infernal'
p10426
(lp10427
S'infernal'
p10428
asS'hall'
p10429
(lp10430
S'foyer'
p10431
asS'dodge'
p10432
(lp10433
S'tour'
p10434
asS'insight'
p10435
(lp10436
S'id\xc3\xa9e'
p10437
asS'handle'
p10438
(lp10439
S'avoir'
p10440
asS'exceptional'
p10441
(lp10442
S'rare'
p10443
asS'beat'
p10444
(lp10445
S'temps'
p10446
asS'familiar'
p10447
(lp10448
S'habituel'
p10449
asS'overall'
p10450
(lp10451
S'total'
p10452
asS'rush'
p10453
(lp10454
S'essai'
p10455
asS'bear'
p10456
(lp10457
S'produire'
p10458
asS'beam'
p10459
(lp10460
S'rayon'
p10461
asS'swirl'
p10462
(lp10463
S'volute'
p10464
asS'probably'
p10465
(lp10466
S'probablement'
p10467
asS'spur'
p10468
(lp10469
S'talon'
p10470
asS'routine'
p10471
(lp10472
S'num\xc3\xa9ro'
p10473
asS'gray'
p10474
(lp10475
S'gris'
p10476
asS'evolution'
p10477
(lp10478
S'devenir'
p10479
asS'secret'
p10480
(lp10481
S'secret'
p10482
asS'whether'
p10483
(lp10484
S'que'
p10485
asS'stuff'
p10486
(lp10487
S'mettre'
p10488
asS'gush'
p10489
(lp10490
S'jaillir'
p10491
asS'quaternary'
p10492
(lp10493
S'quatre'
p10494
asS'contain'
p10495
(lp10496
S'contenir'
p10497
asS'grab'
p10498
(lp10499
S'prendre'
p10500
asS'sediment'
p10501
(lp10502
S'boue'
p10503
asS'view'
p10504
(lp10505
S'voir'
p10506
asS'preserve'
p10507
(lp10508
S'observer'
p10509
asS'temporarily'
p10510
(lp10511
S'provisoirement'
p10512
asS'ebb'
p10513
(lp10514
S'descendre'
p10515
asS'expel'
p10516
(lp10517
S'rejeter'
p10518
asS'catastrophic'
p10519
(lp10520
S'catastrophique'
p10521
asS'frame'
p10522
(lp10523
S'construire'
p10524
asS'terrain'
p10525
(lp10526
S'terrain'
p10527
asS'we'
p10528
(lp10529
S'on'
p10530
asS'freeze'
p10531
(lp10532
S'bloquer'
p10533
asS'edition'
p10534
(lp10535
S'\xc3\xa9dition'
p10536
asS'intensity'
p10537
(lp10538
S'violence'
p10539
asS'computer'
p10540
(lp10541
S'ordinateur'
p10542
asS'desperate'
p10543
(lp10544
S'atroce'
p10545
asS'violet'
p10546
(lp10547
S'violet'
p10548
asS'luminous'
p10549
(lp10550
S'lumineux'
p10551
asS'sparsely'
p10552
(lp10553
S'peu'
p10554
asS'unearth'
p10555
(lp10556
S'd\xc3\xa9couvrir'
p10557
asS'reform'
p10558
(lp10559
S'r\xc3\xa9cup\xc3\xa9rer'
p10560
asS'nuclear'
p10561
(lp10562
S'atomique'
p10563
asS'southward'
p10564
(lp10565
S'sud'
p10566
asS'superb'
p10567
(lp10568
S'superbe'
p10569
asS'favor'
p10570
(lp10571
S'gr\xc3\xa2ce'
p10572
asS'state'
p10573
(lp10574
S'donner'
p10575
asS'geochemistry'
p10576
(lp10577
S'g\xc3\xa9ochimie'
p10578
asS'identification'
p10579
(lp10580
S'association'
p10581
asS'horrible'
p10582
(lp10583
S'terrible'
p10584
asS'crude'
p10585
(lp10586
S'huile'
p10587
asS'progress'
p10588
(lp10589
S'aller'
p10590
asS'boundary'
p10591
(lp10592
S'fronti\xc3\xa8re'
p10593
asS'tent'
p10594
(lp10595
S'tente'
p10596
asS'perfect'
p10597
(lp10598
S'v\xc3\xa9ritable'
p10599
asS'comparable'
p10600
(lp10601
S'comparable'
p10602
asS'sole'
p10603
(lp10604
S'seul'
p10605
asS'explosive'
p10606
(lp10607
S'volcanique'
p10608
asS'ability'
p10609
(lp10610
S'pouvoir'
p10611
asS'opening'
p10612
(lp10613
S'd\xc3\xa9but'
p10614
asS'importance'
p10615
(lp10616
S'importance'
p10617
asS'joy'
p10618
(lp10619
S'aise'
p10620
asS'grumble'
p10621
(lp10622
S'gronder'
p10623
asS'deliver'
p10624
(lp10625
S'expulser'
p10626
asS'prediction'
p10627
(lp10628
S'pr\xc3\xa9vision'
p10629
asS'willing'
p10630
(lp10631
S'volontaire'
p10632
asS'job'
p10633
(lp10634
S'activit\xc3\xa9'
p10635
asS'hypothesis'
p10636
(lp10637
S'hypoth\xc3\xa8se'
p10638
asS'no'
p10639
(lp10640
S'peu'
p10641
asS'key'
p10642
(lp10643
S'l\xc3\xa9gende'
p10644
asS'group'
p10645
(lp10646
S'bloc'
p10647
asS'problem'
p10648
(lp10649
S'difficile'
p10650
asS'memento'
p10651
(lp10652
S'souvenir'
p10653
asS'inlet'
p10654
(lp10655
S'prise'
p10656
asS'observable'
p10657
(lp10658
S'visible'
p10659
asS'planned'
p10660
(lp10661
S'pr\xc3\xa9vu'
p10662
asS'instant'
p10663
(lp10664
S'moment'
p10665
asS'sniff'
p10666
(lp10667
S'aspirer'
p10668
asS'diligent'
p10669
(lp10670
S'minutieux'
p10671
asS'freely'
p10672
(lp10673
S'abondamment'
p10674
asS'rhyolite'
p10675
(lp10676
S'rhyolite'
p10677
asS'la'
p10678
(lp10679
S'la'
p10680
asS'equal'
p10681
(lp10682
S'\xc3\xa9gal'
p10683
asS'assure'
p10684
(lp10685
S'assurer'
p10686
asS'admit'
p10687
(lp10688
S'contenir'
p10689
asS'succeed'
p10690
(lp10691
S'suivre'
p10692
asS'grain'
p10693
(lp10694
S'fil'
p10695
asS'section'
p10696
(lp10697
S'partie'
p10698
asS'cinder'
p10699
(lp10700
S'cendre'
p10701
asS'highland'
p10702
(lp10703
S'montagnard'
p10704
asS'safely'
p10705
(lp10706
S'bien'
p10707
asS'jersey'
p10708
(lp10709
S'maillot'
p10710
asS'strongly'
p10711
(lp10712
S'profond\xc3\xa9ment'
p10713
asS'unclear'
p10714
(lp10715
S'trouble'
p10716
asS'author'
p10717
(lp10718
S'auteur'
p10719
asS'cm'
p10720
(lp10721
S'cm'
p10722
asS'conclude'
p10723
(lp10724
S'finir'
p10725
asS'wall'
p10726
(lp10727
S'flanc'
p10728
asS'vicinity'
p10729
(lp10730
S'proximit\xc3\xa9'
p10731
asS'invisible'
p10732
(lp10733
S'invisible'
p10734
asS'news'
p10735
(lp10736
S'nouvelle'
p10737
asS'respect'
p10738
(lp10739
S'estimer'
p10740
asS'crystalline'
p10741
(lp10742
S'cristallin'
p10743
asS'strand'
p10744
(lp10745
S'fil'
p10746
asS'inhale'
p10747
(lp10748
S'aspirer'
p10749
asS'tread'
p10750
(lp10751
S'pas'
p10752
asS'second'
p10753
(lp10754
S'deux'
p10755
asS'addition'
p10756
(lp10757
S'augmentation'
p10758
asS'muddy'
p10759
(lp10760
S'boueux'
p10761
asS'cent'
p10762
(lp10763
S'cent'
p10764
asS'immense'
p10765
(lp10766
S'\xc3\xa9norme'
p10767
asS'genetic'
p10768
(lp10769
S'g\xc3\xa9n\xc3\xa9tique'
p10770
asS'gaze'
p10771
(lp10772
S'regarder'
p10773
asS'hellish'
p10774
(lp10775
S'\xc3\xa9pouvantable'
p10776
asS'treat'
p10777
(lp10778
S'sortie'
p10779
asS'recognize'
p10780
(lp10781
S'retrouver'
p10782
asS'curtain'
p10783
(lp10784
S'voile'
p10785
asS'proposal'
p10786
(lp10787
S'plan'
p10788
asS'waste'
p10789
(lp10790
S'perdre'
p10791
asS'anomaly'
p10792
(lp10793
S'anomalie'
p10794
asS'define'
p10795
(lp10796
S'd\xc3\xa9gager'
p10797
asS'circus'
p10798
(lp10799
S'cirque'
p10800
asS'diversity'
p10801
(lp10802
S'vari\xc3\xa9t\xc3\xa9'
p10803
asS'route'
p10804
(lp10805
S'passage'
p10806
asS'sufficient'
p10807
(lp10808
S'suffisant'
p10809
asS'climate'
p10810
(lp10811
S'climat'
p10812
asS'bulk'
p10813
(lp10814
S'estimer'
p10815
asS'orange'
p10816
(lp10817
S'orange'
p10818
asS'pacific'
p10819
(lp10820
S'pacifique'
p10821
asS'resort'
p10822
(lp10823
S'station'
p10824
asS'last'
p10825
(lp10826
S'dernier'
p10827
asS'an'
p10828
(lp10829
S'un'
p10830
asS'painter'
p10831
(lp10832
S'peintre'
p10833
asS'novel'
p10834
(lp10835
S'nouveau'
p10836
asS'atmospheric'
p10837
(lp10838
S'atmosph\xc3\xa9rique'
p10839
asS'unlike'
p10840
(lp10841
S'diff\xc3\xa9rent'
p10842
asS'plain'
p10843
(lp10844
S'nature'
p10845
asS'runway'
p10846
(lp10847
S'piste'
p10848
asS'ejection'
p10849
(lp10850
S'projection'
p10851
asS'appearance'
p10852
(lp10853
S'manifestation'
p10854
asS'as'
p10855
(lp10856
S'pour'
p10857
asS'promoter'
p10858
(lp10859
S'agent'
p10860
asS'specifically'
p10861
(lp10862
S'particuli\xc3\xa8rement'
p10863
asS'harden'
p10864
(lp10865
S'durcir'
p10866
asS'stunning'
p10867
(lp10868
S'superbe'
p10869
asS'fault'
p10870
(lp10871
S'faille'
p10872
asS'wild'
p10873
(lp10874
S'violent'
p10875
asS'frustrating'
p10876
(lp10877
S'irritant'
p10878
asS'solidification'
p10879
(lp10880
S'solidification'
p10881
asS'layer'
p10882
(lp10883
S'couche'
p10884
asS'uncertainty'
p10885
(lp10886
S'doute'
p10887
asS'tar'
p10888
(lp10889
S'goudron'
p10890
asS'eastward'
p10891
(lp10892
S'est'
p10893
asS'chaotic'
p10894
(lp10895
S'chaotique'
p10896
asS'intangible'
p10897
(lp10898
S'impalpable'
p10899
asS'coating'
p10900
(lp10901
S'couche'
p10902
asS'site'
p10903
(lp10904
S'situer'
p10905
asS'surface'
p10906
(lp10907
S'surface'
p10908
asS'wife'
p10909
(lp10910
S'dame'
p10911
asS'optimistic'
p10912
(lp10913
S'optimiste'
p10914
asS'lightweight'
p10915
(lp10916
S'l\xc3\xa9ger'
p10917
asS'vital'
p10918
(lp10919
S'essentiel'
p10920
asS'convection'
p10921
(lp10922
S'convection'
p10923
asS'thud'
p10924
(lp10925
S'choc'
p10926
asS'conical'
p10927
(lp10928
S'conique'
p10929
asS'volcanism'
p10930
(lp10931
S'volcanisme'
p10932
asS'portray'
p10933
(lp10934
S'repr\xc3\xa9senter'
p10935
asS'capture'
p10936
(lp10937
S'prendre'
p10938
asS'perhaps'
p10939
(lp10940
S'peut-\xc3\xaatre'
p10941
asS'goddess'
p10942
(lp10943
S'd\xc3\xa9esse'
p10944
asS'calamitous'
p10945
(lp10946
S'catastrophique'
p10947
asS'fling'
p10948
(lp10949
S'lancer'
p10950
asS'radiation'
p10951
(lp10952
S'rayonnement'
p10953
asS'cross'
p10954
(lp10955
S'passer'
p10956
asS'bishop'
p10957
(lp10958
S'fou'
p10959
asS'member'
p10960
(lp10961
S'membre'
p10962
asS'adverse'
p10963
(lp10964
S'contraire'
p10965
asS'strange'
p10966
(lp10967
S'particulier'
p10968
asS'painstaking'
p10969
(lp10970
S's\xc3\xa9rieux'
p10971
asS'casualty'
p10972
(lp10973
S'victime'
p10974
asS'dam'
p10975
(lp10976
S'r\xc3\xa9servoir'
p10977
asS'shuttle'
p10978
(lp10979
S'navette'
p10980
asS'outbreak'
p10981
(lp10982
S'\xc3\xa9ruption'
p10983
asS'cream'
p10984
(lp10985
S'p\xc3\xa2te'
p10986
asS'solution'
p10987
(lp10988
S'solution'
p10989
asS'grandeur'
p10990
(lp10991
S'grandeur'
p10992
asS'difficult'
p10993
(lp10994
S'difficile'
p10995
asS'conflicting'
p10996
(lp10997
S'contraire'
p10998
asS'unimaginable'
p10999
(lp11000
S'inimaginable'
p11001
asS'ball'
p11002
(lp11003
S'boule'
p11004
asS'cubic'
p11005
(lp11006
S'cube'
p11007
asS'absorb'
p11008
(lp11009
S'absorber'
p11010
asS'drink'
p11011
(lp11012
S'prendre'
p11013
asS'upon'
p11014
(lp11015
S'sur'
p11016
asS'effect'
p11017
(lp11018
S'effet'
p11019
asS'beast'
p11020
(lp11021
S'vache'
p11022
asS'tsunami'
p11023
(lp11024
S'tsunami'
p11025
asS'student'
p11026
(lp11027
S'\xc3\xa9l\xc3\xa8ve'
p11028
asS'fierce'
p11029
(lp11030
S'ardent'
p11031
asS'frequently'
p11032
(lp11033
S'souvent'
p11034
asS'vapour'
p11035
(lp11036
S'vapeur'
p11037
asS'judgment'
p11038
(lp11039
S'avis'
p11040
asS'lobby'
p11041
(lp11042
S'foyer'
p11043
asS'expand'
p11044
(lp11045
S'augmenter'
p11046
asS'destruction'
p11047
(lp11048
S'destruction'
p11049
asS'insure'
p11050
(lp11051
S'assurer'
p11052
asS'rift'
p11053
(lp11054
S'fissure'
p11055
asS'argue'
p11056
(lp11057
S't\xc3\xa9moigner'
p11058
asS'off'
p11059
(lp11060
S'tuer'
p11061
asS'center'
p11062
(lp11063
S'central'
p11064
asS'fully'
p11065
(lp11066
S'bien'
p11067
asS'nevertheless'
p11068
(lp11069
S'cependant'
p11070
asS'colour'
p11071
(lp11072
S'couleur'
p11073
asS'incredible'
p11074
(lp11075
S'formidable'
p11076
asS'well'
p11077
(lp11078
S'bien'
p11079
asS'thought'
p11080
(lp11081
S'penser'
p11082
asS'position'
p11083
(lp11084
S'situer'
p11085
asS'muscle'
p11086
(lp11087
S'impact'
p11088
asS'drawing'
p11089
(lp11090
S'\xc3\xa9mission'
p11091
asS'usual'
p11092
(lp11093
S'classique'
p11094
asS'reside'
p11095
(lp11096
S'r\xc3\xa9sider'
p11097
asS'excessive'
p11098
(lp11099
S'excessif'
p11100
asS'heavily'
p11101
(lp11102
S'tr\xc3\xa8s'
p11103
asS'accurate'
p11104
(lp11105
S'bon'
p11106
asS'domestic'
p11107
(lp11108
S'int\xc3\xa9rieur'
p11109
asS'necessitate'
p11110
(lp11111
S'n\xc3\xa9cessiter'
p11112
asS'storey'
p11113
(lp11114
S'\xc3\xa9tage'
p11115
asS'gun'
p11116
(lp11117
S'feu'
p11118
asS'distant'
p11119
(lp11120
S'froid'
p11121
asS'localize'
p11122
(lp11123
S'localiser'
p11124
asS'skill'
p11125
(lp11126
S'technique'
p11127
asS'glue'
p11128
(lp11129
S'coller'
p11130
asS'low-level'
p11131
(lp11132
S'bas'
p11133
asS'distress'
p11134
(lp11135
S'peiner'
p11136
asS'web'
p11137
(lp11138
S'tissu'
p11139
asS'disturbance'
p11140
(lp11141
S'perturbation'
p11142
asS'wee'
p11143
(lp11144
S'petit'
p11145
asS'density'
p11146
(lp11147
S'\xc3\xa9paisseur'
p11148
asS'absorption'
p11149
(lp11150
S'concentration'
p11151
asS'supply'
p11152
(lp11153
S'apporter'
p11154
asS'sky'
p11155
(lp11156
S'ciel'
p11157
asS'lake'
p11158
(lp11159
S'lac'
p11160
asS'bench'
p11161
(lp11162
S'si\xc3\xa8ge'
p11163
asS'pall'
p11164
(lp11165
S'manteau'
p11166
asS'simple'
p11167
(lp11168
S'facile'
p11169
asS'add'
p11170
(lp11171
S'donner'
p11172
asS'other'
p11173
(lp11174
S'autre'
p11175
asS'combine'
p11176
(lp11177
S'fondre'
p11178
asS'attractive'
p11179
(lp11180
S'int\xc3\xa9ressant'
p11181
asS'stimulate'
p11182
(lp11183
S'exciter'
p11184
asS'crack'
p11185
(lp11186
S'fissure'
p11187
asS'strive'
p11188
(lp11189
S'lutter'
p11190
asS'ski'
p11191
(lp11192
S'skier'
p11193
asS'vain'
p11194
(lp11195
S'vide'
p11196
asS'kick'
p11197
(lp11198
S'ruer'
p11199
asS'identical'
p11200
(lp11201
S'm\xc3\xaame'
p11202
asS'radiocarbon'
p11203
(lp11204
S'carbone'
p11205
asS'definitive'
p11206
(lp11207
S'd\xc3\xa9finitif'
p11208
asS'fate'
p11209
(lp11210
S'sort'
p11211
asS'government'
p11212
(lp11213
S'direction'
p11214
asS'sweep'
p11215
(lp11216
S'champ'
p11217
asS'haul'
p11218
(lp11219
S'tirer'
p11220
asS'historic'
p11221
(lp11222
S'historique'
p11223
asS'five'
p11224
(lp11225
S'cinq'
p11226
asS'harbour'
p11227
(lp11228
S'port'
p11229
asS'press'
p11230
(lp11231
S'pression'
p11232
asS'immediately'
p11233
(lp11234
S'directement'
p11235
asS'pier'
p11236
(lp11237
S'colonne'
p11238
asS'prominent'
p11239
(lp11240
S'important'
p11241
asS'loss'
p11242
(lp11243
S'chute'
p11244
asS'necessary'
p11245
(lp11246
S'n\xc3\xa9cessaire'
p11247
asS'helpful'
p11248
(lp11249
S'efficace'
p11250
asS'success'
p11251
(lp11252
S'succ\xc3\xa8s'
p11253
asS'bulge'
p11254
(lp11255
S'gonflement'
p11256
asS'alternatively'
p11257
(lp11258
S'sinon'
p11259
asS'ring'
p11260
(lp11261
S'son'
p11262
asS'testimony'
p11263
(lp11264
S't\xc3\xa9moin'
p11265
asS'ozone'
p11266
(lp11267
S'ozone'
p11268
asS'journalist'
p11269
(lp11270
S'journaliste'
p11271
asS'lose'
p11272
(lp11273
S'perdre'
p11274
asS'become'
p11275
(lp11276
S'devenir'
p11277
asS'sloping'
p11278
(lp11279
S'tombant'
p11280
asS'pasty'
p11281
(lp11282
S'p\xc3\xa2teux'
p11283
asS'page'
p11284
(lp11285
S'page'
p11286
asS'incandescent'
p11287
(lp11288
S'incandescent'
p11289
asS'accessible'
p11290
(lp11291
S'accessible'
p11292
asS'poor'
p11293
(lp11294
S'pauvre'
p11295
asS'exceed'
p11296
(lp11297
S'd\xc3\xa9passer'
p11298
asS'because'
p11299
(lp11300
S'car'
p11301
asS'school'
p11302
(lp11303
S'dresser'
p11304
asS'propel'
p11305
(lp11306
S'propulser'
p11307
asS'sequence'
p11308
(lp11309
S'suite'
p11310
asS'church'
p11311
(lp11312
S'\xc3\xa9glise'
p11313
asS'alive'
p11314
(lp11315
S'actif'
p11316
asS'hair'
p11317
(lp11318
S't\xc3\xaate'
p11319
asS'daylight'
p11320
(lp11321
S'jour'
p11322
asS'growth'
p11323
(lp11324
S'croissance'
p11325
asS'worthy'
p11326
(lp11327
S'digne'
p11328
asS'proper'
p11329
(lp11330
S'tr\xc3\xa8s'
p11331
asS'home'
p11332
(lp11333
S'int\xc3\xa9rieur'
p11334
asS'empire'
p11335
(lp11336
S'empire'
p11337
asS'peter'
p11338
(lp11339
S'robinet'
p11340
asS'employment'
p11341
(lp11342
S'place'
p11343
asS'transport'
p11344
(lp11345
S'transporter'
p11346
asS'bulbous'
p11347
(lp11348
S'gros'
p11349
asS'pinpoint'
p11350
(lp11351
S'd\xc3\xa9finir'
p11352
asS'lead'
p11353
(lp11354
S'donner'
p11355
asS'overlay'
p11356
(lp11357
S'recouvrir'
p11358
asS'broad'
p11359
(lp11360
S'fort'
p11361
asS'avoid'
p11362
(lp11363
S'\xc3\xa9viter'
p11364
asS'hurricane'
p11365
(lp11366
S'ouragan'
p11367
asS'overlap'
p11368
(lp11369
S'chevauchement'
p11370
asS'instantaneous'
p11371
(lp11372
S'instantan\xc3\xa9'
p11373
asS'sustain'
p11374
(lp11375
S'poursuivre'
p11376
asS'passion'
p11377
(lp11378
S'col\xc3\xa8re'
p11379
asS'percolate'
p11380
(lp11381
S'passer'
p11382
asS'glacial'
p11383
(lp11384
S'glaciaire'
p11385
asS'leader'
p11386
(lp11387
S'premier'
p11388
asS'trap'
p11389
(lp11390
S'emprisonner'
p11391
asS'hinder'
p11392
(lp11393
S'arr\xc3\xaater'
p11394
asS'islander'
p11395
(lp11396
S'insulaire'
p11397
asS'noise'
p11398
(lp11399
S'son'
p11400
asS'proud'
p11401
(lp11402
S'imposant'
p11403
asS'slight'
p11404
(lp11405
S'petit'
p11406
asS'journal'
p11407
(lp11408
S'revue'
p11409
asS'expansion'
p11410
(lp11411
S'augmentation'
p11412
asS'pressure'
p11413
(lp11414
S'pression'
p11415
asS'host'
p11416
(lp11417
S'nu\xc3\xa9e'
p11418
asS'tint'
p11419
(lp11420
S'couleur'
p11421
asS'variation'
p11422
(lp11423
S'variation'
p11424
asS'although'
p11425
(lp11426
S'mais'
p11427
asS'offset'
p11428
(lp11429
S'compenser'
p11430
asS'imaginary'
p11431
(lp11432
S'fictif'
p11433
asS'stay'
p11434
(lp11435
S'rester'
p11436
asS'well-informed'
p11437
(lp11438
S'pointu'
p11439
asS'refuge'
p11440
(lp11441
S'abri'
p11442
asS'noisy'
p11443
(lp11444
S'bruyant'
p11445
asS'about'
p11446
(lp11447
S'sur'
p11448
asS'actual'
p11449
(lp11450
S'm\xc3\xaame'
p11451
asS'recur'
p11452
(lp11453
S'revenir'
p11454
asS'extension'
p11455
(lp11456
S'augmentation'
p11457
asS'linger'
p11458
(lp11459
S'subsister'
p11460
asS'column'
p11461
(lp11462
S'colonne'
p11463
asS'universe'
p11464
(lp11465
S'univers'
p11466
asS'certainty'
p11467
(lp11468
S'certitude'
p11469
asS'mobilization'
p11470
(lp11471
S'mobilisation'
p11472
asS'flake'
p11473
(lp11474
S'peler'
p11475
asS'surge'
p11476
(lp11477
S'mar\xc3\xa9e'
p11478
asS'dependency'
p11479
(lp11480
S'colonie'
p11481
asS'tongue'
p11482
(lp11483
S'bande'
p11484
asS'upward'
p11485
(lp11486
S'montant'
p11487
asS'damp'
p11488
(lp11489
S'couvrir'
p11490
asS'revise'
p11491
(lp11492
S'modifier'
p11493
asS'equally'
p11494
(lp11495
S'\xc3\xa9galement'
p11496
asS'own'
p11497
(lp11498
S'tomber'
p11499
asS'letters'
p11500
(lp11501
S'courrier'
p11502
asS'owe'
p11503
(lp11504
S'devoir'
p11505
asS'tight'
p11506
(lp11507
S'bien'
p11508
asS'three'
p11509
(lp11510
S'trois'
p11511
asS'assess'
p11512
(lp11513
S'estimer'
p11514
asS'chronic'
p11515
(lp11516
S'nul'
p11517
asS'guard'
p11518
(lp11519
S'surveillance'
p11520
asS'square'
p11521
(lp11522
S'place'
p11523
asS'lung'
p11524
(lp11525
S'poumon'
p11526
asS'national'
p11527
(lp11528
S'national'
p11529
asS'unproductive'
p11530
(lp11531
S'st\xc3\xa9rile'
p11532
asS'mere'
p11533
(lp11534
S'lac'
p11535
asS'maize'
p11536
(lp11537
S'ma\xc3\xafs'
p11538
asS'ridge'
p11539
(lp11540
S'cha\xc3\xaene'
p11541
asS'additional'
p11542
(lp11543
S'suppl\xc3\xa9mentaire'
p11544
asS'commission'
p11545
(lp11546
S'pouvoir'
p11547
asS'noxious'
p11548
(lp11549
S'nocif'
p11550
asS'crystallization'
p11551
(lp11552
S'cristallisation'
p11553
asS'housing'
p11554
(lp11555
S'habitat'
p11556
asS'support'
p11557
(lp11558
S'porter'
p11559
asS'firefighter'
p11560
(lp11561
S'pompier'
p11562
asS'condense'
p11563
(lp11564
S'concentrer'
p11565
asS'imperial'
p11566
(lp11567
S'grandiose'
p11568
asS'continental'
p11569
(lp11570
S'continental'
p11571
asS'solidify'
p11572
(lp11573
S'solidifier'
p11574
asS'inner'
p11575
(lp11576
S'profond'
p11577
asS'cliff'
p11578
(lp11579
S'falaise'
p11580
asS'resound'
p11581
(lp11582
S'retentir'
p11583
asS'naturally'
p11584
(lp11585
S'naturellement'
p11586
asS'function'
p11587
(lp11588
S'r\xc3\xa9union'
p11589
asS'building'
p11590
(lp11591
S'\xc3\xa9difice'
p11592
asS'funnel'
p11593
(lp11594
S'chemin\xc3\xa9e'
p11595
asS'buy'
p11596
(lp11597
S'prendre'
p11598
asS'north'
p11599
(lp11600
S'nord'
p11601
asS'persistent'
p11602
(lp11603
S'incessant'
p11604
asS'hazardous'
p11605
(lp11606
S'dangereux'
p11607
asS'evacuate'
p11608
(lp11609
S'\xc3\xa9vacuer'
p11610
asS'volume'
p11611
(lp11612
S'volume'
p11613
asS'construction'
p11614
(lp11615
S'construction'
p11616
asS'gain'
p11617
(lp11618
S'atteindre'
p11619
asS'threaten'
p11620
(lp11621
S'menacer'
p11622
asS'remote'
p11623
(lp11624
S'petit'
p11625
asS'overflow'
p11626
(lp11627
S'd\xc3\xa9border'
p11628
asS'ear'
p11629
(lp11630
S'feuille'
p11631
asS'eat'
p11632
(lp11633
S'manger'
p11634
asS'witness'
p11635
(lp11636
S'voir'
p11637
asS'he'
p11638
(lp11639
S'il'
p11640
asS'count'
p11641
(lp11642
S'estimer'
p11643
asS'constitute'
p11644
(lp11645
S'faire'
p11646
asS'fragmentation'
p11647
(lp11648
S'fragmentation'
p11649
asS'evident'
p11650
(lp11651
S'\xc3\xa9vident'
p11652
asS'whitish'
p11653
(lp11654
S'blanch\xc3\xa2tre'
p11655
asS'vigor'
p11656
(lp11657
S'\xc3\xa9nergie'
p11658
asS'dangerous'
p11659
(lp11660
S'dangereux'
p11661
asS'official'
p11662
(lp11663
S'responsable'
p11664
asS'smooth'
p11665
(lp11666
S'doux'
p11667
asS'roam'
p11668
(lp11669
S'courir'
p11670
asS'excitement'
p11671
(lp11672
S'agitation'
p11673
asS'record'
p11674
(lp11675
S'minute'
p11676
asS'below'
p11677
(lp11678
S'sous'
p11679
asS'convince'
p11680
(lp11681
S'd\xc3\xa9cider'
p11682
asS'limit'
p11683
(lp11684
S'mesurer'
p11685
asS'cake'
p11686
(lp11687
S'durcir'
p11688
asS'demonstrate'
p11689
(lp11690
S'expliquer'
p11691
asS'distribution'
p11692
(lp11693
S'distribution'
p11694
asS'piece'
p11695
(lp11696
S'vers'
p11697
asS'display'
p11698
(lp11699
S'montrer'
p11700
asS'bearing'
p11701
(lp11702
S'port'
p11703
asS'unusual'
p11704
(lp11705
S'exceptionnel'
p11706
asS'devise'
p11707
(lp11708
S'\xc3\xa9tudier'
p11709
asS'mask'
p11710
(lp11711
S'recouvrir'
p11712
asS'contribute'
p11713
(lp11714
S'contribuer'
p11715
asS'denote'
p11716
(lp11717
S'repr\xc3\xa9senter'
p11718
asS'twist'
p11719
(lp11720
S'avoir'
p11721
asS'replica'
p11722
(lp11723
S'double'
p11724
asS'well-defined'
p11725
(lp11726
S'pr\xc3\xa9cis'
p11727
asS'partly'
p11728
(lp11729
S'partiellement'
p11730
asS'geochemist'
p11731
(lp11732
S'g\xc3\xa9ochimiste'
p11733
asS'pit'
p11734
(lp11735
S'crat\xc3\xa8re'
p11736
asS'zaire'
p11737
(lp11738
S'za\xc3\xafre'
p11739
asS'worse'
p11740
(lp11741
S'pire'
p11742
asS'loft'
p11743
(lp11744
S'galerie'
p11745
asS'renowned'
p11746
(lp11747
S'c\xc3\xa9l\xc3\xa8bre'
p11748
asS'spit'
p11749
(lp11750
S'cracher'
p11751
asS'contest'
p11752
(lp11753
S'attaquer'
p11754
asS'deadly'
p11755
(lp11756
S'meurtrier'
p11757
asS'detail'
p11758
(lp11759
S'd\xc3\xa9signer'
p11760
asS'book'
p11761
(lp11762
S'prendre'
p11763
asS'boom'
p11764
(lp11765
S'exploser'
p11766
asS'ledge'
p11767
(lp11768
S'rebord'
p11769
asS'granite'
p11770
(lp11771
S'granite'
p11772
asS'wing'
p11773
(lp11774
S'voler'
p11775
asS'conclusion'
p11776
(lp11777
S'fin'
p11778
asS'quartz'
p11779
(lp11780
S'quartz'
p11781
asS'star'
p11782
(lp11783
S'astre'
p11784
asS'lubricate'
p11785
(lp11786
S'faciliter'
p11787
asS'frustrate'
p11788
(lp11789
S'contrarier'
p11790
asS'chance'
p11791
(lp11792
S'possibilit\xc3\xa9'
p11793
asS'squeak'
p11794
(lp11795
S'crisser'
p11796
asS'seismic'
p11797
(lp11798
S'sismique'
p11799
asS'hemisphere'
p11800
(lp11801
S'h\xc3\xa9misph\xc3\xa8re'
p11802
asS'vein'
p11803
(lp11804
S'filon'
p11805
asS'exposure'
p11806
(lp11807
S'vue'
p11808
asS'ghost'
p11809
(lp11810
S'fant\xc3\xb4me'
p11811
asS'droplet'
p11812
(lp11813
S'gouttelette'
p11814
asS'jewel'
p11815
(lp11816
S'tr\xc3\xa9sor'
p11817
asS'extraction'
p11818
(lp11819
S'origine'
p11820
asS'rule'
p11821
(lp11822
S'm\xc3\xa8tre'
p11823
asS'original'
p11824
(lp11825
S'premier'
p11826
asS'hiker'
p11827
(lp11828
S'randonneur'
p11829
asS'inset'
p11830
(lp11831
S'ins\xc3\xa9rer'
p11832
asS'write'
p11833
(lp11834
S'faire'
p11835
asS'northerly'
p11836
(lp11837
S'nord'
p11838
asS'determination'
p11839
(lp11840
S'd\xc3\xa9termination'
p11841
asS'silica'
p11842
(lp11843
S'silice'
p11844
asS'indirectly'
p11845
(lp11846
S'indirectement'
p11847
as.