(lp0
(((S'NAM'
p1
S'cendres'
p2
tp3
(S'NOM'
p4
S'scorie'
p5
tp6
tp7
F13.282803057800471
tp8
a(((S'NOM'
p9
S'monceau'
p10
tp11
(S'NOM'
p12
S'scorie'
p13
tp14
tp15
F10.524573080357586
tp16
a(((S'NOM'
p17
S'basalte'
p18
tp19
(S'NOM'
p20
S'mesa'
p21
tp22
tp23
F9.552790950561146
tp24
a(((S'NOM'
p25
S'basalte'
p26
tp27
(S'NOM'
p28
S'noi'
p29
tp30
tp31
F9.552790950561146
tp32
a(((S'NOM'
p33
S'basalte'
p34
tp35
(S'NAM'
p36
S'antrim'
p37
tp38
tp39
F9.552790950561146
tp40
a(((S'NOM'
p41
S'nappage'
p42
tp43
(S'NOM'
p44
S'basalte'
p45
tp46
tp47
F9.552376797218347
tp48
a(((S'NAM'
p49
S'scorie'
p50
tp51
(S'NAM'
p52
S'sill'
p53
tp54
tp55
F8.554964492269386
tp56
a(((S'NAM'
p57
S'fuji-san'
p58
tp59
(S'NOM'
p60
S'c\xc3\xb4ne'
p61
tp62
tp63
F7.4882069247602
tp64
a(((S'NAM'
p65
S'vi.19'
p66
tp67
(S'NOM'
p68
S'c\xc3\xb4ne'
p69
tp70
tp71
F7.4882069247602
tp72
a(((S'VER:infi'
p73
S'd\xc3\xa9sagr\xc3\xa9ger'
p74
tp75
(S'NOM'
p76
S'd\xc3\xa9bris'
p77
tp78
tp79
F7.397489043021853
tp80
a(((S'NOM'
p81
S'basalte'
p82
tp83
(S'NOM'
p84
S'\xc3\xa9clatement'
p85
tp86
tp87
F6.681604868589469
tp88
a(((S'NOM'
p89
S'arabesque'
p90
tp91
(S'NOM'
p92
S'basalte'
p93
tp94
tp95
F6.680927473890907
tp96
a(((S'NOM'
p97
S'promontoire'
p98
tp99
(S'NOM'
p100
S'basalte'
p101
tp102
tp103
F6.680927473890907
tp104
a(((S'NOM'
p105
S'scorie'
p106
tp107
(S'NOM'
p108
S'vidange'
p109
tp110
tp111
F6.567063300956823
tp112
a(((S'NOM'
p113
S'gravier'
p114
tp115
(S'NOM'
p116
S'basalte'
p117
tp118
tp119
F6.533681602148464
tp120
a(((S'NOM'
p121
S'd\xc3\xa9bris'
p122
tp123
(S'NOM'
p124
S'\xc3\xa9peron'
p125
tp126
tp127
F6.368359664397695
tp128
a(((S'NAM'
p129
S'singapour'
p130
tp131
(S'NOM'
p132
S'd\xc3\xa9bris'
p133
tp134
tp135
F6.367966860845406
tp136
a(((S'NOM'
p137
S'barrage'
p138
tp139
(S'NOM'
p140
S'scorie'
p141
tp142
tp143
F6.248331495000271
tp144
a(((S'NOM'
p145
S'tas'
p146
tp147
(S'NOM'
p148
S'scorie'
p149
tp150
tp151
F5.499499098125205
tp152
a(((S'NOM'
p153
S'c\xc3\xb4ne de cendre'
p154
tp155
(S'NOM'
p156
S'scorie'
p157
tp158
tp159
F5.499499098125205
tp160
a(((S'NOM'
p161
S'scorie'
p162
tp163
(S'NOM'
p164
S'fragment'
p165
tp166
tp167
F5.407030533763714
tp168
a(((S'NOM'
p169
S'basalte'
p170
tp171
(S'NAM'
p172
S'coirons'
p173
tp174
tp175
F5.395702480303562
tp176
a(((S'NOM'
p177
S'basalte'
p178
tp179
(S'NOM'
p180
S'p\xc3\xa9rennit\xc3\xa9'
p181
tp182
tp183
F5.395702480303562
tp184
a(((S'NOM'
p185
S'granule'
p186
tp187
(S'NOM'
p188
S'basalte'
p189
tp190
tp191
F5.394841564441321
tp192
a(((S'NOM'
p193
S'm\xc3\xa9sostase'
p194
tp195
(S'NOM'
p196
S'basalte'
p197
tp198
tp199
F5.394841564441321
tp200
a(((S'NOM'
p201
S'crat\xc3\xa8re'
p202
tp203
(S'NAM'
p204
S'viti'
p205
tp206
tp207
F5.164676509898532
tp208
a(((S'NOM'
p209
S'd\xc3\xa9bris'
p210
tp211
(S'NOM'
p212
S'roche'
p213
tp214
tp215
F5.10324146177861
tp216
a(((S'NOM'
p217
S'moraine'
p218
tp219
(S'NOM'
p220
S'scorie'
p221
tp222
tp223
F4.80561071110574
tp224
a(((S'NOM'
p225
S'crat\xc3\xa8re'
p226
tp227
(S'NOM'
p228
S'etang'
p229
tp230
tp231
F4.802529396270071
tp232
a(((S'NOM'
p233
S'bombe'
p234
tp235
(S'NOM'
p236
S'scorie'
p237
tp238
tp239
F4.75253260602132
tp240
a(((S'NOM'
p241
S'crat\xc3\xa8re'
p242
tp243
(S'NAM'
p244
S'kelud'
p245
tp246
tp247
F4.6706534321323
tp248
a(((S'NAM'
p249
S'lemptegy'
p250
tp251
(S'NAM'
p252
S'basalte'
p253
tp254
tp255
F4.620010566992964
tp256
a(((S'NOM'
p257
S'crat\xc3\xa8re'
p258
tp259
(S'NAM'
p260
S'bromo'
p261
tp262
tp263
F4.263994820032499
tp264
a(((S'NAM'
p265
S'fugendake'
p266
tp267
(S'NOM'
p268
S'c\xc3\xb4ne'
p269
tp270
tp271
F4.170466764040007
tp272
a((g118
(S'NOM'
p273
S'rhyolite'
p274
tp275
tp276
F4.112280504281388
tp277
a(((S'NOM'
p278
S'amas'
p279
tp280
(S'NOM'
p281
S'scorie'
p282
tp283
tp284
F4.103984665915398
tp285
a(((S'NOM'
p286
S'basalte'
p287
tp288
(S'NOM'
p289
S'phonolite'
p290
tp291
tp292
F4.0868292805039905
tp293
a(((S'NAM'
p294
S'arte'
p295
tp296
(S'NAM'
p297
S'basalte'
p298
tp299
tp300
F4.085699840749131
tp301
a(((S'NAM'
p302
S'nuova'
p303
tp304
(S'NOM'
p305
S'crat\xc3\xa8re'
p306
tp307
tp308
F4.05655395770422
tp309
a(((S'NOM'
p310
S'crat\xc3\xa8re'
p311
tp312
(S'NAM'
p313
S'nyiragongo'
p314
tp315
tp316
F3.942723416917475
tp317
a(((S'NOM'
p318
S'scorie'
p319
tp320
(S'NOM'
p321
S'arch\xc3\xa9ologue'
p322
tp323
tp324
F3.76424417894509
tp325
a(((S'NOM'
p326
S'clocher'
p327
tp328
(S'NOM'
p329
S'basalte'
p330
tp331
tp332
F3.68721038811216
tp333
a(((S'NOM'
p334
S'crat\xc3\xa8re'
p335
tp336
(S'NAM'
p337
S'carmichael'
p338
tp339
tp340
F3.6519909639766563
tp341
a(((S'NOM'
p342
S'crat\xc3\xa8re'
p343
tp344
(S'NOM'
p345
S'm\xc3\xa9decin-explorateur'
p346
tp347
tp348
F3.6519909639766563
tp349
a(((S'NOM'
p350
S'crat\xc3\xa8re'
p351
tp352
(S'NAM'
p353
S'reinhard'
p354
tp355
tp356
F3.6519909639766563
tp357
a(((S'NOM'
p358
S'crat\xc3\xa8re'
p359
tp360
(S'NAM'
p361
S'hverfjall'
p362
tp363
tp364
F3.6519909639766563
tp365
a(((S'NOM'
p366
S'crat\xc3\xa8re'
p367
tp368
(S'NOM'
p369
S'enclos;'
p370
tp371
tp372
F3.6519909639766563
tp373
a(((S'NOM'
p374
S'crat\xc3\xa8re'
p375
tp376
(S'NOM'
p377
S'couvre-chef'
p378
tp379
tp380
F3.6519909639766563
tp381
a(((S'NOM'
p382
S'crat\xc3\xa8re'
p383
tp384
(S'NOM'
p385
S'stigmate'
p386
tp387
tp388
F3.6519909639766563
tp389
a(((S'NOM'
p390
S'crat\xc3\xa8re'
p391
tp392
(S'NAM'
p393
S'aouelloul'
p394
tp395
tp396
F3.6519909639766563
tp397
a(((S'NOM'
p398
S'crat\xc3\xa8re'
p399
tp400
(S'NOM'
p401
S'<#sv-9-6>'
p402
tp403
tp404
F3.6519909639766563
tp405
a(((S'NOM'
p406
S'crat\xc3\xa8re'
p407
tp408
(S'NAM'
p409
S'vall\xc3\xa8s'
p410
tp411
tp412
F3.6519909639766563
tp413
a(((S'NOM'
p414
S'crat\xc3\xa8re'
p415
tp416
(S'NAM'
p417
S'gouttes;'
p418
tp419
tp420
F3.6519909639766563
tp421
a(((S'NOM'
p422
S'crat\xc3\xa8re'
p423
tp424
(S'NAM'
p425
S'commerson'
p426
tp427
tp428
F3.6519909639766563
tp429
a(((S'NOM'
p430
S'crat\xc3\xa8re'
p431
tp432
(S'NAM'
p433
S'unzen-dake'
p434
tp435
tp436
F3.6519909639766563
tp437
a(((S'NOM'
p438
S'fondeur'
p439
tp440
(S'NOM'
p441
S'crat\xc3\xa8re'
p442
tp443
tp444
F3.645431494992931
tp445
a(((S'NOM'
p446
S'rang\xc3\xa9e'
p447
tp448
(S'NOM'
p449
S'crat\xc3\xa8re'
p450
tp451
tp452
F3.645431494992931
tp453
a(((S'NAM'
p454
S'chahal\xc3\xa9'
p455
tp456
(S'NOM'
p457
S'crat\xc3\xa8re'
p458
tp459
tp460
F3.645431494992931
tp461
a(((S'NAM'
p462
S'adrar'
p463
tp464
g392
tp465
F3.645431494992931
tp466
a(((S'NAM'
p467
S'ljotipollur'
p468
tp469
(S'NOM'
p470
S'crat\xc3\xa8re'
p471
tp472
tp473
F3.645431494992931
tp474
a(((S'NOM'
p475
S'ros\xc3\xa9e'
p476
tp477
(S'NOM'
p478
S'crat\xc3\xa8re'
p479
tp480
tp481
F3.645431494992931
tp482
a(((S'NOM'
p483
S'd\xc3\xa9coupe'
p484
tp485
(S'NOM'
p486
S'crat\xc3\xa8re'
p487
tp488
tp489
F3.645431494992931
tp490
a(((S'NOM'
p491
S'basalte'
p492
tp493
(S'NOM'
p494
S'parfum'
p495
tp496
tp497
F3.3756697498825177
tp498
a(((S'NOM'
p499
S'affleurement'
p500
tp501
(S'NOM'
p502
S'basalte'
p503
tp504
tp505
F3.3743403748560246
tp506
a(((S'NOM'
p507
S'b\xc3\xa9ton'
p508
tp509
g123
tp510
F3.340375564850877
tp511
a(((S'NOM'
p512
S'bord'
p513
tp514
(S'NOM'
p515
S'crat\xc3\xa8re'
p516
tp517
tp518
F3.26235510299838
tp519
a(((S'NOM'
p520
S'bulle de gaz'
p521
tp522
(S'NOM'
p523
S'scorie'
p524
tp525
tp526
F3.154342009915549
tp527
a(((S'NOM'
p528
S'crat\xc3\xa8re'
p529
tp530
(S'NAM'
p531
S'ngorongoro'
p532
tp533
tp534
F3.1398637899279422
tp535
a(((S'NOM'
p536
S'strate'
p537
tp538
(S'NOM'
p539
S'basalte'
p540
tp541
tp542
F3.1195949293317886
tp543
a(((S'NAM'
p544
S'somma'
p545
tp546
(S'NOM'
p547
S'c\xc3\xb4ne'
p548
tp549
tp550
F3.1120313865457
tp551
a(((S'NOM'
p552
S'avalanche'
p553
tp554
(S'NOM'
p555
S'd\xc3\xa9bris'
p556
tp557
tp558
F2.9106080578131084
tp559
a(((S'NOM'
p560
S'basalte'
p561
tp562
(S'NAM'
p563
S'portugal'
p564
tp565
tp566
F2.9079648557000297
tp567
a(((S'NOM'
p568
S'couloir'
p569
tp570
(S'NOM'
p571
S'basalte'
p572
tp573
tp574
F2.906476120643966
tp575
a(((S'NOM'
p576
S'ocre'
p577
tp578
(S'NOM'
p579
S'basalte'
p580
tp581
tp582
F2.906476120643966
tp583
a(((S'NOM'
p584
S'c\xc3\xb4ne'
p585
tp586
(S'NAM'
p587
S'tolbachik'
p588
tp589
tp590
F2.7894291724899074
tp591
a(((S'NOM'
p592
S'fjord'
p593
tp594
(S'NOM'
p595
S'c\xc3\xb4ne'
p596
tp597
tp598
F2.786841810404995
tp599
a(((S'NOM'
p600
S'basalte'
p601
tp602
(S'NOM'
p603
S'mat\xc3\xa9riau'
p604
tp605
tp606
F2.725957500183003
tp607
a(((S'NOM'
p608
S'barre'
p609
tp610
g27
tp611
F2.724400173975349
tp612
a(((S'NOM'
p613
S'crat\xc3\xa8re'
p614
tp615
(S'NOM'
p616
S'puuoo'
p617
tp618
tp619
F2.6856457655638275
tp620
a(((S'NOM'
p621
S'colonne'
p622
tp623
(S'NOM'
p624
S'basalte'
p625
tp626
tp627
F2.591397528091177
tp628
a(((S'NOM'
p629
S'basalte'
p630
tp631
(S'NOM'
p632
S'coussin'
p633
tp634
tp635
F2.567840592182381
tp636
a((g283
(S'NAM'
p637
S'surtsey'
p638
tp639
tp640
F2.5436181424261144
tp641
a(((S'NAM'
p642
S'phl\xc3\xa9gr\xc3\xa9ens'
p643
tp644
(S'NAM'
p645
S'c\xc3\xb4ne'
p646
tp647
tp648
F2.5300817587311575
tp649
a(((S'NOM'
p650
S'd\xc3\xa9bris'
p651
tp652
(S'NOM'
p653
S'dalle'
p654
tp655
tp656
F2.4946031394479227
tp657
a(((S'NOM'
p658
S'crat\xc3\xa8re'
p659
tp660
(S'NAM'
p661
S'kawah'
p662
tp663
tp664
F2.46963098479442
tp665
a(((S'NOM'
p666
S'scorie'
p667
tp668
(S'VER:infi'
p669
S'signaler'
p670
tp671
tp672
F2.4295385446864755
tp673
a(((S'NOM'
p674
S'fond'
p675
tp676
(S'NOM'
p677
S'crat\xc3\xa8re'
p678
tp679
tp680
F2.4240589610288152
tp681
a(((S'NOM'
p682
S'crat\xc3\xa8re'
p683
tp684
(S'NAM'
p685
S'bolshoi'
p686
tp687
tp688
F2.401376516617557
tp689
a(((S'NOM'
p690
S'crat\xc3\xa8re'
p691
tp692
(S'NOM'
p693
S'p\xc3\xa9age'
p694
tp695
tp696
F2.401376516617557
tp697
a(((S'NOM'
p698
S'crat\xc3\xa8re'
p699
tp700
(S'NOM'
p701
S'op\xc3\xa9rette'
p702
tp703
tp704
F2.401376516617557
tp705
a(((S'NOM'
p706
S'crat\xc3\xa8re'
p707
tp708
(S'NOM'
p709
S'extrapolation'
p710
tp711
tp712
F2.401376516617557
tp713
a(((S'NOM'
p714
S'crat\xc3\xa8re'
p715
tp716
(S'NAM'
p717
S'karymskoye'
p718
tp719
tp720
F2.401376516617557
tp721
a(((S'NOM'
p722
S'crat\xc3\xa8re'
p723
tp724
(S'NAM'
p725
S'amic'
p726
tp727
tp728
F2.401376516617557
tp729
a(((S'NOM'
p730
S'crat\xc3\xa8re'
p731
tp732
(S'NAM'
p733
S'guelb'
p734
tp735
tp736
F2.401376516617557
tp737
a(((S'NOM'
p738
S'crat\xc3\xa8re'
p739
tp740
(S'NOM'
p741
S'agresseur'
p742
tp743
tp744
F2.401376516617557
tp745
a(((S'NAM'
p746
S'chernoye'
p747
tp748
g684
tp749
F2.390534324760981
tp750
a(((S'NAM'
p751
S'mihara-yama'
p752
tp753
(S'NOM'
p754
S'crat\xc3\xa8re'
p755
tp756
tp757
F2.390534324760981
tp758
a(((S'NAM'
p759
S'pozzuoli'
p760
tp761
(S'NOM'
p762
S'crat\xc3\xa8re'
p763
tp764
tp765
F2.390534324760981
tp766
a(((S'NAM'
p767
S'jamy'
p768
tp769
(S'NOM'
p770
S'crat\xc3\xa8re'
p771
tp772
tp773
F2.390534324760981
tp774
a(((S'NAM'
p775
S'nouveau-mexique'
p776
tp777
g408
tp778
F2.390534324760981
tp779
a(((S'NOM'
p780
S'strato-volcans'
p781
tp782
(S'NOM'
p783
S'c\xc3\xb4ne'
p784
tp785
tp786
F2.3198737467098782
tp787
a(((S'NOM'
p788
S'accumulation'
p789
tp790
(S'NOM'
p791
S'scorie'
p792
tp793
tp794
F2.277214717595619
tp795
a((g573
(S'NOM'
p796
S'grotte'
p797
tp798
tp799
F2.1930087674479783
tp800
a(((S'NOM'
p801
S'tuf'
p802
tp803
(S'NOM'
p804
S'basalte'
p805
tp806
tp807
F2.191230981986543
tp808
a(((S'NOM'
p809
S'\xc3\xa9dification'
p810
tp811
(S'NOM'
p812
S'c\xc3\xb4ne'
p813
tp814
tp815
F2.1430735106993404
tp816
a(((S'NOM'
p817
S'panorama'
p818
tp819
(S'NOM'
p820
S'c\xc3\xb4ne'
p821
tp822
tp823
F2.1430735106993404
tp824
a(((S'NOM'
p825
S'crat\xc3\xa8re'
p826
tp827
(S'NAM'
p828
S'fossa'
p829
tp830
tp831
F2.0392291824193
tp832
a(((S'NOM'
p833
S'abri'
p834
tp835
(S'NOM'
p836
S'd\xc3\xa9bris'
p837
tp838
tp839
F2.0080360355799547
tp840
a(((S'NOM'
p841
S'scorie'
p842
tp843
(S'NOM'
p844
S'bombe'
p845
tp846
tp847
F2.00784392690222
tp848
a(((S'NOM'
p849
S'basalte'
p850
tp851
(S'NOM'
p852
S'and\xc3\xa9site'
p853
tp854
tp855
F1.9995124526972994
tp856
a((g78
(S'NOM'
p857
S'taille'
p858
tp859
tp860
F1.9437486394238432
tp861
a(((S'NOM'
p862
S'volute'
p863
tp864
(S'NOM'
p865
S'basalte'
p866
tp867
tp868
F1.912752338345447
tp869
a(((S'NOM'
p870
S'prisme'
p871
tp872
(S'NOM'
p873
S'basalte'
p874
tp875
tp876
F1.912752338345447
tp877
a(((S'NOM'
p878
S'paroi'
p879
tp880
(S'NOM'
p881
S'crat\xc3\xa8re'
p882
tp883
tp884
F1.886850997745156
tp885
a(((S'NOM'
p886
S'd\xc3\xa9sert'
p887
tp888
(S'NOM'
p889
S'scorie'
p890
tp891
tp892
F1.8847379091263083
tp893
a(((S'NOM'
p894
S'c\xc3\xb4ne'
p895
tp896
(S'NOM'
p897
S'puuoo'
p898
tp899
tp900
F1.862122166036053
tp901
a(((S'NOM'
p902
S'arri\xc3\xa8re-plan'
p903
tp904
(S'NOM'
p905
S'c\xc3\xb4ne'
p906
tp907
tp908
F1.8586588244345563
tp909
a(((S'NOM'
p910
S'puuoo'
p911
tp912
(S'NOM'
p913
S'c\xc3\xb4ne'
p914
tp915
tp916
F1.8586588244345563
tp917
a(((S'NOM'
p918
S'rhyolite'
p919
tp920
(S'NOM'
p921
S'basalte'
p922
tp923
tp924
F1.8343201666504534
tp925
a(((S'NOM'
p926
S'crat\xc3\xa8re'
p927
tp928
(S'NAM'
p929
S'monti'
p930
tp931
tp932
F1.8129382286835225
tp933
a(((S'NOM'
p934
S'crat\xc3\xa8re'
p935
tp936
(S'NOM'
p937
S'embl\xc3\xa8me'
p938
tp939
tp940
F1.8129382286835225
tp941
a(((S'NOM'
p942
S'crat\xc3\xa8re'
p943
tp944
(S'NAM'
p945
S'benbow'
p946
tp947
tp948
F1.8129382286835225
tp949
a(((S'NOM'
p950
S'crat\xc3\xa8re'
p951
tp952
(S'NAM'
p953
S'voragine'
p954
tp955
tp956
F1.8129382286835225
tp957
a(((S'NOM'
p958
S'crat\xc3\xa8re'
p959
tp960
(S'NOM'
p961
S'momotombo'
p962
tp963
tp964
F1.8129382286835225
tp965
a(((S'NOM'
p966
S'crat\xc3\xa8re'
p967
tp968
(S'NAM'
p969
S'santiago'
p970
tp971
tp972
F1.8129382286835225
tp973
a(((S'NOM'
p974
S'crat\xc3\xa8re'
p975
tp976
(S'NAM'
p977
S'kelut'
p978
tp979
tp980
F1.8129382286835225
tp981
a(((S'NOM'
p982
S'p\xc3\xa9rip\xc3\xa9tie'
p983
tp984
(S'NOM'
p985
S'crat\xc3\xa8re'
p986
tp987
tp988
F1.799035350568914
tp989
a(((S'NOM'
p990
S'd\xc3\xa9bris'
p991
tp992
(S'NOM'
p993
S'plante'
p994
tp995
tp996
F1.7503611618858896
tp997
a(((S'NOM'
p998
S'c\xc3\xb4ne'
p999
tp1000
(S'NOM'
p1001
S'paricutin'
p1002
tp1003
tp1004
F1.7449189029932595
tp1005
a(((S'NOM'
p1006
S'multitude'
p1007
tp1008
(S'NOM'
p1009
S'c\xc3\xb4ne'
p1010
tp1011
tp1012
F1.7413174626546937
tp1013
a(((S'NOM'
p1014
S'km\xc2\xb2'
p1015
tp1016
(S'NOM'
p1017
S'c\xc3\xb4ne'
p1018
tp1019
tp1020
F1.7413174626546937
tp1021
a(((S'NOM'
p1022
S'boule'
p1023
tp1024
(S'NOM'
p1025
S'basalte'
p1026
tp1027
tp1028
F1.6936256723022054
tp1029
a(((S'NOM'
p1030
S'gen\xc3\xa8se'
p1031
tp1032
(S'NOM'
p1033
S'basalte'
p1034
tp1035
tp1036
F1.6936256723022054
tp1037
a(((S'NOM'
p1038
S'\xc3\xa9panchement'
p1039
tp1040
(S'NOM'
p1041
S'basalte'
p1042
tp1043
tp1044
F1.6936256723022054
tp1045
a(((S'NOM'
p1046
S'crat\xc3\xa8re'
p1047
tp1048
(S'NAM'
p1049
S'kawa'
p1050
tp1051
tp1052
F1.6766337340978177
tp1053
a(((S'NOM'
p1054
S'crat\xc3\xa8re'
p1055
tp1056
(S'NOM'
p1057
S'muraille'
p1058
tp1059
tp1060
F1.6619513824913157
tp1061
a(((S'NOM'
p1062
S'caillou'
p1063
tp1064
(S'NOM'
p1065
S'c\xc3\xb4ne'
p1066
tp1067
tp1068
F1.6362899554126318
tp1069
a(((S'NOM'
p1070
S'portion'
p1071
tp1072
(S'NOM'
p1073
S'c\xc3\xb4ne'
p1074
tp1075
tp1076
F1.6362899554126318
tp1077
a(((S'NOM'
p1078
S'd\xc3\xa9bris'
p1079
tp1080
(S'NAM'
p1081
S'atlantide'
p1082
tp1083
tp1084
F1.6088778564091242
tp1085
a((g806
(S'NOM'
p1086
S'pierre ponce'
p1087
tp1088
tp1089
F1.5162503245825347
tp1090
a(((S'NOM'
p1091
S'scorie'
p1092
tp1093
(S'NOM'
p1094
S'cendre'
p1095
tp1096
tp1097
F1.512097980510109
tp1098
a(((S'NOM'
p1099
S'c\xc3\xb4ne'
p1100
tp1101
(S'NOM'
p1102
S'scorie'
p1103
tp1104
tp1105
F1.4617358741612965
tp1106
a(((S'NOM'
p1107
S'crat\xc3\xa8re'
p1108
tp1109
(S'NOM'
p1110
S'creuset'
p1111
tp1112
tp1113
F1.442058306274581
tp1114
a(((S'NOM'
p1115
S'crat\xc3\xa8re'
p1116
tp1117
(S'NAM'
p1118
S'bocca'
p1119
tp1120
tp1121
F1.442058306274581
tp1122
a(((S'NOM'
p1123
S'crat\xc3\xa8re'
p1124
tp1125
(S'NAM'
p1126
S'bory'
p1127
tp1128
tp1129
F1.442058306274581
tp1130
a(((S'NOM'
p1131
S'flot'
p1132
tp1133
(S'NOM'
p1134
S'd\xc3\xa9bris'
p1135
tp1136
tp1137
F1.4285961933448126
tp1138
a(((S'NAM'
p1139
S'solfatara'
p1140
tp1141
(S'NOM'
p1142
S'crat\xc3\xa8re'
p1143
tp1144
tp1145
F1.4256576001001513
tp1146
a(((S'NOM'
p1147
S'dolomie'
p1148
tp1149
(S'NOM'
p1150
S'crat\xc3\xa8re'
p1151
tp1152
tp1153
F1.4256576001001513
tp1154
a(((S'NOM'
p1155
S'agrandissement'
p1156
tp1157
(S'NOM'
p1158
S'crat\xc3\xa8re'
p1159
tp1160
tp1161
F1.4256576001001513
tp1162
a((g793
(S'NAM'
p1163
S'relief'
p1164
tp1165
tp1166
F1.4213499657979136
tp1167
a(((S'NAM'
p1168
S'santorin'
p1169
tp1170
g51
tp1171
F1.381729570268136
tp1172
a(((S'NOM'
p1173
S'c\xc3\xb4ne'
p1174
tp1175
(S'NOM'
p1176
S'argile'
p1177
tp1178
tp1179
F1.3797260672000695
tp1180
a(((S'NOM'
p1181
S'c\xc3\xb4ne'
p1182
tp1183
(S'NOM'
p1184
S'ruapehu'
p1185
tp1186
tp1187
F1.3797260672000695
tp1188
a(((S'NOM'
p1189
S'br\xc3\xa8che'
p1190
tp1191
(S'NOM'
p1192
S'c\xc3\xb4ne'
p1193
tp1194
tp1195
F1.3024730935995246
tp1196
a(((S'NOM'
p1197
S'vari\xc3\xa9t\xc3\xa9'
p1198
tp1199
(S'NOM'
p1200
S'basalte'
p1201
tp1202
tp1203
F1.2739624846702016
tp1204
a(((S'NOM'
p1205
S'c\xc3\xb4ne'
p1206
tp1207
(S'NOM'
p1208
S'bouchon'
p1209
tp1210
tp1211
F1.238847980542243
tp1212
a(((S'NOM'
p1213
S'basalte'
p1214
tp1215
(S'NOM'
p1216
S'trapps'
p1217
tp1218
tp1219
F1.2346254803465788
tp1220
a(((S'NOM'
p1221
S'crevasse'
p1222
tp1223
(S'NOM'
p1224
S'c\xc3\xb4ne'
p1225
tp1226
tp1227
F1.2345756397083736
tp1228
a(((S'NOM'
p1229
S'crat\xc3\xa8re'
p1230
tp1231
(S'NAM'
p1232
S'callisto'
p1233
tp1234
tp1235
F1.1753245996720416
tp1236
a(((S'NOM'
p1237
S'crat\xc3\xa8re'
p1238
tp1239
(S'NAM'
p1240
S'niragongo'
p1241
tp1242
tp1243
F1.1753245996720416
tp1244
a(((S'NOM'
p1245
S'crat\xc3\xa8re'
p1246
tp1247
(S'NAM'
p1248
S'rouy'
p1249
tp1250
tp1251
F1.1753245996720416
tp1252
a(((S'NOM'
p1253
S'crat\xc3\xa8re'
p1254
tp1255
(S'NAM'
p1256
S'halemaumau'
p1257
tp1258
tp1259
F1.1753245996720416
tp1260
a(((S'NOM'
p1261
S'lambeau de lave'
p1262
tp1263
(S'NOM'
p1264
S'crat\xc3\xa8re'
p1265
tp1266
tp1267
F1.1567670547721547
tp1268
a(((S'NOM'
p1269
S'pan'
p1270
tp1271
(S'NOM'
p1272
S'crat\xc3\xa8re'
p1273
tp1274
tp1275
F1.1567670547721547
tp1276
a(((S'NOM'
p1277
S'entonnoir'
p1278
tp1279
(S'NOM'
p1280
S'crat\xc3\xa8re'
p1281
tp1282
tp1283
F1.1567670547721547
tp1284
a(((S'VER:infi'
p1285
S'ressortir|ressortir'
p1286
tp1287
(S'NOM'
p1288
S'crat\xc3\xa8re'
p1289
tp1290
tp1291
F1.1567670547721547
tp1292
a(((S'NOM'
p1293
S'projection'
p1294
tp1295
(S'NOM'
p1296
S'scorie'
p1297
tp1298
tp1299
F1.1257810244955997
tp1300
a(((S'NOM'
p1301
S'basalte'
p1302
tp1303
(S'NOM'
p1304
S'accumulation'
p1305
tp1306
tp1307
F1.1202351946599245
tp1308
a(((S'NOM'
p1309
S'magn\xc3\xa9sium'
p1310
tp1311
(S'NOM'
p1312
S'basalte'
p1313
tp1314
tp1315
F1.08286451707884
tp1316
a(((S'NOM'
p1317
S'beaut\xc3\xa9'
p1318
tp1319
(S'NOM'
p1320
S'basalte'
p1321
tp1322
tp1323
F1.08286451707884
tp1324
a(((S'NOM'
p1325
S'granite'
p1326
tp1327
(S'NOM'
p1328
S'basalte'
p1329
tp1330
tp1331
F1.08286451707884
tp1332
a(((S'NOM'
p1333
S'scorie'
p1334
tp1335
(S'NOM'
p1336
S'second'
p1337
tp1338
tp1339
F1.0528555884959694
tp1340
a(((S'NOM'
p1341
S'millim\xc3\xa8tre'
p1342
tp1343
(S'NOM'
p1344
S'basalte'
p1345
tp1346
tp1347
F1.0489650081093689
tp1348
a(((S'NOM'
p1349
S'crat\xc3\xa8re'
p1350
tp1351
(S'NOM'
p1352
S'erebus'
p1353
tp1354
tp1355
F1.0261961562408601
tp1356
a(((S'NOM'
p1357
S'crat\xc3\xa8re'
p1358
tp1359
(S'NOM'
p1360
S'popocatepetl'
p1361
tp1362
tp1363
F1.0261961562408601
tp1364
a(((S'NOM'
p1365
S'droit|droite'
p1366
tp1367
g35
tp1368
F1.016271951643776
tp1369
a(((S'NOM'
p1370
S'succession'
p1371
tp1372
(S'NOM'
p1373
S'c\xc3\xb4ne'
p1374
tp1375
tp1376
F1.0038273545710628
tp1377
a(((S'NOM'
p1378
S'jardin'
p1379
tp1380
(S'NOM'
p1381
S'c\xc3\xb4ne'
p1382
tp1383
tp1384
F1.0038273545710628
tp1385
a(((S'NOM'
p1386
S'cristaux'
p1387
tp1388
g211
tp1389
F0.9979154559657935
tp1390
a(((S'NOM'
p1391
S'crat\xc3\xa8re'
p1392
tp1393
(S'NOM'
p1394
S'bou\xc3\xa9e'
p1395
tp1396
tp1397
F0.9683928613131042
tp1398
a(((S'NOM'
p1399
S'\xc3\xa9chancrure'
p1400
tp1401
(S'NOM'
p1402
S'crat\xc3\xa8re'
p1403
tp1404
tp1405
F0.9479134762030094
tp1406
a(((S'NOM'
p1407
S'pouzzoles'
p1408
tp1409
(S'NOM'
p1410
S'crat\xc3\xa8re'
p1411
tp1412
tp1413
F0.9479134762030094
tp1414
a(((S'NOM'
p1415
S'panoramique'
p1416
tp1417
(S'NAM'
p1418
S'crat\xc3\xa8re'
p1419
tp1420
tp1421
F0.9479134762030094
tp1422
a(((S'NOM'
p1423
S'soul\xc3\xa8vement'
p1424
tp1425
(S'NOM'
p1426
S'crat\xc3\xa8re'
p1427
tp1428
tp1429
F0.9479134762030094
tp1430
a(((S'NOM'
p1431
S'ouvrier'
p1432
tp1433
(S'NOM'
p1434
S'crat\xc3\xa8re'
p1435
tp1436
tp1437
F0.9479134762030094
tp1438
a(((S'NOM'
p1439
S'basalte'
p1440
tp1441
(S'NOM'
p1442
S'plancher'
p1443
tp1444
tp1445
F0.9268372366169204
tp1446
a(((S'NOM'
p1447
S'plancher'
p1448
tp1449
(S'NOM'
p1450
S'basalte'
p1451
tp1452
tp1453
F0.9246605243050223
tp1454
a(((S'NOM'
p1455
S'lac|lacs'
p1456
tp1457
(S'NOM'
p1458
S'crat\xc3\xa8re'
p1459
tp1460
tp1461
F0.9224929545492953
tp1462
a(((S'NOM'
p1463
S'cendre'
p1464
tp1465
g992
tp1466
F0.8998734315249225
tp1467
a(((S'NOM'
p1468
S'descente'
p1469
tp1470
(S'NOM'
p1471
S'crat\xc3\xa8re'
p1472
tp1473
tp1474
F0.8820688374361297
tp1475
a((g875
(S'NOM'
p1476
S'environ|environs'
p1477
tp1478
tp1479
F0.8704890613717444
tp1480
a(((S'VER:infi'
p1481
S'couvrir'
p1482
tp1483
(S'NOM'
p1484
S'd\xc3\xa9bris'
p1485
tp1486
tp1487
F0.8548169297742818
tp1488
a(((S'NOM'
p1489
S'crat\xc3\xa8re'
p1490
tp1491
(S'NOM'
p1492
S'm\xc3\xa9andre'
p1493
tp1494
tp1495
F0.7997745813821225
tp1496
a(((S'NOM'
p1497
S'basalte'
p1498
tp1499
(S'NOM'
p1500
S'scorie'
p1501
tp1502
tp1503
F0.7919932806540472
tp1504
a(((S'NOM'
p1505
S'\xc3\xa9corce'
p1506
tp1507
g171
tp1508
F0.7898507157588333
tp1509
a(((S'NOM'
p1510
S'ext\xc3\xa9rieur'
p1511
tp1512
(S'NOM'
p1513
S'c\xc3\xb4ne'
p1514
tp1515
tp1516
F0.7787495091416743
tp1517
a(((S'NOM'
p1518
S'interruption'
p1519
tp1520
(S'NOM'
p1521
S'crat\xc3\xa8re'
p1522
tp1523
tp1524
F0.7775481001575709
tp1525
a(((S'NAM'
p1526
S'spot'
p1527
tp1528
g732
tp1529
F0.7775481001575709
tp1530
a(((S'NOM'
p1531
S'd\xc3\xa9bris'
p1532
tp1533
(S'NOM'
p1534
S'produit'
p1535
tp1536
tp1537
F0.7563835605523384
tp1538
a(((S'NOM'
p1539
S'flot'
p1540
tp1541
(S'NOM'
p1542
S'basalte'
p1543
tp1544
tp1545
F0.7410568392321812
tp1546
a(((S'NOM'
p1547
S'croissance'
p1548
tp1549
(S'NOM'
p1550
S'c\xc3\xb4ne'
p1551
tp1552
tp1553
F0.7397006349682921
tp1554
a(((S'NOM'
p1555
S'essentiel'
p1556
tp1557
(S'NOM'
p1558
S'basalte'
p1559
tp1560
tp1561
F0.6947437658312944
tp1562
a(((S'NOM'
p1563
S'crat\xc3\xa8re'
p1564
tp1565
(S'NOM'
p1566
S'orifice'
p1567
tp1568
tp1569
F0.6575790754939149
tp1570
a(((S'NOM'
p1571
S'\xc3\xa9mission'
p1572
tp1573
(S'NOM'
p1574
S'scorie'
p1575
tp1576
tp1577
F0.6398293956830515
tp1578
a(((S'NAM'
p1579
S'fossa'
p1580
tp1581
(S'NOM'
p1582
S'crat\xc3\xa8re'
p1583
tp1584
tp1585
F0.6337421452818877
tp1586
a(((S'NOM'
p1587
S'steppe'
p1588
tp1589
(S'NOM'
p1590
S'crat\xc3\xa8re'
p1591
tp1592
tp1593
F0.6337421452818877
tp1594
a(((S'NOM'
p1595
S'poussi\xc3\xa8re'
p1596
tp1597
(S'NOM'
p1598
S'd\xc3\xa9bris'
p1599
tp1600
tp1601
F0.5998282126297859
tp1602
a(((S'VER:infi'
p1603
S'\xc3\xa9difier'
p1604
tp1605
(S'NOM'
p1606
S'c\xc3\xb4ne'
p1607
tp1608
tp1609
F0.5983245287781579
tp1610
a(((S'NOM'
p1611
S'beaut\xc3\xa9'
p1612
tp1613
(S'NOM'
p1614
S'c\xc3\xb4ne'
p1615
tp1616
tp1617
F0.5661460330790293
tp1618
a(((S'NOM'
p1619
S'crat\xc3\xa8re'
p1620
tp1621
(S'NAM'
p1622
S'ol'
p1623
tp1624
tp1625
F0.5316298639061476
tp1626
a(((S'NOM'
p1627
S'crat\xc3\xa8re'
p1628
tp1629
(S'NAM'
p1630
S'pavin'
p1631
tp1632
tp1633
F0.5316298639061476
tp1634
a(((S'NOM'
p1635
S'formation'
p1636
tp1637
(S'NOM'
p1638
S'c\xc3\xb4ne'
p1639
tp1640
tp1641
F0.5230785634493825
tp1642
a(((S'NOM'
p1643
S'scorie'
p1644
tp1645
(S'VER:infi'
p1646
S'd\xc3\xa9truire'
p1647
tp1648
tp1649
F0.5211317616580186
tp1650
a(((S'NOM'
p1651
S'champ'
p1652
tp1653
(S'NOM'
p1654
S'scorie'
p1655
tp1656
tp1657
F0.5094520963801528
tp1658
a(((S'NAM'
p1659
S'faial'
p1660
tp1661
(S'NOM'
p1662
S'crat\xc3\xa8re'
p1663
tp1664
tp1665
F0.5092626807375297
tp1666
a(((S'NOM'
p1667
S'droit|droite'
p1668
tp1669
(S'NOM'
p1670
S'c\xc3\xb4ne'
p1671
tp1672
tp1673
F0.5049821614103857
tp1674
a(((S'NOM'
p1675
S'crat\xc3\xa8re'
p1676
tp1677
(S'NOM'
p1678
S'tableau'
p1679
tp1680
tp1681
F0.426165899192729
tp1682
a(((S'NOM'
p1683
S'crat\xc3\xa8re'
p1684
tp1685
(S'NOM'
p1686
S'morphologie'
p1687
tp1688
tp1689
F0.426165899192729
tp1690
a(((S'NOM'
p1691
S'crat\xc3\xa8re'
p1692
tp1693
(S'NAM'
p1694
S'monte'
p1695
tp1696
tp1697
F0.426165899192729
tp1698
a(((S'NOM'
p1699
S'crat\xc3\xa8re'
p1700
tp1701
(S'NOM'
p1702
S'monticule'
p1703
tp1704
tp1705
F0.426165899192729
tp1706
a(((S'NOM'
p1707
S'bloc'
p1708
tp1709
(S'NOM'
p1710
S'scorie'
p1711
tp1712
tp1713
F0.4156451001257397
tp1714
a(((S'VER:infi'
p1715
S'aventurer'
p1716
tp1717
(S'NOM'
p1718
S'crat\xc3\xa8re'
p1719
tp1720
tp1721
F0.3994217922495117
tp1722
a(((S'NOM'
p1723
S'chr\xc3\xa9tien'
p1724
tp1725
g432
tp1726
F0.3994217922495117
tp1727
a(((S'NOM'
p1728
S'crat\xc3\xa8re'
p1729
tp1730
(S'NOM'
p1731
S'impact'
p1732
tp1733
tp1734
F0.39653380010839834
tp1735
a(((S'NAM'
p1736
S'dolomieu'
p1737
tp1738
(S'NOM'
p1739
S'c\xc3\xb4ne'
p1740
tp1741
tp1742
F0.39359845435422525
tp1743
a((g504
(S'NOM'
p1744
S'plateau'
p1745
tp1746
tp1747
F0.391937730311718
tp1748
a(((S'NOM'
p1749
S'plateau'
p1750
tp1751
g19
tp1752
F0.39018865338256664
tp1753
a(((S'NOM'
p1754
S'basalte'
p1755
tp1756
(S'NOM'
p1757
S'\xc3\xa9volution'
p1758
tp1759
tp1760
F0.36000064585833885
tp1761
a(((S'NOM'
p1762
S'nom'
p1763
tp1764
(S'NOM'
p1765
S'scorie'
p1766
tp1767
tp1768
F0.3558494605299454
tp1769
a(((S'NOM'
p1770
S'crat\xc3\xa8re'
p1771
tp1772
g904
tp1773
F0.3290952463619248
tp1774
a(((S'NAM'
p1775
S'auvergne'
p1776
tp1777
(S'NOM'
p1778
S'scorie'
p1779
tp1780
tp1781
F0.3057302789119223
tp1782
a(((S'NAM'
p1783
S'kapor'
p1784
tp1785
(S'NOM'
p1786
S'crat\xc3\xa8re'
p1787
tp1788
tp1789
F0.3010220456413221
tp1790
a(((S'NAM'
p1791
S'maar'
p1792
tp1793
(S'NOM'
p1794
S'crat\xc3\xa8re'
p1795
tp1796
tp1797
F0.3010220456413221
tp1798
a(((S'NOM'
p1799
S'pourtour'
p1800
tp1801
(S'NOM'
p1802
S'crat\xc3\xa8re'
p1803
tp1804
tp1805
F0.3010220456413221
tp1806
a(((S'NOM'
p1807
S'crat\xc3\xa8re'
p1808
tp1809
(S'NAM'
p1810
S'dolomieu'
p1811
tp1812
tp1813
F0.2760273694310052
tp1814
a(((S'NOM'
p1815
S'crat\xc3\xa8re'
p1816
tp1817
(S'VER:infi'
p1818
S'ausculter'
p1819
tp1820
tp1821
F0.2411273255572005
tp1822
a(((S'NOM'
p1823
S'crat\xc3\xa8re'
p1824
tp1825
(S'NAM'
p1826
S'ambrym'
p1827
tp1828
tp1829
F0.2411273255572005
tp1830
a(((S'NOM'
p1831
S'g\xc3\xa9n\xc3\xa9ral'
p1832
tp1833
(S'NOM'
p1834
S'basalte'
p1835
tp1836
tp1837
F0.24061797500580237
tp1838
a((g1035
(S'NOM'
p1839
S'chambre'
p1840
tp1841
tp1842
F0.22827217577129552
tp1843
a(((S'NOM'
p1844
S'camion'
p1845
tp1846
(S'NOM'
p1847
S'crat\xc3\xa8re'
p1848
tp1849
tp1850
F0.21179279043486887
tp1851
a(((S'NOM'
p1852
S'multitude'
p1853
tp1854
(S'NOM'
p1855
S'crat\xc3\xa8re'
p1856
tp1857
tp1858
F0.21179279043486887
tp1859
a(((S'NOM'
p1860
S'volume'
p1861
tp1862
(S'NOM'
p1863
S'basalte'
p1864
tp1865
tp1866
F0.1868231698298986
tp1867
a(((S'NOM'
p1868
S'vertical'
p1869
tp1870
(S'NOM'
p1871
S'c\xc3\xb4ne'
p1872
tp1873
tp1874
F0.16204122411244462
tp1875
a(((S'NOM'
p1876
S'crat\xc3\xa8re'
p1877
tp1878
(S'NOM'
p1879
S'digue'
p1880
tp1881
tp1882
F0.16060434826522085
tp1883
a(((S'NOM'
p1884
S'construction'
p1885
tp1886
(S'NOM'
p1887
S'c\xc3\xb4ne'
p1888
tp1889
tp1890
F0.14169221627645753
tp1891
a(((S'NOM'
p1892
S'basalte'
p1893
tp1894
(S'NOM'
p1895
S'composition'
p1896
tp1897
tp1898
F0.13699205469123524
tp1899
a(((S'NOM'
p1900
S'composition'
p1901
tp1902
g179
tp1903
F0.1358769382615383
tp1904
a(((S'NOM'
p1905
S'corde'
p1906
tp1907
(S'NOM'
p1908
S'crat\xc3\xa8re'
p1909
tp1910
tp1911
F0.13006785370485915
tp1912
a(((S'NOM'
p1913
S'topographie'
p1914
tp1915
(S'NOM'
p1916
S'crat\xc3\xa8re'
p1917
tp1918
tp1919
F0.13006785370485915
tp1920
a(((S'NAM'
p1921
S'ijen'
p1922
tp1923
(S'NOM'
p1924
S'crat\xc3\xa8re'
p1925
tp1926
tp1927
F0.12956263505769436
tp1928
a(((S'NOM'
p1929
S'd\xc3\xa9bris'
p1930
tp1931
(S'NOM'
p1932
S'bloc'
p1933
tp1934
tp1935
F0.12548167440855032
tp1936
a(((S'NOM'
p1937
S'pr\xc3\xa9sent'
p1938
tp1939
(S'NOM'
p1940
S'basalte'
p1941
tp1942
tp1943
F0.12354790799910223
tp1944
a(((S'NOM'
p1945
S'crat\xc3\xa8re'
p1946
tp1947
(S'NOM'
p1948
S'fonte'
p1949
tp1950
tp1951
F0.12103446074244847
tp1952
a(((S'NOM'
p1953
S'crat\xc3\xa8re'
p1954
tp1955
(S'NOM'
p1956
S'\xc2\x95'
p1957
tp1958
tp1959
F0.12103446074244847
tp1960
a(((S'NOM'
p1961
S'base'
p1962
tp1963
(S'NOM'
p1964
S'c\xc3\xb4ne'
p1965
tp1966
tp1967
F0.11748583897712604
tp1968
a(((S'NOM'
p1969
S'pr\xc3\xa9sence'
p1970
tp1971
(S'NOM'
p1972
S'basalte'
p1973
tp1974
tp1975
F0.0993477076792946
tp1976
a((g46
(S'NOM'
p1977
S'c\xc3\xb4t\xc3\xa9'
p1978
tp1979
tp1980
F0.08841242441955437
tp1981
a(((S'NOM'
p1982
S'crat\xc3\xa8re'
p1983
tp1984
(S'NOM'
p1985
S'jour-l\xc3\xa0'
p1986
tp1987
tp1988
F0.0862768493759498
tp1989
a(((S'NOM'
p1990
S'crat\xc3\xa8re'
p1991
tp1992
(S'NOM'
p1993
S'peur'
p1994
tp1995
tp1996
F0.0862768493759498
tp1997
a(((S'NOM'
p1998
S'l\xc3\xa9gende'
p1999
tp2000
(S'NOM'
p2001
S'c\xc3\xb4ne'
p2002
tp2003
tp2004
F0.06428850127734087
tp2005
a(((S'NAM'
p2006
S'lassolas'
p2007
tp2008
(S'NOM'
p2009
S'crat\xc3\xa8re'
p2010
tp2011
tp2012
F0.054591017592070204
tp2013
a(((S'NOM'
p2014
S'p\xc3\xa9riph\xc3\xa9rie'
p2015
tp2016
(S'NOM'
p2017
S'crat\xc3\xa8re'
p2018
tp2019
tp2020
F0.054591017592070204
tp2021
a(((S'NOM'
p2022
S'alignement'
p2023
tp2024
(S'NOM'
p2025
S'crat\xc3\xa8re'
p2026
tp2027
tp2028
F0.05308127857960124
tp2029
a((g94
(S'NOM'
p2030
S'or'
p2031
tp2032
tp2033
F0.04209698925703201
tp2034
a(((S'NOM'
p2035
S'\xc3\xa9v\xc3\xa9nement'
p2036
tp2037
(S'NOM'
p2038
S'c\xc3\xb4ne'
p2039
tp2040
tp2041
F0.00997401688348819
tp2042
a(((S'NAM'
p2043
S'relief'
p2044
tp2045
(S'NOM'
p2046
S'c\xc3\xb4ne'
p2047
tp2048
tp2049
F-0.041546489147510045
tp2050
a(((S'NOM'
p2051
S'journ\xc3\xa9e'
p2052
tp2053
(S'NOM'
p2054
S'c\xc3\xb4ne'
p2055
tp2056
tp2057
F-0.041546489147510045
tp2058
a(((S'NOM'
p2059
S'crat\xc3\xa8re'
p2060
tp2061
(S'NAM'
p2062
S'coupe'
p2063
tp2064
tp2065
F-0.04743964701356311
tp2066
a(((S'NOM'
p2067
S'couche'
p2068
tp2069
g1215
tp2070
F-0.04891396232826333
tp2071
a(((S'NAM'
p2072
S'durieux'
p2073
tp2074
(S'NOM'
p2075
S'crat\xc3\xa8re'
p2076
tp2077
tp2078
F-0.08128749474255248
tp2079
a(((S'VER:infi'
p2080
S'pr\xc3\xa9dire'
p2081
tp2082
(S'NOM'
p2083
S'crat\xc3\xa8re'
p2084
tp2085
tp2086
F-0.08128749474255248
tp2087
a(((S'NOM'
p2088
S'provenance'
p2089
tp2090
(S'NOM'
p2091
S'crat\xc3\xa8re'
p2092
tp2093
tp2094
F-0.08128749474255248
tp2095
a(((S'NOM'
p2096
S'r\xc3\xa9sultat'
p2097
tp2098
(S'NOM'
p2099
S'c\xc3\xb4ne'
p2100
tp2101
tp2102
F-0.10641386468180966
tp2103
a(((S'NOM'
p2104
S'crat\xc3\xa8re'
p2105
tp2106
(S'NOM'
p2107
S'couverture'
p2108
tp2109
tp2110
F-0.10819194018605613
tp2111
a((g923
(S'NOM'
p2112
S'basalte'
p2113
tp2114
tp2115
F-0.11490780766487206
tp2116
a((g1314
(S'NOM'
p2117
S'couleur'
p2118
tp2119
tp2120
F-0.12457559256696216
tp2121
a(((S'VER:infi'
p2122
S'cro\xc3\xaetre'
p2123
tp2124
(S'NOM'
p2125
S'crat\xc3\xa8re'
p2126
tp2127
tp2128
F-0.14306095068311261
tp2129
a(((S'NOM'
p2130
S'contrebas'
p2131
tp2132
(S'NOM'
p2133
S'crat\xc3\xa8re'
p2134
tp2135
tp2136
F-0.14306095068311261
tp2137
a(((S'NOM'
p2138
S'gal\xc3\xa1pagos'
p2139
tp2140
(S'NOM'
p2141
S'crat\xc3\xa8re'
p2142
tp2143
tp2144
F-0.14306095068311261
tp2145
a(((S'NOM'
p2146
S'observation'
p2147
tp2148
g562
tp2149
F-0.15283505905226968
tp2150
a(((S'NOM'
p2151
S'basalte'
p2152
tp2153
(S'NOM'
p2154
S'dorsal'
p2155
tp2156
tp2157
F-0.15305964088181834
tp2158
a(((S'NOM'
p2159
S'crat\xc3\xa8re'
p2160
tp2161
(S'NAM'
p2162
S'ganym\xc3\xa8de'
p2163
tp2164
tp2165
F-0.16556704646487774
tp2166
a(((S'NOM'
p2167
S'crat\xc3\xa8re'
p2168
tp2169
(S'NOM'
p2170
S'bordure'
p2171
tp2172
tp2173
F-0.16556704646487774
tp2174
a(((S'NOM'
p2175
S'juin'
p2176
tp2177
(S'NOM'
p2178
S'd\xc3\xa9bris'
p2179
tp2180
tp2181
F-0.17013053919982007
tp2182
a(((S'NOM'
p2183
S'distance'
p2184
tp2185
(S'NOM'
p2186
S'crat\xc3\xa8re'
p2187
tp2188
tp2189
F-0.1941522333255497
tp2190
a(((S'NOM'
p2191
S'po\xc3\xa8te'
p2192
tp2193
(S'NOM'
p2194
S'crat\xc3\xa8re'
p2195
tp2196
tp2197
F-0.20142192214385576
tp2198
a(((S'NOM'
p2199
S'course'
p2200
tp2201
(S'NOM'
p2202
S'crat\xc3\xa8re'
p2203
tp2204
tp2205
F-0.20142192214385576
tp2206
a(((S'NOM'
p2207
S'crat\xc3\xa8re'
p2208
tp2209
(S'NOM'
p2210
S'choix'
p2211
tp2212
tp2213
F-0.21996900554038806
tp2214
a(((S'NOM'
p2215
S'crat\xc3\xa8re'
p2216
tp2217
(S'NOM'
p2218
S'extr\xc3\xa9mit\xc3\xa9'
p2219
tp2220
tp2221
F-0.21996900554038806
tp2222
a(((S'NOM'
p2223
S'crat\xc3\xa8re'
p2224
tp2225
(S'NOM'
p2226
S'intervalle'
p2227
tp2228
tp2229
F-0.21996900554038806
tp2230
a(((S'NOM'
p2231
S'crat\xc3\xa8re'
p2232
tp2233
(S'NOM'
p2234
S'paroi'
p2235
tp2236
tp2237
F-0.2244428779796929
tp2238
a(((S'NOM'
p2239
S'effort'
p2240
tp2241
(S'NOM'
p2242
S'crat\xc3\xa8re'
p2243
tp2244
tp2245
F-0.25677729359187057
tp2246
a(((S'NOM'
p2247
S'chaudron'
p2248
tp2249
(S'NOM'
p2250
S'crat\xc3\xa8re'
p2251
tp2252
tp2253
F-0.25677729359187057
tp2254
a(((S'VER:infi'
p2255
S'gonfler'
p2256
tp2257
(S'NOM'
p2258
S'crat\xc3\xa8re'
p2259
tp2260
tp2261
F-0.25677729359187057
tp2262
a((g1027
(S'NOM'
p2263
S'bombe'
p2264
tp2265
tp2266
F-0.2599962597558722
tp2267
a(((S'NOM'
p2268
S'personne'
p2269
tp2270
(S'NOM'
p2271
S'scorie'
p2272
tp2273
tp2274
F-0.26157843722867674
tp2275
a(((S'NOM'
p2276
S'crat\xc3\xa8re'
p2277
tp2278
(S'NOM'
p2279
S'visage'
p2280
tp2281
tp2282
F-0.271733764327578
tp2283
a(((S'NOM'
p2284
S'c\xc3\xb4ne'
p2285
tp2286
(S'NOM'
p2287
S'projection'
p2288
tp2289
tp2290
F-0.28770509849100595
tp2291
a(((S'NOM'
p2292
S'l\xc3\xa8vre'
p2293
tp2294
(S'NOM'
p2295
S'crat\xc3\xa8re'
p2296
tp2297
tp2298
F-0.30946548121221223
tp2299
a(((S'NAM'
p2300
S'm\xc3\xa9diterran\xc3\xa9e'
p2301
tp2302
(S'NOM'
p2303
S'crat\xc3\xa8re'
p2304
tp2305
tp2306
F-0.30946548121221223
tp2307
a(((S'NOM'
p2308
S'continent'
p2309
tp2310
g1894
tp2311
F-0.3164811171528372
tp2312
a(((S'NOM'
p2313
S'c\xc3\xb4ne'
p2314
tp2315
(S'NOM'
p2316
S'pente'
p2317
tp2318
tp2319
F-0.3164819769977782
tp2320
a(((S'NOM'
p2321
S'crat\xc3\xa8re'
p2322
tp2323
(S'NOM'
p2324
S'g\xc3\xa9ochimie'
p2325
tp2326
tp2327
F-0.32114352434668436
tp2328
a(((S'NOM'
p2329
S'cendre'
p2330
tp2331
g843
tp2332
F-0.33280541472320063
tp2333
a(((S'NAM'
p2334
S'tanzanie'
p2335
tp2336
g1621
tp2337
F-0.35977084650727437
tp2338
a(((S'NOM'
p2339
S'crat\xc3\xa8re'
p2340
tp2341
(S'NOM'
p2342
S'silhouette'
p2343
tp2344
tp2345
F-0.3684375278002465
tp2346
a(((S'NOM'
p2347
S'c\xc3\xb4ne'
p2348
tp2349
(S'NOM'
p2350
S'c\xc3\xb4t\xc3\xa9'
p2351
tp2352
tp2353
F-0.3886601178496926
tp2354
a((g1560
(S'NOM'
p2355
S'oc\xc3\xa9an'
p2356
tp2357
tp2358
F-0.39592445958615147
tp2359
a(((S'NOM'
p2360
S'acc\xc3\xa8s'
p2361
tp2362
(S'NOM'
p2363
S'crat\xc3\xa8re'
p2364
tp2365
tp2366
F-0.4008388761317783
tp2367
a(((S'NOM'
p2368
S'montagne'
p2369
tp2370
g668
tp2371
F-0.4131290479455887
tp2372
a(((S'NOM'
p2373
S'passage'
p2374
tp2375
(S'NOM'
p2376
S'c\xc3\xb4ne'
p2377
tp2378
tp2379
F-0.4176839789810087
tp2380
a((g1584
(S'NAM'
p2381
S'vulcano'
p2382
tp2383
tp2384
F-0.4213595177864762
tp2385
a(((S'NOM'
p2386
S'absence'
p2387
tp2388
g1677
tp2389
F-0.45416274311665045
tp2390
a((g883
(S'VER:infi'
p2391
S'vider'
p2392
tp2393
tp2394
F-0.4574679464351803
tp2395
a(((S'NAM'
p2396
S'basalte'
p2397
tp2398
(S'NAM'
p2399
S'bloc'
p2400
tp2401
tp2402
F-0.48281707510336164
tp2403
a(((S'NAM'
p2404
S'vaste'
p2405
tp2406
(S'NOM'
p2407
S'c\xc3\xb4ne'
p2408
tp2409
tp2410
F-0.48634450864041523
tp2411
a(((S'NOM'
p2412
S'naissance'
p2413
tp2414
(S'NOM'
p2415
S'c\xc3\xb4ne'
p2416
tp2417
tp2418
F-0.49740391607748546
tp2419
a(((S'NOM'
p2420
S'crat\xc3\xa8re'
p2421
tp2422
(S'NOM'
p2423
S'cycle'
p2424
tp2425
tp2426
F-0.49953326351401284
tp2427
a(((S'NOM'
p2428
S'crat\xc3\xa8re'
p2429
tp2430
(S'NAM'
p2431
S'v\xc3\xa9nus'
p2432
tp2433
tp2434
F-0.5324512618024625
tp2435
a(((S'NOM'
p2436
S'crat\xc3\xa8re'
p2437
tp2438
(S'NOM'
p2439
S'langue'
p2440
tp2441
tp2442
F-0.5401495471027867
tp2443
a(((S'NOM'
p2444
S'nom'
p2445
tp2446
(S'NOM'
p2447
S'basalte'
p2448
tp2449
tp2450
F-0.5405204135341866
tp2451
a(((S'NOM'
p2452
S'tente'
p2453
tp2454
(S'NOM'
p2455
S'crat\xc3\xa8re'
p2456
tp2457
tp2458
F-0.5414997726696189
tp2459
a((g1544
(S'NOM'
p2460
S'fusion'
p2461
tp2462
tp2463
F-0.5442046407696461
tp2464
a(((S'NOM'
p2465
S'c\xc3\xb4ne'
p2466
tp2467
(S'NOM'
p2468
S'puy'
p2469
tp2470
tp2471
F-0.5572631099522053
tp2472
a(((S'NOM'
p2473
S'c\xc5\x93ur'
p2474
tp2475
g1101
tp2476
F-0.5720591179690491
tp2477
a(((S'NAM'
p2478
S'grimsv\xc3\xb6tn'
p2479
tp2480
(S'NOM'
p2481
S'crat\xc3\xa8re'
p2482
tp2483
tp2484
F-0.5828972191658495
tp2485
a(((S'NOM'
p2486
S'quarantaine'
p2487
tp2488
(S'NOM'
p2489
S'crat\xc3\xa8re'
p2490
tp2491
tp2492
F-0.5828972191658495
tp2493
a(((S'NOM'
p2494
S'abondance'
p2495
tp2496
(S'NOM'
p2497
S'crat\xc3\xa8re'
p2498
tp2499
tp2500
F-0.5828972191658495
tp2501
a(((S'NOM'
p2502
S'exemple'
p2503
tp2504
g288
tp2505
F-0.5856699036068116
tp2506
a(((S'NAM'
p2507
S'auvergne'
p2508
tp2509
g2398
tp2510
F-0.5919843399479572
tp2511
a(((S'NOM'
p2512
S'crat\xc3\xa8re'
p2513
tp2514
(S'NOM'
p2515
S'popocat\xc3\xa9petl'
p2516
tp2517
tp2518
F-0.6174892951488552
tp2519
a(((S'NOM'
p2520
S'crat\xc3\xa8re'
p2521
tp2522
(S'NOM'
p2523
S'pariou'
p2524
tp2525
tp2526
F-0.6174892951488552
tp2527
a(((S'NOM'
p2528
S'crat\xc3\xa8re'
p2529
tp2530
(S'NOM'
p2531
S'charge'
p2532
tp2533
tp2534
F-0.6174892951488552
tp2535
a(((S'NOM'
p2536
S'crat\xc3\xa8re'
p2537
tp2538
(S'NOM'
p2539
S'caldera'
p2540
tp2541
tp2542
F-0.6185210693466676
tp2543
a(((S'NOM'
p2544
S'apparition'
p2545
tp2546
(S'NOM'
p2547
S'crat\xc3\xa8re'
p2548
tp2549
tp2550
F-0.6229435673207411
tp2551
a(((S'NOM'
p2552
S'ext\xc3\xa9rieur'
p2553
tp2554
(S'NOM'
p2555
S'crat\xc3\xa8re'
p2556
tp2557
tp2558
F-0.6229435673207411
tp2559
a(((S'NOM'
p2560
S'd\xc3\xa9bris'
p2561
tp2562
(S'NOM'
p2563
S'effet'
p2564
tp2565
tp2566
F-0.634525703318561
tp2567
a(((S'NOM'
p2568
S'pied'
p2569
tp2570
(S'NOM'
p2571
S'c\xc3\xb4ne'
p2572
tp2573
tp2574
F-0.639965143696378
tp2575
a(((S'NOM'
p2576
S'minute'
p2577
tp2578
(S'NOM'
p2579
S'c\xc3\xb4ne'
p2580
tp2581
tp2582
F-0.6423730035250911
tp2583
a(((S'NOM'
p2584
S'mesure'
p2585
tp2586
(S'NOM'
p2587
S'basalte'
p2588
tp2589
tp2590
F-0.64739657385379
tp2591
a((g1436
(S'NOM'
p2592
S'mineur'
p2593
tp2594
tp2595
F-0.6544075702598158
tp2596
a(((S'NAM'
p2597
S'pariou'
p2598
tp2599
(S'NOM'
p2600
S'crat\xc3\xa8re'
p2601
tp2602
tp2603
F-0.66174306396389
tp2604
a(((S'NOM'
p2605
S'croissance'
p2606
tp2607
(S'NOM'
p2608
S'crat\xc3\xa8re'
p2609
tp2610
tp2611
F-0.66174306396389
tp2612
a(((S'NOM'
p2613
S'basalte'
p2614
tp2615
(S'NOM'
p2616
S'cro\xc3\xbbte'
p2617
tp2618
tp2619
F-0.6646609074939367
tp2620
a(((S'NOM'
p2621
S'basalte'
p2622
tp2623
(S'NAM'
p2624
S'etna'
p2625
tp2626
tp2627
F-0.6826894262404325
tp2628
a(((S'NOM'
p2629
S'd\xc3\xa9bris'
p2630
tp2631
(S'NOM'
p2632
S'explosion'
p2633
tp2634
tp2635
F-0.6889493003972346
tp2636
a(((S'NOM'
p2637
S'crat\xc3\xa8re'
p2638
tp2639
(S'NAM'
p2640
S'merapi'
p2641
tp2642
tp2643
F-0.6902701948165026
tp2644
a(((S'NOM'
p2645
S'flanc'
p2646
tp2647
(S'NOM'
p2648
S'c\xc3\xb4ne'
p2649
tp2650
tp2651
F-0.7034353640942688
tp2652
a((g142
(S'NOM'
p2653
S'terre'
p2654
tp2655
tp2656
F-0.7347106436636077
tp2657
a(((S'NAM'
p2658
S'vanuatu'
p2659
tp2660
g944
tp2661
F-0.7359612939253078
tp2662
a(((S'NOM'
p2663
S'min\xc3\xa9ral'
p2664
tp2665
(S'NOM'
p2666
S'basalte'
p2667
tp2668
tp2669
F-0.7458114861646961
tp2670
a(((S'NOM'
p2671
S'\xc3\xa9tude'
p2672
tp2673
(S'NOM'
p2674
S'basalte'
p2675
tp2676
tp2677
F-0.7569076905571896
tp2678
a(((S'NOM'
p2679
S'poids'
p2680
tp2681
(S'NOM'
p2682
S'crat\xc3\xa8re'
p2683
tp2684
tp2685
F-0.771536145030011
tp2686
a(((S'NOM'
p2687
S'basalte'
p2688
tp2689
(S'NOM'
p2690
S'photo'
p2691
tp2692
tp2693
F-0.7970372777386309
tp2694
a(((S'NOM'
p2695
S'ensemble'
p2696
tp2697
(S'NOM'
p2698
S'c\xc3\xb4ne'
p2699
tp2700
tp2701
F-0.7983730594348132
tp2702
a(((S'NOM'
p2703
S'd\xc3\xa9bris'
p2704
tp2705
(S'NOM'
p2706
S'jusqu'
p2707
tp2708
tp2709
F-0.8102351547365493
tp2710
a(((S'NOM'
p2711
S'c\xc3\xb4ne'
p2712
tp2713
(S'NOM'
p2714
S'd\xc3\xb4me'
p2715
tp2716
tp2717
F-0.8124589647533261
tp2718
a(((S'NOM'
p2719
S'enfer'
p2720
tp2721
(S'NOM'
p2722
S'crat\xc3\xa8re'
p2723
tp2724
tp2725
F-0.8399494640442849
tp2726
a(((S'NOM'
p2727
S'crat\xc3\xa8re'
p2728
tp2729
(S'NOM'
p2730
S'violence'
p2731
tp2732
tp2733
F-0.8560616213796155
tp2734
a(((S'NOM'
p2735
S'\xc3\xa9difice'
p2736
tp2737
(S'NOM'
p2738
S'c\xc3\xb4ne'
p2739
tp2740
tp2741
F-0.8575670474253392
tp2742
a(((S'NOM'
p2743
S'd\xc3\xa9bris'
p2744
tp2745
(S'NOM'
p2746
S'point'
p2747
tp2748
tp2749
F-0.86135835823904
tp2750
a((g158
(S'NOM'
p2751
S'activit\xc3\xa9'
p2752
tp2753
tp2754
F-0.863916891124624
tp2755
a(((S'NOM'
p2756
S'c\xc3\xb4ne'
p2757
tp2758
(S'NOM'
p2759
S'origine'
p2760
tp2761
tp2762
F-0.87085017163489
tp2763
a(((S'NAM'
p2764
S'java'
p2765
tp2766
(S'NOM'
p2767
S'crat\xc3\xa8re'
p2768
tp2769
tp2770
F-0.880975241498069
tp2771
a(((S'NOM'
p2772
S'cinquante'
p2773
tp2774
g1984
tp2775
F-0.9050846803350759
tp2776
a(((S'NOM'
p2777
S'entrailles'
p2778
tp2779
(S'NOM'
p2780
S'crat\xc3\xa8re'
p2781
tp2782
tp2783
F-0.9050846803350759
tp2784
a((g987
(S'NAM'
p2785
S'stromboli'
p2786
tp2787
tp2788
F-0.918363640211921
tp2789
a(((S'VER:infi'
p2790
S'approcher'
p2791
tp2792
(S'NOM'
p2793
S'crat\xc3\xa8re'
p2794
tp2795
tp2796
F-0.9673177299311954
tp2797
a(((S'NOM'
p2798
S'alentour'
p2799
tp2800
(S'NOM'
p2801
S'crat\xc3\xa8re'
p2802
tp2803
tp2804
F-0.9673177299311954
tp2805
a(((S'NOM'
p2806
S'crat\xc3\xa8re'
p2807
tp2808
(S'NOM'
p2809
S'm\xc3\xa9lange'
p2810
tp2811
tp2812
F-0.9755036126974871
tp2813
a(((S'NOM'
p2814
S'plancher'
p2815
tp2816
(S'NOM'
p2817
S'crat\xc3\xa8re'
p2818
tp2819
tp2820
F-0.9974459001544601
tp2821
a(((S'NOM'
p2822
S'sortie'
p2823
tp2824
(S'NOM'
p2825
S'crat\xc3\xa8re'
p2826
tp2827
tp2828
F-0.9974459001544601
tp2829
a(((S'VER:infi'
p2830
S'explorer'
p2831
tp2832
(S'NOM'
p2833
S'crat\xc3\xa8re'
p2834
tp2835
tp2836
F-0.9974459001544601
tp2837
a(((S'NOM'
p2838
S'droit'
p2839
tp2840
(S'NOM'
p2841
S'crat\xc3\xa8re'
p2842
tp2843
tp2844
F-0.9974459001544601
tp2845
a(((S'NOM'
p2846
S'oc\xc3\xa9an'
p2847
tp2848
(S'NOM'
p2849
S'basalte'
p2850
tp2851
tp2852
F-1.0035831706188854
tp2853
a(((S'NOM'
p2854
S'site'
p2855
tp2856
(S'NOM'
p2857
S'c\xc3\xb4ne'
p2858
tp2859
tp2860
F-1.0286255867033156
tp2861
a(((S'NOM'
p2862
S'crat\xc3\xa8re'
p2863
tp2864
(S'NAM'
p2865
S'el'
p2866
tp2867
tp2868
F-1.0316717545204575
tp2869
a(((S'NOM'
p2870
S'environ|environs'
p2871
tp2872
(S'NOM'
p2873
S'crat\xc3\xa8re'
p2874
tp2875
tp2876
F-1.055897213174452
tp2877
a((g1194
(S'NOM'
p2878
S'piton'
p2879
tp2880
tp2881
F-1.0713320481265278
tp2882
a(((S'NOM'
p2883
S'exploration'
p2884
tp2885
(S'NOM'
p2886
S'crat\xc3\xa8re'
p2887
tp2888
tp2889
F-1.0842809715171622
tp2890
a(((S'NOM'
p2891
S'surface'
p2892
tp2893
g2631
tp2894
F-1.0964007206793622
tp2895
a(((S'NOM'
p2896
S'trou'
p2897
tp2898
(S'NOM'
p2899
S'crat\xc3\xa8re'
p2900
tp2901
tp2902
F-1.1121400370604249
tp2903
a(((S'NOM'
p2904
S'crat\xc3\xa8re'
p2905
tp2906
(S'NOM'
p2907
S'arbre'
p2908
tp2909
tp2910
F-1.1380170780291565
tp2911
a(((S'NOM'
p2912
S'glace'
p2913
tp2914
(S'NOM'
p2915
S'c\xc3\xb4ne'
p2916
tp2917
tp2918
F-1.1482451657171988
tp2919
a(((S'NOM'
p2920
S'figure'
p2921
tp2922
g700
tp2923
F-1.1663818720465426
tp2924
a(((S'NOM'
p2925
S'lac'
p2926
tp2927
g2106
tp2928
F-1.202578110451247
tp2929
a(((S'NAM'
p2930
S'crat\xc3\xa8re'
p2931
tp2932
(S'NAM'
p2933
S'maurice'
p2934
tp2935
tp2936
F-1.236552252885562
tp2937
a(((S'NOM'
p2938
S'crat\xc3\xa8re'
p2939
tp2940
(S'NOM'
p2941
S'effondrement'
p2942
tp2943
tp2944
F-1.236552252885562
tp2945
a(((S'NOM'
p2946
S'crat\xc3\xa8re'
p2947
tp2948
(S'NOM'
p2949
S'saison'
p2950
tp2951
tp2952
F-1.2375150475168055
tp2953
a(((S'NOM'
p2954
S'crat\xc3\xa8re'
p2955
tp2956
(S'NOM'
p2957
S'vingtaine'
p2958
tp2959
tp2960
F-1.2375150475168055
tp2961
a(((S'NOM'
p2962
S'crat\xc3\xa8re'
p2963
tp2964
(S'VER:infi'
p2965
S'r\xc3\xa9pandre'
p2966
tp2967
tp2968
F-1.2375150475168055
tp2969
a(((S'NOM'
p2970
S'crat\xc3\xa8re'
p2971
tp2972
(S'NOM'
p2973
S'revanche'
p2974
tp2975
tp2976
F-1.2614517250566522
tp2977
a(((S'NOM'
p2978
S'hiver'
p2979
tp2980
(S'NAM'
p2981
S'crat\xc3\xa8re'
p2982
tp2983
tp2984
F-1.2695533744817418
tp2985
a(((S'NOM'
p2986
S'crat\xc3\xa8re'
p2987
tp2988
(S'NAM'
p2989
S'lune'
p2990
tp2991
tp2992
F-1.28504301673006
tp2993
a(((S'NOM'
p2994
S'vingtaine'
p2995
tp2996
(S'NOM'
p2997
S'crat\xc3\xa8re'
p2998
tp2999
tp3000
F-1.2943470316698742
tp3001
a(((S'NOM'
p3002
S'vertical'
p3003
tp3004
(S'NOM'
p3005
S'crat\xc3\xa8re'
p3006
tp3007
tp3008
F-1.2943470316698742
tp3009
a(((S'NOM'
p3010
S'sommet'
p3011
tp3012
g1183
tp3013
F-1.302771439066986
tp3014
a(((S'NOM'
p3015
S'coul\xc3\xa9e'
p3016
tp3017
(S'NOM'
p3018
S'basalte'
p3019
tp3020
tp3021
F-1.3078107555485048
tp3022
a(((S'NOM'
p3023
S'crat\xc3\xa8re'
p3024
tp3025
(S'NOM'
p3026
S'ligne'
p3027
tp3028
tp3029
F-1.3083022185766713
tp3030
a(((S'NOM'
p3031
S'coul\xc3\xa9e'
p3032
tp3033
(S'NOM'
p3034
S'd\xc3\xa9bris'
p3035
tp3036
tp3037
F-1.3122921529781983
tp3038
a(((S'NOM'
p3039
S'gaz'
p3040
tp3041
(S'NOM'
p3042
S'd\xc3\xa9bris'
p3043
tp3044
tp3045
F-1.3122921529781983
tp3046
a(((S'NOM'
p3047
S'revanche'
p3048
tp3049
(S'NOM'
p3050
S'crat\xc3\xa8re'
p3051
tp3052
tp3053
F-1.3187731897633328
tp3054
a(((S'NOM'
p3055
S's\xc3\xa9rie'
p3056
tp3057
(S'NOM'
p3058
S'crat\xc3\xa8re'
p3059
tp3060
tp3061
F-1.3428462079876833
tp3062
a(((S'NOM'
p3063
S'ouverture'
p3064
tp3065
(S'NOM'
p3066
S'crat\xc3\xa8re'
p3067
tp3068
tp3069
F-1.3428462079876833
tp3070
a(((S'NOM'
p3071
S'd\xc3\xa9couverte'
p3072
tp3073
g2438
tp3074
F-1.3463503758110962
tp3075
a(((S'NOM'
p3076
S'crat\xc3\xa8re'
p3077
tp3078
(S'VER:infi'
p3079
S'assurer'
p3080
tp3081
tp3082
F-1.3538736743037512
tp3083
a(((S'NOM'
p3084
S'proximit\xc3\xa9'
p3085
tp3086
(S'NOM'
p3087
S'crat\xc3\xa8re'
p3088
tp3089
tp3090
F-1.3665795829257195
tp3091
a(((S'NOM'
p3092
S'altitude'
p3093
tp3094
(S'NOM'
p3095
S'c\xc3\xb4ne'
p3096
tp3097
tp3098
F-1.3807227011915937
tp3099
a(((S'NOM'
p3100
S'crat\xc3\xa8re'
p3101
tp3102
(S'NOM'
p3103
S'contraire'
p3104
tp3105
tp3106
F-1.3982578259175955
tp3107
a((g1473
(S'NAM'
p3108
S'haroun'
p3109
tp3110
tp3111
F-1.3982578259175955
tp3112
a(((S'NOM'
p3113
S'crat\xc3\xa8re'
p3114
tp3115
(S'NOM'
p3116
S'sud-est'
p3117
tp3118
tp3119
F-1.4200305748288087
tp3120
a(((S'NOM'
p3121
S'sud-est'
p3122
tp3123
(S'NOM'
p3124
S'crat\xc3\xa8re'
p3125
tp3126
tp3127
F-1.4805718946959394
tp3128
a(((S'NOM'
p3129
S'crat\xc3\xa8re'
p3130
tp3131
(S'NOM'
p3132
S't\xc3\xaate'
p3133
tp3134
tp3135
F-1.4837829093815782
tp3136
a(((S'NOM'
p3137
S'crat\xc3\xa8re'
p3138
tp3139
(S'NAM'
p3140
S'santorin'
p3141
tp3142
tp3143
F-1.5250630205823679
tp3144
a(((S'NOM'
p3145
S'centaine'
p3146
tp3147
(S'NOM'
p3148
S'c\xc3\xb4ne'
p3149
tp3150
tp3151
F-1.5267491916349483
tp3152
a(((S'NOM'
p3153
S'forme'
p3154
tp3155
(S'NOM'
p3156
S'c\xc3\xb4ne'
p3157
tp3158
tp3159
F-1.5267491916349483
tp3160
a(((S'NOM'
p3161
S'situation'
p3162
tp3163
(S'NOM'
p3164
S'crat\xc3\xa8re'
p3165
tp3166
tp3167
F-1.5456029498533406
tp3168
a(((S'NOM'
p3169
S'tour'
p3170
tp3171
g3078
tp3172
F-1.5531946801970067
tp3173
a(((S'NOM'
p3174
S'peine'
p3175
tp3176
g2514
tp3177
F-1.5667737791543919
tp3178
a(((S'NOM'
p3179
S'basalte'
p3180
tp3181
(S'NOM'
p3182
S'roche'
p3183
tp3184
tp3185
F-1.567089020966612
tp3186
a(((S'NOM'
p3187
S'terre'
p3188
tp3189
g1080
tp3190
F-1.5753856845105694
tp3191
a(((S'NOM'
p3192
S'crat\xc3\xa8re'
p3193
tp3194
(S'NOM'
p3195
S'onde'
p3196
tp3197
tp3198
F-1.585299950377412
tp3199
a((g2803
(S'NOM'
p3200
S'particule'
p3201
tp3202
tp3203
F-1.585299950377412
tp3204
a(((S'NOM'
p3205
S'animal'
p3206
tp3207
g530
tp3208
F-1.5877047664276214
tp3209
a(((S'VER:infi'
p3210
S'plonger'
p3211
tp3212
(S'NOM'
p3213
S'crat\xc3\xa8re'
p3214
tp3215
tp3216
F-1.6084032804677886
tp3217
a(((S'NOM'
p3218
S'plaque'
p3219
tp3220
g493
tp3221
F-1.628184485131577
tp3222
a(((S'NOM'
p3223
S'face'
p3224
tp3225
(S'NOM'
p3226
S'crat\xc3\xa8re'
p3227
tp3228
tp3229
F-1.6491306210168877
tp3230
a(((S'NOM'
p3231
S'crat\xc3\xa8re'
p3232
tp3233
(S'NAM'
p3234
S'nyos'
p3235
tp3236
tp3237
F-1.662744103567166
tp3238
a(((S'NOM'
p3239
S'crat\xc3\xa8re'
p3240
tp3241
(S'NOM'
p3242
S'station'
p3243
tp3244
tp3245
F-1.681630490001723
tp3246
a((g1788
(S'NAM'
p3247
S'maurice'
p3248
tp3249
tp3250
F-1.7003373492475158
tp3251
a(((S'NOM'
p3252
S'fond|fonds'
p3253
tp3254
(S'NOM'
p3255
S'crat\xc3\xa8re'
p3256
tp3257
tp3258
F-1.708643156568625
tp3259
a(((S'NOM'
p3260
S'faille'
p3261
tp3262
(S'NOM'
p3263
S'crat\xc3\xa8re'
p3264
tp3265
tp3266
F-1.708643156568625
tp3267
a(((S'NOM'
p3268
S'sommet'
p3269
tp3270
g2538
tp3271
F-1.7363351388539563
tp3272
a(((S'NOM'
p3273
S'crat\xc3\xa8re'
p3274
tp3275
(S'NOM'
p3276
S'ordre'
p3277
tp3278
tp3279
F-1.7372314199126337
tp3280
a(((S'NOM'
p3281
S'v\xc3\xa9g\xc3\xa9tation'
p3282
tp3283
(S'NOM'
p3284
S'crat\xc3\xa8re'
p3285
tp3286
tp3287
F-1.747333782133561
tp3288
a(((S'NOM'
p3289
S'crat\xc3\xa8re'
p3290
tp3291
(S'NOM'
p3292
S'total'
p3293
tp3294
tp3295
F-1.755427611103843
tp3296
a(((S'NOM'
p3297
S'effondrement'
p3298
tp3299
g2217
tp3300
F-1.7663997338637791
tp3301
a(((S'NOM'
p3302
S'crat\xc3\xa8re'
p3303
tp3304
(S'NOM'
p3305
S'projection'
p3306
tp3307
tp3308
F-1.809062947452301
tp3309
a(((S'NOM'
p3310
S'crat\xc3\xa8re'
p3311
tp3312
(S'NOM'
p3313
S'kilauea'
p3314
tp3315
tp3316
F-1.8266366241446577
tp3317
a(((S'NOM'
p3318
S'crat\xc3\xa8re'
p3319
tp3320
(S'NOM'
p3321
S'd\xc3\xa9p\xc3\xb4t'
p3322
tp3323
tp3324
F-1.8408005214765517
tp3325
a(((S'NOM'
p3326
S'terme'
p3327
tp3328
(S'NOM'
p3329
S'crat\xc3\xa8re'
p3330
tp3331
tp3332
F-1.8409125614048993
tp3333
a(((S'NOM'
p3334
S'crat\xc3\xa8re'
p3335
tp3336
(S'NOM'
p3337
S'bouche'
p3338
tp3339
tp3340
F-1.8440640315746692
tp3341
a(((S'NOM'
p3342
S'int\xc3\xa9rieur'
p3343
tp3344
(S'NOM'
p3345
S'crat\xc3\xa8re'
p3346
tp3347
tp3348
F-1.8478186949214355
tp3349
a(((S'NOM'
p3350
S'surface'
p3351
tp3352
g3181
tp3353
F-1.848854890218857
tp3354
a((g2835
(S'NOM'
p3355
S'fumerolle'
p3356
tp3357
tp3358
F-1.8572922782661465
tp3359
a(((S'NOM'
p3360
S'crat\xc3\xa8re'
p3361
tp3362
(S'NOM'
p3363
S'd\xc3\xa9cembre'
p3364
tp3365
tp3366
F-1.8613486309150837
tp3367
a(((S'NOM'
p3368
S'pente'
p3369
tp3370
(S'NOM'
p3371
S'crat\xc3\xa8re'
p3372
tp3373
tp3374
F-1.8730862036403548
tp3375
a(((S'NOM'
p3376
S'projection'
p3377
tp3378
(S'NOM'
p3379
S'crat\xc3\xa8re'
p3380
tp3381
tp3382
F-1.8771792772273315
tp3383
a(((S'NAM'
p3384
S'stromboli'
p3385
tp3386
(S'NOM'
p3387
S'crat\xc3\xa8re'
p3388
tp3389
tp3390
F-1.8771792772273315
tp3391
a((g1974
(S'NOM'
p3392
S'surface'
p3393
tp3394
tp3395
F-1.8953023381131584
tp3396
a(((S'NOM'
p3397
S'bouche'
p3398
tp3399
(S'NOM'
p3400
S'crat\xc3\xa8re'
p3401
tp3402
tp3403
F-1.9128285646512917
tp3404
a(((S'NOM'
p3405
S'nombre'
p3406
tp3407
(S'NOM'
p3408
S'crat\xc3\xa8re'
p3409
tp3410
tp3411
F-1.9304307578026851
tp3412
a(((S'NOM'
p3413
S'fumerolle'
p3414
tp3415
(S'NOM'
p3416
S'crat\xc3\xa8re'
p3417
tp3418
tp3419
F-1.93263538023572
tp3420
a(((S'NOM'
p3421
S'partie'
p3422
tp3423
(S'NOM'
p3424
S'c\xc3\xb4ne'
p3425
tp3426
tp3427
F-1.9332131514995905
tp3428
a(((S'NOM'
p3429
S'roche'
p3430
tp3431
(S'NOM'
p3432
S'basalte'
p3433
tp3434
tp3435
F-1.9400154061711978
tp3436
a(((S'NOM'
p3437
S'coup'
p3438
tp3439
(S'NOM'
p3440
S'crat\xc3\xa8re'
p3441
tp3442
tp3443
F-1.947889225867832
tp3444
a(((S'NOM'
p3445
S'abord'
p3446
tp3447
(S'NOM'
p3448
S'crat\xc3\xa8re'
p3449
tp3450
tp3451
F-1.9492429426824274
tp3452
a(((S'NOM'
p3453
S'explosion'
p3454
tp3455
(S'NOM'
p3456
S'c\xc3\xb4ne'
p3457
tp3458
tp3459
F-1.972306024989586
tp3460
a((g299
(S'NAM'
p3461
S'roche'
p3462
tp3463
tp3464
F-1.9923452179887289
tp3465
a(((S'NOM'
p3466
S'crat\xc3\xa8re'
p3467
tp3468
(S'NAM'
p3469
S'etna'
p3470
tp3471
tp3472
F-2.009015369799758
tp3473
a(((S'VER:infi'
p3474
S'tomber'
p3475
tp3476
(S'NOM'
p3477
S'crat\xc3\xa8re'
p3478
tp3479
tp3480
F-2.0163495978909944
tp3481
a(((S'VER:infi'
p3482
S'descendre'
p3483
tp3484
(S'NOM'
p3485
S'crat\xc3\xa8re'
p3486
tp3487
tp3488
F-2.0663350592531478
tp3489
a(((S'NOM'
p3490
S'crat\xc3\xa8re'
p3491
tp3492
(S'NOM'
p3493
S'fer'
p3494
tp3495
tp3496
F-2.074418589775604
tp3497
a((g2610
(S'NAM'
p3498
S'am\xc3\xa9rique'
p3499
tp3500
tp3501
F-2.0900053687863798
tp3502
a((g1428
(S'NOM'
p3503
S'naissance'
p3504
tp3505
tp3506
F-2.0900053687863798
tp3507
a(((S'NAM'
p3508
S'vieux'
p3509
tp3510
(S'NOM'
p3511
S'crat\xc3\xa8re'
p3512
tp3513
tp3514
F-2.115235155323755
tp3515
a(((S'NOM'
p3516
S'naissance'
p3517
tp3518
(S'NOM'
p3519
S'crat\xc3\xa8re'
p3520
tp3521
tp3522
F-2.1631145476215603
tp3523
a(((S'NOM'
p3524
S'crat\xc3\xa8re'
p3525
tp3526
(S'NOM'
p3527
S'caldeira'
p3528
tp3529
tp3530
F-2.1664279191914764
tp3531
a((g1664
(S'NAM'
p3532
S'caldeira'
p3533
tp3534
tp3535
F-2.1664279191914764
tp3536
a(((S'NOM'
p3537
S'basalte'
p3538
tp3539
(S'NOM'
p3540
S'gaz'
p3541
tp3542
tp3543
F-2.1736825193132
tp3544
a(((S'NOM'
p3545
S'mer'
p3546
tp3547
(S'NOM'
p3548
S'c\xc3\xb4ne'
p3549
tp3550
tp3551
F-2.173812084908656
tp3552
a(((S'NOM'
p3553
S'crat\xc3\xa8re'
p3554
tp3555
(S'NOM'
p3556
S'c\xc5\x93ur'
p3557
tp3558
tp3559
F-2.196326410430502
tp3560
a(((S'NOM'
p3561
S'crat\xc3\xa8re'
p3562
tp3563
(S'NOM'
p3564
S'plupart'
p3565
tp3566
tp3567
F-2.196326410430502
tp3568
a(((S'NOM'
p3569
S'\xc5\x93il'
p3570
tp3571
(S'NOM'
p3572
S'crat\xc3\xa8re'
p3573
tp3574
tp3575
F-2.2100319018111647
tp3576
a((g2135
(S'NAM'
p3577
S'rivi\xc3\xa8re'
p3578
tp3579
tp3580
F-2.2404986071719226
tp3581
a(((S'NOM'
p3582
S'caldeira'
p3583
tp3584
(S'NOM'
p3585
S'crat\xc3\xa8re'
p3586
tp3587
tp3588
F-2.2408022423279217
tp3589
a(((S'NOM'
p3590
S'plupart'
p3591
tp3592
(S'NOM'
p3593
S'crat\xc3\xa8re'
p3594
tp3595
tp3596
F-2.271183497713337
tp3597
a(((S'NOM'
p3598
S'raison'
p3599
tp3600
(S'NOM'
p3601
S'crat\xc3\xa8re'
p3602
tp3603
tp3604
F-2.2862325665740557
tp3605
a((g1290
(S'NOM'
p3606
S'\xc3\xa9nergie'
p3607
tp3608
tp3609
F-2.298198935516246
tp3610
a(((S'NOM'
p3611
S'lave'
p3612
tp3613
(S'NOM'
p3614
S'd\xc3\xa9bris'
p3615
tp3616
tp3617
F-2.3110736517288095
tp3618
a(((S'NOM'
p3619
S'crat\xc3\xa8re'
p3620
tp3621
(S'VER:infi'
p3622
S'\xc3\xa9tudier'
p3623
tp3624
tp3625
F-2.3124200852742205
tp3626
a(((S'NOM'
p3627
S'crat\xc3\xa8re'
p3628
tp3629
(S'NOM'
p3630
S'mission'
p3631
tp3632
tp3633
F-2.3124200852742205
tp3634
a(((S'NOM'
p3635
S'crat\xc3\xa8re'
p3636
tp3637
(S'NOM'
p3638
S'chemin\xc3\xa9e'
p3639
tp3640
tp3641
F-2.3546155237893878
tp3642
a((g1720
(S'NOM'
p3643
S'milieu'
p3644
tp3645
tp3646
F-2.3685288686950234
tp3647
a(((S'NOM'
p3648
S'crat\xc3\xa8re'
p3649
tp3650
(S'NOM'
p3651
S'pluie'
p3652
tp3653
tp3654
F-2.3758367681334707
tp3655
a(((S'NOM'
p3656
S'milieu'
p3657
tp3658
(S'NOM'
p3659
S'crat\xc3\xa8re'
p3660
tp3661
tp3662
F-2.4460225947966414
tp3663
a(((S'NOM'
p3664
S'ciel'
p3665
tp3666
(S'NOM'
p3667
S'crat\xc3\xa8re'
p3668
tp3669
tp3670
F-2.4460225947966414
tp3671
a(((S'NOM'
p3672
S'basalte'
p3673
tp3674
(S'NOM'
p3675
S'\xc3\xaele'
p3676
tp3677
tp3678
F-2.4489788541931676
tp3679
a(((S'NOM'
p3680
S'crat\xc3\xa8re'
p3681
tp3682
(S'NOM'
p3683
S'bombe'
p3684
tp3685
tp3686
F-2.4639169155421667
tp3687
a(((S'NOM'
p3688
S'crat\xc3\xa8re'
p3689
tp3690
(S'NOM'
p3691
S'vall\xc3\xa9e'
p3692
tp3693
tp3694
F-2.4772702840305785
tp3695
a(((S'NOM'
p3696
S'c\xc3\xb4ne'
p3697
tp3698
(S'NOM'
p3699
S'crat\xc3\xa8re'
p3700
tp3701
tp3702
F-2.5130216140385775
tp3703
a(((S'VER:infi'
p3704
S'sortir'
p3705
tp3706
(S'NOM'
p3707
S'crat\xc3\xa8re'
p3708
tp3709
tp3710
F-2.5154797175599053
tp3711
a(((S'VER:infi'
p3712
S'rendre'
p3713
tp3714
(S'NOM'
p3715
S'crat\xc3\xa8re'
p3716
tp3717
tp3718
F-2.52915368409999
tp3719
a(((S'NOM'
p3720
S'an'
p3721
tp3722
(S'NOM'
p3723
S'c\xc3\xb4ne'
p3724
tp3725
tp3726
F-2.530280069264986
tp3727
a(((S'NOM'
p3728
S'crat\xc3\xa8re'
p3729
tp3730
(S'NOM'
p3731
S'pinatubo'
p3732
tp3733
tp3734
F-2.5422815062268103
tp3735
a(((S'NOM'
p3736
S'crat\xc3\xa8re'
p3737
tp3738
(S'NOM'
p3739
S'bord'
p3740
tp3741
tp3742
F-2.55605145168997
tp3743
a(((S'NOM'
p3744
S'surface'
p3745
tp3746
(S'NOM'
p3747
S'c\xc3\xb4ne'
p3748
tp3749
tp3750
F-2.562454133618179
tp3751
a(((S'NOM'
p3752
S'crat\xc3\xa8re'
p3753
tp3754
(S'NOM'
p3755
S'vapeur'
p3756
tp3757
tp3758
F-2.568966900499937
tp3759
a(((S'NOM'
p3760
S'crat\xc3\xa8re'
p3761
tp3762
(S'NOM'
p3763
S'formation'
p3764
tp3765
tp3766
F-2.568966900499937
tp3767
a(((S'NOM'
p3768
S'crat\xc3\xa8re'
p3769
tp3770
(S'NAM'
p3771
S'r\xc3\xa9union'
p3772
tp3773
tp3774
F-2.5818232791684936
tp3775
a(((S'NAM'
p3776
S'hawaii'
p3777
tp3778
g3312
tp3779
F-2.609763416560096
tp3780
a(((S'NOM'
p3781
S'magma'
p3782
tp3783
(S'NOM'
p3784
S'c\xc3\xb4ne'
p3785
tp3786
tp3787
F-2.615851490202244
tp3788
a(((S'NOM'
p3789
S'continent'
p3790
tp3791
(S'NOM'
p3792
S'crat\xc3\xa8re'
p3793
tp3794
tp3795
F-2.636110169682856
tp3796
a((g1266
(S'NOM'
p3797
S'piton'
p3798
tp3799
tp3800
F-2.645931357905115
tp3801
a(((S'NOM'
p3802
S'travail'
p3803
tp3804
(S'NOM'
p3805
S'crat\xc3\xa8re'
p3806
tp3807
tp3808
F-2.6622074092685106
tp3809
a(((S'NOM'
p3810
S'c\xc3\xb4ne'
p3811
tp3812
(S'NOM'
p3813
S'magma'
p3814
tp3815
tp3816
F-2.668635524091234
tp3817
a(((S'NOM'
p3818
S'crat\xc3\xa8re'
p3819
tp3820
(S'NOM'
p3821
S'champ'
p3822
tp3823
tp3824
F-2.6702301586555337
tp3825
a(((S'NOM'
p3826
S'crat\xc3\xa8re'
p3827
tp3828
g2713
tp3829
F-2.730875074014887
tp3830
a(((S'NOM'
p3831
S'niveau'
p3832
tp3833
g708
tp3834
F-2.7516778005871974
tp3835
a(((S'NOM'
p3836
S'crat\xc3\xa8re'
p3837
tp3838
(S'NOM'
p3839
S'fissure'
p3840
tp3841
tp3842
F-2.7801054751119962
tp3843
a(((S'NOM'
p3844
S'place'
p3845
tp3846
g2422
tp3847
F-2.8035199479717368
tp3848
a(((S'NOM'
p3849
S'crat\xc3\xa8re'
p3850
tp3851
(S'NAM'
p3852
S'v\xc3\xa9suve'
p3853
tp3854
tp3855
F-2.8039858818818297
tp3856
a(((S'NAM'
p3857
S'indon\xc3\xa9sie_'
p3858
tp3859
(S'NOM'
p3860
S'crat\xc3\xa8re'
p3861
tp3862
tp3863
F-2.8261978619206056
tp3864
a((g2875
(S'NOM'
p3865
S'air'
p3866
tp3867
tp3868
F-2.8276814053004484
tp3869
a(((S'NOM'
p3870
S'crat\xc3\xa8re'
p3871
tp3872
(S'NOM'
p3873
S'photo'
p3874
tp3875
tp3876
F-2.8277313326444413
tp3877
a(((S'NOM'
p3878
S'cendre'
p3879
tp3880
g2467
tp3881
F-2.8381243867226322
tp3882
a(((S'NOM'
p3883
S'crat\xc3\xa8re'
p3884
tp3885
(S'NOM'
p3886
S'diam\xc3\xa8tre'
p3887
tp3888
tp3889
F-2.8628875000009355
tp3890
a(((S'NOM'
p3891
S'crat\xc3\xa8re'
p3892
tp3893
(S'NOM'
p3894
S'village'
p3895
tp3896
tp3897
F-2.920699225227875
tp3898
a(((S'VER:infi'
p3899
S'appara\xc3\xaetre'
p3900
tp3901
(S'NOM'
p3902
S'crat\xc3\xa8re'
p3903
tp3904
tp3905
F-2.9345523703351692
tp3906
a(((S'NOM'
p3907
S'd\xc3\xb4me'
p3908
tp3909
(S'NOM'
p3910
S'crat\xc3\xa8re'
p3911
tp3912
tp3913
F-2.9368222309933345
tp3914
a(((S'NOM'
p3915
S'crat\xc3\xa8re'
p3916
tp3917
(S'NOM'
p3918
S'forme'
p3919
tp3920
tp3921
F-2.9405516562358294
tp3922
a((g647
(S'NAM'
p3923
S'coul\xc3\xa9e'
p3924
tp3925
tp3926
F-2.946068760305404
tp3927
a(((S'NOM'
p3928
S'c\xc3\xb4ne'
p3929
tp3930
(S'NOM'
p3931
S'coul\xc3\xa9e'
p3932
tp3933
tp3934
F-2.946068760305404
tp3935
a(((S'NOM'
p3936
S'diam\xc3\xa8tre'
p3937
tp3938
g615
tp3939
F-2.9463537538799884
tp3940
a(((S'NOM'
p3941
S'cas'
p3942
tp3943
(S'NOM'
p3944
S'crat\xc3\xa8re'
p3945
tp3946
tp3947
F-2.9570025945633214
tp3948
a(((S'NOM'
p3949
S'pied'
p3950
tp3951
(S'NOM'
p3952
S'crat\xc3\xa8re'
p3953
tp3954
tp3955
F-2.968507236447264
tp3956
a(((S'NOM'
p3957
S'crat\xc3\xa8re'
p3958
tp3959
(S'VER:infi'
p3960
S'observer'
p3961
tp3962
tp3963
F-2.999918226695744
tp3964
a(((S'NAM'
p3965
S'france'
p3966
tp3967
(S'NAM'
p3968
S'crat\xc3\xa8re'
p3969
tp3970
tp3971
F-3.0046866515654007
tp3972
a(((S'NOM'
p3973
S'crat\xc3\xa8re'
p3974
tp3975
(S'NOM'
p3976
S'place'
p3977
tp3978
tp3979
F-3.0222026063355587
tp3980
a(((S'NOM'
p3981
S'basalte'
p3982
tp3983
(S'NOM'
p3984
S'lave'
p3985
tp3986
tp3987
F-3.0352706335871464
tp3988
a(((S'NOM'
p3989
S'flanc'
p3990
tp3991
(S'NOM'
p3992
S'crat\xc3\xa8re'
p3993
tp3994
tp3995
F-3.0591059302129526
tp3996
a(((S'NOM'
p3997
S'crat\xc3\xa8re'
p3998
tp3999
(S'VER:infi'
p4000
S'arriver'
p4001
tp4002
tp4003
F-3.0663262515376726
tp4004
a(((S'NOM'
p4005
S'glacier'
p4006
tp4007
(S'NOM'
p4008
S'crat\xc3\xa8re'
p4009
tp4010
tp4011
F-3.0732671552541904
tp4012
a(((S'VER:infi'
p4013
S'partir'
p4014
tp4015
(S'NOM'
p4016
S'crat\xc3\xa8re'
p4017
tp4018
tp4019
F-3.081336153350421
tp4020
a(((S'NOM'
p4021
S'lave'
p4022
tp4023
(S'NOM'
p4024
S'basalte'
p4025
tp4026
tp4027
F-3.0820579369726935
tp4028
a(((S'NOM'
p4029
S'millier'
p4030
tp4031
(S'NOM'
p4032
S'crat\xc3\xa8re'
p4033
tp4034
tp4035
F-3.1181725732756447
tp4036
a(((S'NOM'
p4037
S'cent'
p4038
tp4039
(S'NOM'
p4040
S'crat\xc3\xa8re'
p4041
tp4042
tp4043
F-3.1514427602523964
tp4044
a(((S'NOM'
p4045
S'crat\xc3\xa8re'
p4046
tp4047
(S'NOM'
p4048
S'soufre'
p4049
tp4050
tp4051
F-3.163542444213972
tp4052
a((g679
(S'NOM'
p4053
S'cas'
p4054
tp4055
tp4056
F-3.163542444213972
tp4057
a((g3912
(S'NOM'
p4058
S'cha\xc3\xaene'
p4059
tp4060
tp4061
F-3.220064531823853
tp4062
a(((S'NOM'
p4063
S'soufre'
p4064
tp4065
(S'NOM'
p4066
S'crat\xc3\xa8re'
p4067
tp4068
tp4069
F-3.2492599502032133
tp4070
a(((S'NOM'
p4071
S'pierre'
p4072
tp4073
(S'NOM'
p4074
S'crat\xc3\xa8re'
p4075
tp4076
tp4077
F-3.2492599502032133
tp4078
a(((S'NOM'
p4079
S'centre'
p4080
tp4081
(S'NOM'
p4082
S'crat\xc3\xa8re'
p4083
tp4084
tp4085
F-3.2823735413055903
tp4086
a((g2782
(S'NOM'
p4087
S'sommet'
p4088
tp4089
tp4090
F-3.329952658656252
tp4091
a(((S'NOM'
p4092
S'crat\xc3\xa8re'
p4093
tp4094
(S'NOM'
p4095
S'feu'
p4096
tp4097
tp4098
F-3.3526064036437657
tp4099
a(((S'NOM'
p4100
S'crat\xc3\xa8re'
p4101
tp4102
(S'NOM'
p4103
S'd\xc3\xb4me'
p4104
tp4105
tp4106
F-3.400417829339054
tp4107
a(((S'NOM'
p4108
S'mont'
p4109
tp4110
g1247
tp4111
F-3.429210783136429
tp4112
a(((S'NOM'
p4113
S'crat\xc3\xa8re'
p4114
tp4115
(S'NOM'
p4116
S'altitude'
p4117
tp4118
tp4119
F-3.4597763834724424
tp4120
a(((S'NOM'
p4121
S'photo'
p4122
tp4123
g3730
tp4124
F-3.4670116803746804
tp4125
a((g3410
(S'NOM'
p4126
S'origine'
p4127
tp4128
tp4129
F-3.4793580521532173
tp4130
a((g3126
(S'NOM'
p4131
S'habitant'
p4132
tp4133
tp4134
F-3.508544545191974
tp4135
a(((S'NOM'
p4136
S'sol'
p4137
tp4138
g400
tp4139
F-3.516909195077142
tp4140
a((g2085
(S'VER:infi'
p4141
S'partir'
p4142
tp4143
tp4144
F-3.5278805261650183
tp4145
a(((S'NOM'
p4146
S'crat\xc3\xa8re'
p4147
tp4148
(S'NOM'
p4149
S'savoir'
p4150
tp4151
tp4152
F-3.5375125949141792
tp4153
a(((S'NOM'
p4154
S'\xc3\xaele'
p4155
tp4156
(S'NOM'
p4157
S'c\xc3\xb4ne'
p4158
tp4159
tp4160
F-3.5491235579541875
tp4161
a(((S'NOM'
p4162
S'crat\xc3\xa8re'
p4163
tp4164
(S'NOM'
p4165
S'fond'
p4166
tp4167
tp4168
F-3.5662673777698295
tp4169
a((g1918
(S'NOM'
p4170
S'panache'
p4171
tp4172
tp4173
F-3.5662673777698295
tp4174
a((g2795
(S'NOM'
p4175
S'cour|cours'
p4176
tp4177
tp4178
F-3.585321218928931
tp4179
a((g254
(S'NOM'
p4180
S'lave'
p4181
tp4182
tp4183
F-3.5896668776188205
tp4184
a(((S'NOM'
p4185
S'crat\xc3\xa8re'
p4186
tp4187
(S'NOM'
p4188
S'mont'
p4189
tp4190
tp4191
F-3.6042839221461827
tp4192
a(((S'NOM'
p4193
S'crat\xc3\xa8re'
p4194
tp4195
(S'NAM'
p4196
S'mont'
p4197
tp4198
tp4199
F-3.6042839221461827
tp4200
a(((S'VER:infi'
p4201
S'savoir'
p4202
tp4203
(S'NOM'
p4204
S'crat\xc3\xa8re'
p4205
tp4206
tp4207
F-3.6243083180496862
tp4208
a(((S'NOM'
p4209
S'crat\xc3\xa8re'
p4210
tp4211
(S'NOM'
p4212
S'explosion'
p4213
tp4214
tp4215
F-3.6266863470158057
tp4216
a(((S'NOM'
p4217
S'volcan'
p4218
tp4219
(S'NOM'
p4220
S'd\xc3\xa9bris'
p4221
tp4222
tp4223
F-3.6311040894128443
tp4224
a(((S'NOM'
p4225
S'feu'
p4226
tp4227
g3999
tp4228
F-3.7004911210624702
tp4229
a(((S'NOM'
p4230
S'crat\xc3\xa8re'
p4231
tp4232
(S'NOM'
p4233
S'centre'
p4234
tp4235
tp4236
F-3.7070103335284443
tp4237
a(((S'NAM'
p4238
S'islande'
p4239
tp4240
(S'NOM'
p4241
S'crat\xc3\xa8re'
p4242
tp4243
tp4244
F-3.709905678857109
tp4245
a(((S'NOM'
p4246
S'crat\xc3\xa8re'
p4247
tp4248
(S'NOM'
p4249
S'plan\xc3\xa8te'
p4250
tp4251
tp4252
F-3.725413158321434
tp4253
a(((S'NOM'
p4254
S'forme'
p4255
tp4256
(S'NOM'
p4257
S'crat\xc3\xa8re'
p4258
tp4259
tp4260
F-3.793600835908271
tp4261
a(((S'NOM'
p4262
S'centaine'
p4263
tp4264
(S'NOM'
p4265
S'crat\xc3\xa8re'
p4266
tp4267
tp4268
F-3.793600835908271
tp4269
a(((S'NOM'
p4270
S'c\xc3\xb4ne'
p4271
tp4272
(S'NOM'
p4273
S'lave'
p4274
tp4275
tp4276
F-3.8062990760897875
tp4277
a((g451
(S'NOM'
p4278
S'long'
p4279
tp4280
tp4281
F-3.8162282212592813
tp4282
a(((S'NOM'
p4283
S'vie'
p4284
tp4285
(S'NOM'
p4286
S'crat\xc3\xa8re'
p4287
tp4288
tp4289
F-3.9291863967727263
tp4290
a(((S'NOM'
p4291
S'volcanologue'
p4292
tp4293
(S'NOM'
p4294
S'crat\xc3\xa8re'
p4295
tp4296
tp4297
F-3.964569436322517
tp4298
a(((S'NOM'
p4299
S'sud'
p4300
tp4301
(S'NOM'
p4302
S'crat\xc3\xa8re'
p4303
tp4304
tp4305
F-4.068894429773877
tp4306
a(((S'NOM'
p4307
S'volcanisme'
p4308
tp4309
(S'NOM'
p4310
S'crat\xc3\xa8re'
p4311
tp4312
tp4313
F-4.086025898047376
tp4314
a(((S'NOM'
p4315
S'crat\xc3\xa8re'
p4316
tp4317
(S'NOM'
p4318
S'effet'
p4319
tp4320
tp4321
F-4.365231249163993
tp4322
a(((S'NOM'
p4323
S'crat\xc3\xa8re'
p4324
tp4325
(S'NOM'
p4326
S'type'
p4327
tp4328
tp4329
F-4.365231249163993
tp4330
a(((S'NOM'
p4331
S'hui'
p4332
tp4333
(S'NOM'
p4334
S'crat\xc3\xa8re'
p4335
tp4336
tp4337
F-4.37508685788253
tp4338
a(((S'NOM'
p4339
S'lave'
p4340
tp4341
(S'NOM'
p4342
S'c\xc3\xb4ne'
p4343
tp4344
tp4345
F-4.403439208811177
tp4346
a(((S'NOM'
p4347
S'crat\xc3\xa8re'
p4348
tp4349
(S'VER:infi'
p4350
S'voir'
p4351
tp4352
tp4353
F-4.444353268236184
tp4354
a(((S'NOM'
p4355
S'crat\xc3\xa8re'
p4356
tp4357
(S'NOM'
p4358
S'actif'
p4359
tp4360
tp4361
F-4.4678512362261245
tp4362
a(((S'VER:infi'
p4363
S'trouver'
p4364
tp4365
(S'NOM'
p4366
S'crat\xc3\xa8re'
p4367
tp4368
tp4369
F-4.501104444730924
tp4370
a(((S'NOM'
p4371
S'partie'
p4372
tp4373
g936
tp4374
F-4.501104444730924
tp4375
a(((S'VER:infi'
p4376
S'voir'
p4377
tp4378
(S'NOM'
p4379
S'crat\xc3\xa8re'
p4380
tp4381
tp4382
F-4.524345121787888
tp4383
a(((S'NOM'
p4384
S'explosion'
p4385
tp4386
(S'NOM'
p4387
S'crat\xc3\xa8re'
p4388
tp4389
tp4390
F-4.570474661627605
tp4391
a(((S'NOM'
p4392
S'crat\xc3\xa8re'
p4393
tp4394
(S'NOM'
p4395
S'jusqu'
p4396
tp4397
tp4398
F-4.574325530192751
tp4399
a(((S'NOM'
p4400
S'foi|fois'
p4401
tp4402
(S'NOM'
p4403
S'crat\xc3\xa8re'
p4404
tp4405
tp4406
F-4.6312712939897835
tp4407
a(((S'NOM'
p4408
S'montagne'
p4409
tp4410
g368
tp4411
F-4.661374383548533
tp4412
a((g3402
(S'VER:infi'
p4413
S'former'
p4414
tp4415
tp4416
F-4.674704714135242
tp4417
a(((S'NOM'
p4418
S'crat\xc3\xa8re'
p4419
tp4420
(S'NOM'
p4421
S'r\xc3\xa9gion'
p4422
tp4423
tp4424
F-4.712148457351759
tp4425
a(((S'NOM'
p4426
S'jusqu'
p4427
tp4428
g3291
tp4429
F-4.852524249028745
tp4430
a(((S'NOM'
p4431
S'crat\xc3\xa8re'
p4432
tp4433
(S'NOM'
p4434
S'mer'
p4435
tp4436
tp4437
F-4.859444254910393
tp4438
a(((S'NOM'
p4439
S'mer'
p4440
tp4441
(S'NOM'
p4442
S'crat\xc3\xa8re'
p4443
tp4444
tp4445
F-4.931178840523091
tp4446
a(((S'NOM'
p4447
S'point'
p4448
tp4449
g3754
tp4450
F-4.973560079998905
tp4451
a(((S'NOM'
p4452
S'crat\xc3\xa8re'
p4453
tp4454
(S'NOM'
p4455
S'lac'
p4456
tp4457
tp4458
F-5.013069199449779
tp4459
a(((S'NOM'
p4460
S'\xc3\xa9ruption'
p4461
tp4462
(S'NOM'
p4463
S'c\xc3\xb4ne'
p4464
tp4465
tp4466
F-5.049266503447979
tp4467
a(((S'NOM'
p4468
S'jour'
p4469
tp4470
g3275
tp4471
F-5.125545977607488
tp4472
a(((S'NOM'
p4473
S'petit'
p4474
tp4475
(S'NOM'
p4476
S'crat\xc3\xa8re'
p4477
tp4478
tp4479
F-5.456639805497685
tp4480
a(((S'NOM'
p4481
S'crat\xc3\xa8re'
p4482
tp4483
(S'NOM'
p4484
S'activit\xc3\xa9'
p4485
tp4486
tp4487
F-5.545342186208403
tp4488
a(((S'NOM'
p4489
S'crat\xc3\xa8re'
p4490
tp4491
(S'NOM'
p4492
S'monde'
p4493
tp4494
tp4495
F-5.564890565583385
tp4496
a(((S'NOM'
p4497
S'surface'
p4498
tp4499
g2233
tp4500
F-5.639582961284305
tp4501
a(((S'NOM'
p4502
S'magma'
p4503
tp4504
(S'NOM'
p4505
S'crat\xc3\xa8re'
p4506
tp4507
tp4508
F-5.738029666043668
tp4509
a(((S'NOM'
p4510
S'roche'
p4511
tp4512
(S'NOM'
p4513
S'crat\xc3\xa8re'
p4514
tp4515
tp4516
F-5.840817358668102
tp4517
a(((S'NOM'
p4518
S'volcan'
p4519
tp4520
(S'NOM'
p4521
S'c\xc3\xb4ne'
p4522
tp4523
tp4524
F-6.092306016835731
tp4525
a(((S'NOM'
p4526
S'cendre'
p4527
tp4528
(S'NOM'
p4529
S'crat\xc3\xa8re'
p4530
tp4531
tp4532
F-6.15028801449313
tp4533
a(((S'NOM'
p4534
S'crat\xc3\xa8re'
p4535
tp4536
(S'NOM'
p4537
S'gaz'
p4538
tp4539
tp4540
F-6.199315250295987
tp4541
a(((S'NOM'
p4542
S'gaz'
p4543
tp4544
g1351
tp4545
F-6.218224446586983
tp4546
a(((S'NOM'
p4547
S'an'
p4548
tp4549
g336
tp4550
F-6.225187754490021
tp4551
a(((S'NOM'
p4552
S'crat\xc3\xa8re'
p4553
tp4554
(S'NOM'
p4555
S'crat\xc3\xa8re'
p4556
tp4557
tp4558
F-6.360028687800092
tp4559
a(((S'NOM'
p4560
S'ann\xc3\xa9e'
p4561
tp4562
(S'NOM'
p4563
S'crat\xc3\xa8re'
p4564
tp4565
tp4566
F-6.482871080978965
tp4567
a((g2983
g3336
tp4568
F-6.515197738536998
tp4569
a(((S'NAM'
p4570
S'terre'
p4571
tp4572
(S'NOM'
p4573
S'crat\xc3\xa8re'
p4574
tp4575
tp4576
F-6.952034359439052
tp4577
a(((S'NOM'
p4578
S'm\xc3\xa8tre'
p4579
tp4580
(S'NOM'
p4581
S'crat\xc3\xa8re'
p4582
tp4583
tp4584
F-7.343988689089048
tp4585
a(((S'NOM'
p4586
S'c\xc3\xb4ne'
p4587
tp4588
(S'NOM'
p4589
S'volcan'
p4590
tp4591
tp4592
F-7.582816818629232
tp4593
a(((S'NOM'
p4594
S'eau'
p4595
tp4596
(S'NOM'
p4597
S'crat\xc3\xa8re'
p4598
tp4599
tp4600
F-7.693354289708032
tp4601
a(((S'NOM'
p4602
S'crat\xc3\xa8re'
p4603
tp4604
(S'NOM'
p4605
S'eau'
p4606
tp4607
tp4608
F-7.79855979986398
tp4609
a(((S'NOM'
p4610
S'kilom\xc3\xa8tre'
p4611
tp4612
(S'NOM'
p4613
S'crat\xc3\xa8re'
p4614
tp4615
tp4616
F-8.10993339595279
tp4617
a((g1910
(S'VER:infi'
p4618
S'faire'
p4619
tp4620
tp4621
F-8.660044969835308
tp4622
a(((S'NOM'
p4623
S'lave'
p4624
tp4625
(S'NOM'
p4626
S'crat\xc3\xa8re'
p4627
tp4628
tp4629
F-8.905994810215338
tp4630
a(((S'NOM'
p4631
S'crat\xc3\xa8re'
p4632
tp4633
(S'NOM'
p4634
S'kilom\xc3\xa8tre'
p4635
tp4636
tp4637
F-9.187417409411369
tp4638
a((g3418
(S'NOM'
p4639
S'lave'
p4640
tp4641
tp4642
F-9.330604853323662
tp4643
a(((S'NOM'
p4644
S'\xc3\xa9ruption'
p4645
tp4646
g1825
tp4647
F-10.185562711728199
tp4648
a(((S'NOM'
p4649
S'crat\xc3\xa8re'
p4650
tp4651
(S'NOM'
p4652
S'\xc3\xa9ruption'
p4653
tp4654
tp4655
F-10.769730886216536
tp4656
a(((S'NOM'
p4657
S'volcan'
p4658
tp4659
(S'NOM'
p4660
S'crat\xc3\xa8re'
p4661
tp4662
tp4663
F-13.155987226863138
tp4664
a(((S'NOM'
p4665
S'crat\xc3\xa8re'
p4666
tp4667
(S'NOM'
p4668
S'volcan'
p4669
tp4670
tp4671
F-13.75457628550699
tp4672
a.