(dp0
S'basalte'
p1
(dp2
S'd\xc3\xa9filer'
p3
F3.121008095300234
sS'isotopique'
p4
F2.906476120643966
sS'alcalin'
p5
F8.940685616997358
sS'amygdalo\xc3\xafdale'
p6
F9.552376797218347
sS'mince'
p7
F1.1546501873916364
sS'\xc3\xa9pancher'
p8
F0.7919932806540472
sS'picritique'
p9
F9.552790950561146
sS'publier'
p10
F0.9268372366169204
sS'fondu'
p11
F2.1930087674479783
sS'auvergnat'
p12
F0.7672593468538046
sS'recristalliser'
p13
F6.681604868589469
sS'commun'
p14
F1.016271951643776
sS'aphyrique'
p15
F9.552790950561146
sS'appel\xc3\xa9'
p16
F1.5141834246847239
sS'consid\xc3\xa9rable'
p17
F0.8960566089921622
sS'p\xc3\xa2teux'
p18
F0.8414071664094582
sS'cube'
p19
F0.8038773559633151
sS'thol\xc3\xa9iitiques'
p20
F6.681604868589469
sS'subverticaux'
p21
F9.552376797218347
sS'injecter'
p22
F1.3195105036038925
sS'corder'
p23
F2.302825146543003
sS'mou'
p24
F3.6884460266528825
sS'imbattable'
p25
F9.552790950561146
sS'noter'
p26
F1.232470594943112
sS'allonger'
p27
F2.725957500183003
sS'empiler'
p28
F2.4285899434374136
sS'g\xc3\xa9ochimique'
p29
F5.214502938191179
sS'cuirasser'
p30
F6.680927473890907
sS'laver'
p31
F1.0850436005261381
sS'sombre'
p32
F3.990743785616504
ssS't\xc3\xa9phra'
p33
(dp34
sS'gaz'
p35
(dp36
S'br\xc3\xbblant'
p37
F2.369221437814948
sS'fumerolliens'
p38
F1.9347265052025922
sS'nocif'
p39
F3.106690420519987
sS'sulfureux'
p40
F4.9477995505701635
sS'naus\xc3\xa9abond'
p41
F1.9347265052025922
sS'l\xc3\xa9tal'
p42
F3.834968391464639
sS'oblique'
p43
F1.9347265052025922
sS'carbonique]'
p44
F3.8406855319885094
sS'impalpable'
p45
F2.5332236143167544
sS'pauvre'
p46
F1.9624167210571606
sS'omnipr\xc3\xa9sent'
p47
F1.9347265052025922
sS'sonore'
p48
F2.542669498606622
sS'soupirer'
p49
F2.542669498606622
sS'm\xc3\xa9langer'
p50
F2.934959660022576
sS'dissoudre'
p51
F6.050906379037135
sS'rabattre'
p52
F2.542669498606622
sS'interstitiel'
p53
F3.8406855319885094
sS'carbonique'
p54
F30.181535467245425
sS'dissous.'
p55
F3.834968391464639
sS'aquif\xc3\xa8re'
p56
F2.5332236143167544
sS'toxique'
p57
F13.306060086792225
sS'oxyg\xc3\xa9ner'
p58
F2.542669498606622
sS'fluor\xc3\xa9'
p59
F3.8406855319885094
sS'inhaler'
p60
F3.834968391464639
sS'impr\xc3\xa9gner'
p61
F4.371905270227869
sS'glouglouter'
p62
F3.834968391464639
sS'endiabler'
p63
F3.834968391464639
sS'bleut\xc3\xa9'
p64
F1.9347265052025922
sS'moite'
p65
F2.5332236143167544
sS'emprisonn\xc3\xa9'
p66
F2.542669498606622
ssS'fontaine'
p67
(dp68
S'jaillir'
p69
F3.68847263416278
sS'expulser'
p70
F4.272036411817211
sS'courant'
p71
F2.184684385970972
sS'intermittent'
p72
F13.251558724886223
sS'donner'
p73
F0.22953246548735837
sS'petit'
p74
F-0.11790695631263795
sS'atteindre'
p75
F0.3753502160903064
sS'thermal'
p76
F3.0513621107263753
sS'immerger'
p77
F4.997226772658749
sS'chaud'
p78
F0.047471878882164954
sS'\xc3\xa9tale'
p79
F13.251558724886223
sS'anonyme'
p80
F9.951136628263841
sS'cracher'
p81
F1.985829705937096
sS'spectaculaire'
p82
F5.159637688387981
sS'hawa\xc3\xafen'
p83
F4.272081397261047
sS'couler'
p84
F1.2287213776255992
ssS'lave'
p85
(dp86
S'd\xc3\xa9r\xc3\xa9gler'
p87
F2.4659488189764502
sS'basaltique'
p88
F2.7952861300598975
sS'p\xc3\xa9trifier'
p89
F2.9953086336049024
sS'scoriac\xc3\xa9'
p90
F2.1112753850385872
sS'basique'
p91
F2.0279058329127446
sS'visqueux'
p92
F7.282232049694919
sS'p\xc3\xa9trochimique'
p93
F2.447699957165322
sS'fluide'
p94
F5.651662948328788
sS'ruiniforme'
p95
F2.4659488189764502
sS'semi-solide'
p96
F2.4659488189764502
sS'aimanter'
p97
F2.4659488189764502
sS'vacuolaire'
p98
F2.585684167940205
sS'\xc3\xa9cumant'
p99
F2.4659488189764502
sS'corder'
p100
F2.6321584641901716
sS'\xc3\xa9pisodique'
p101
F2.4659488189764502
sS'ressemblent-elles'
p102
F1.4929488382487088
sS'piquant'
p103
F1.4929488382487088
sS'\xc3\xa9mis'
p104
F5.626771594667484
sS'clapoter'
p105
F1.4929488382487088
sS'solidifier'
p106
F2.729430902535353
sS'empester'
p107
F2.4659488189764502
sS'figer'
p108
F1.5487800790964477
sS'vermillon'
p109
F1.4929488382487088
sS'plutons'
p110
F2.447699957165322
sS'prism\xc3\xa9e'
p111
F1.7297509661523207
sS'p\xc3\xa9tillant'
p112
F1.4626663912623945
sS'couler'
p113
F2.2915395759954995
sS'p\xc3\xa2teux'
p114
F5.653825740080494
sS'v\xc3\xa9loce'
p115
F2.447699957165322
sS'crisser'
p116
F2.6426616333922626
ssS'cendre'
p117
(dp118
S'grossier'
p119
F1.5657768147126343
sS'compacter'
p120
F3.8805464899309343
sS'purifier'
p121
F1.5796039205769337
sS'meuble'
p122
F1.5197158445077261
sS'mod\xc3\xa9liser'
p123
F2.5765668722379655
sS'oblit\xc3\xa9rer'
p124
F2.5674214274985294
sS'ressortir'
p125
F1.304462297375618
sS'trachytiques'
p126
F2.5765668722379655
sS'maculer'
p127
F3.8805464899309343
sS'toutes'
p128
F1.5796039205769337
sS'retomber'
p129
F1.9481085579668638
sS'hydrater'
p130
F1.5796039205769337
sS'souiller'
p131
F1.9521470741417801
sS'fuser'
p132
F1.304462297375618
sS'd\xc3\xa9layer'
p133
F3.8805464899309343
sS'intensifier'
p134
F1.0918600138026626
sS'exhumer'
p135
F1.5657768147126343
sS'lessiver'
p136
F1.074601379128054
sS'velouter'
p137
F3.8805464899309343
sS'noir'
p138
F1.335377667514678
sS'ensevelir'
p139
F1.8110092830746782
sS'cristallin'
p140
F1.0918600138026626
sS'balistique'
p141
F2.5674214274985294
sS'souder'
p142
F1.8905211072409904
sS'accroire|accro\xc3\xaetre'
p143
F1.074601379128054
sS'd\xc3\xa9composer'
p144
F1.5657768147126343
sS'ph\xc3\xa9nom\xc3\xa9nal'
p145
F1.2888200947327053
sS'surge'
p146
F2.5765668722379655
sS'imprimer'
p147
F3.1359065063829723
sS'abattre'
p148
F1.2996894281581681
ssS'magma'
p149
(dp150
S'cicatriser'
p151
F2.7963658631884822
sS'komatiitique'
p152
F4.843333315312666
sS'd\xc3\xa9naturer'
p153
F2.7963658631884822
sS'and\xc3\xa9sitique'
p154
F2.732046875136198
sS'appauvrir'
p155
F1.750418712922077
sS'pulv\xc3\xa9riser'
p156
F1.6684573852274962
sS'v\xc3\xa9hiculer'
p157
F2.1522230521583308
sS'd\xc3\xa9gazer'
p158
F2.153904349069944
sS'basique'
p159
F3.0314902701780726
sS'visqueux'
p160
F1.7955861963556108
sS'sus-jacent'
p161
F2.142655484871859
sS'r\xc3\xa9sorber'
p162
F4.177012057592638
sS'surchauff\xc3\xa9'
p163
F2.7963658631884822
sS'granitique'
p164
F1.5869120870239297
sS'\xc3\xa9volu\xc3\xa9,peu'
p165
F4.1815339918298084
sS'fluide'
p166
F1.416635677682579
sS'originel'
p167
F2.475333636742367
sS'parental'
p168
F5.913565563413477
sS'physico-chimique'
p169
F4.177012057592638
sS'sous-jacent'
p170
F1.758898584412331
sS'dacitique'
p171
F1.750418712922077
sS'komatiique'
p172
F4.177012057592638
sS'mixing'
p173
F4.1815339918298084
sS'contorsionner'
p174
F4.1815339918298084
sS'plain'
p175
F4.1815339918298084
sS'inexistant'
p176
F4.177012057592638
sS'liquider'
p177
F4.843333315312666
sS'saturer'
p178
F3.0436171526687423
sS'transiter'
p179
F1.739138107787481
sS'pi\xc3\xa9ger'
p180
F2.3981796727714424
ssS'scorie'
p181
(dp182
S'br\xc3\xbblant'
p183
F1.4424881525962296
sS'basaltique'
p184
F1.342708386590978
sS'coiffer'
p185
F3.48741756955149
sS'enserrer'
p186
F6.566786838577116
sS'incandescent'
p187
F1.2884065929230073
sS'rouge'
p188
F0.5289415238822168
sS'aller'
p189
F0.03684717624427498
sS'l\xc3\xa9ger'
p190
F1.7329005878221628
sS'noir'
p191
F1.3369672564536845
sS'devenir'
p192
F0.07050040227334686
sS'succ\xc3\xa9der'
p193
F1.6517167494668128
sS'd\xc3\xa9rouler'
p194
F2.7387988155247394
sS'parsemer'
p195
F2.811622821767735
sS'oc\xc3\xa9anique'
p196
F0.2581445008430608
sS'h\xc3\xa9risser'
p197
F6.566786838577116
sS'hui'
p198
F-0.2956142743672093
sS'former'
p199
F0.3528214338690671
sS'superficiel'
p200
F1.6517167494668128
sS'cro\xc3\xaetre'
p201
F3.3674679808690136
sS'souder'
p202
F3.256508500568065
sS'nombreux'
p203
F-0.008756022641145634
sS'saupoudrer'
p204
F4.537898397157223
sS'volcanique'
p205
F-1.5068209666374623
ssS'c\xc3\xb4ne'
p206
(dp207
S'b\xc3\xa2tir'
p208
F1.991237933445719
sS'surtseyenne'
p209
F5.201359837996538
sS'petit'
p210
F2.901910432645638
sS'\xc3\xa9lancer'
p211
F6.522285662874674
sS'superbe'
p212
F1.8419751135944893
sS'v\xc3\xa9roler'
p213
F7.4882069247602
sS'isol\xc3\xa9'
p214
F1.9945532360784686
sS'aplatir'
p215
F1.9945532360784686
sS'adventif'
p216
F15.233315793233492
sS'stup\xc3\xa9faire'
p217
F7.4882069247602
sS'constitutif'
p218
F2.1430735106993404
sS'terminal'
p219
F7.357781704340212
sS'escalader'
p220
F1.4549457701953163
sS'mixte'
p221
F3.7535101200455774
sS'composite'
p222
F3.5476352259750716
sS'enneiger'
p223
F3.114387010135792
sg137
F7.489057484694915
sS'surbaisser'
p224
F10.591117136296743
sS'littoral'
p225
F2.322856990009559
sS'parfait'
p226
F12.381007588162872
sS'superposer'
p227
F1.5452423468144714
sS'r\xc3\xa9gulier'
p228
F4.742766666656052
sS'ponctuer'
p229
F1.8586588244345563
sS'inonder'
p230
F1.9945532360784686
sS'dru'
p231
F3.5455435137559412
sS'massacrer'
p232
F7.489057484694915
sS'surbaiss\xc3\xa9'
p233
F7.489057484694915
sS'couronner'
p234
F1.7449189029932595
sS'sym\xc3\xa9trique'
p235
F3.114387010135792
sS'\xc3\xa9parpiller'
p236
F2.7894291724899074
ssS'd\xc3\xb4me'
p237
(dp238
S'stabiliser'
p239
F2.23682773542565
sS'obstruer'
p240
F1.729951882953895
sS'asseoir'
p241
F1.499884130019937
sS'percher'
p242
F1.499884130019937
sS'pulv\xc3\xa9riser'
p243
F0.7517555953154262
sS'superbe'
p244
F0.337870205393822
sS'soulever'
p245
F0.25949694216958796
sS'lat\xc3\xa9ral'
p246
F0.6152031121702326
sS'coalescent'
p247
F6.784405279704153
sS'm\xc3\xa9ridional'
p248
F2.0372789816902013
sS'joli'
p249
F1.4950142426953148
sS'gravir'
p250
F1.148866843265428
sS'tourbillonner'
p251
F3.747905346518572
sS'grossir'
p252
F1.610145538932932
sS'surgir'
p253
F1.029468438928755
sS'cass\xc3\xa9'
p254
F3.1728545061004683
sS'affecter'
p255
F0.25949694216958796
sS'\xc3\xa9riger'
p256
F1.7344243202781369
sS'embrasser'
p257
F4.693361829255605
sS'dacitique'
p258
F3.1756572743440183
sS'reconstituer'
p259
F0.508249786685057
sS'cesser'
p260
F0.25949694216958796
sS'durcir'
p261
F0.9538892773456904
sS'facile'
p262
F1.079189889166827
sS'attester'
p263
F1.395910749375997
sS'dessiner'
p264
F1.1544029127860456
sS'occidental'
p265
F1.3061522763130307
sS'successif'
p266
F0.36834107563546753
sS'conique'
p267
F1.7344243202781369
sS'fracasser'
p268
F3.7502901017294406
ssS'\xc3\xa9ruption'
p269
(dp270
S'post\xc3\xa9rieur'
p271
F2.057389012737097
sS'simultan\xc3\xa9'
p272
F1.6825090150939137
sS'cataclysmique'
p273
F2.482260508231185
sS'sommer'
p274
F2.1750352501732233
sS'explosif'
p275
F1.5631192747677554
sS'catasclysmales'
p276
F2.084762533530264
sS'imminent'
p277
F1.4999434609304847
sS'ignimbritique'
p278
F2.9482701361734245
sS'paroxysmal'
p279
F3.164557320401122
sS'produira-t-elle'
p280
F2.084762533530264
sS'violenter'
p281
F1.3249700090531782
sS'endosser'
p282
F2.084762533530264
sS'cataclysmal'
p283
F4.862563612924669
sS'sous-'
p284
F2.084762533530264
sS'saute-continent'
p285
F2.057389012737097
sS'sub-plinienne'
p286
F2.084762533530264
sS'carct\xc3\xa9ristique'
p287
F2.057389012737097
sS'quasi-permanente'
p288
F2.084762533530264
sS'katma\xc3\xafenne'
p289
F2.084762533530264
sS'phr\xc3\xa9atomagmatique'
p290
F2.9379345307374907
sS'hydromagmatiques'
p291
F2.084762533530264
sS'fissurale'
p292
F4.1376906151402
sS'cog\xc3\xa9n\xc3\xa9tique'
p293
F2.057389012737097
sS'mars/avril'
p294
F2.057389012737097
sS'fragiliser'
p295
F1.2509648324677956
sS'hydrovolcaniques'
p296
F2.437141804531149
sS'\xc3\x82ge'
p297
F2.057389012737097
sS'hydrovolcanique'
p298
F3.6108428336209064
sS'magistral'
p299
F2.084762533530264
sS'trimill\xc3\xa9naire'
p300
F2.084762533530264
ssS'd\xc3\xa9bris'
p301
(dp302
S'rocheux'
p303
F1.64239621480467
sS'br\xc3\xbblant'
p304
F1.1074316501694523
sS'\xc3\xa9jecter'
p305
F1.6088778564091242
sS'volcanique'
p306
F1.879072207906122
sS'chaud'
p307
F-0.849486861024031
sS'm\xc3\xa9langer'
p308
F2.2857966173446904
sS'soufrer'
p309
F3.8815613760793473
sS'retomber'
p310
F0.9473211883138681
sS'd\xc3\xa9blayer'
p311
F7.397489043021853
sS'fin'
p312
F-0.3519984077178347
sS'divers'
p313
F1.0509139486718992
sS'essentiel'
p314
F1.3754380658388867
sS'tomber'
p315
F0.7048229052378784
sS'\xc3\xa9voluer'
p316
F2.420224051841872
sS'min\xc3\xa9ral'
p317
F-0.12412874460219084
sS'combler'
p318
F2.493957753256507
sS'gros'
p319
F-0.013886165522464257
sS'former'
p320
F-0.7443818276164379
sS'organique'
p321
F3.1989411438884674
sS'd\xc3\xa9truire'
p322
F0.23313102436363253
sS'\xc3\xa9mettre'
p323
F-0.1499354329158706
sS'exclamer'
p324
F9.11440843388298
sS'issu'
p325
F0.9641203670061994
sS'pyroclastique'
p326
F9.730383847587666
sS'fondre'
p327
F1.0510696962970822
sS'emporter'
p328
F1.0509139486718992
sS'charger'
p329
F3.215792543216756
sS'\xc3\xa9pais'
p330
F1.473601799773665
sS'sombre'
p331
F1.6084350227603008
sS'd\xc3\xa9clencher'
p332
F1.2774985054641181
ssS'crat\xc3\xa8re'
p333
(dp334
S'larder'
p335
F3.645431494992931
sS'imprenable'
p336
F2.390534324760981
sS'hurlant'
p337
F1.8129382286835225
sS'mignon'
p338
F3.6519909639766563
sS'jumeau'
p339
F2.5637849241901347
sS'gr\xc3\xaal\xc3\xa9'
p340
F3.645431494992931
sS'b\xc3\xa9ant'
p341
F2.0392291824193
sS'rugissant'
p342
F1.8129382286835225
sS'principal'
p343
F1.974771010791612
sS'embo\xc3\xaeter'
p344
F4.496027019680976
sS'cribler'
p345
F3.645431494992931
sS'-magma'
p346
F3.645431494992931
sS'sacrer'
p347
F2.401376516617557
sS'adjacent'
p348
F1.8129382286835225
sS'sommital'
p349
F12.589809300582523
sS'sorti'
p350
F3.645431494992931
sS'engorger'
p351
F3.645431494992931
sg224
F2.390534324760981
sS'd\xc3\xa9pourvue'
p352
F2.390534324760981
sS'rougeoyer'
p353
F2.390534324760981
sS'assortir'
p354
F1.799035350568914
sS'verdoyant'
p355
F1.799035350568914
sS'affairer'
p356
F2.390534324760981
sS'\xc3\xa9gueul\xc3\xa9'
p357
F3.6519909639766563
sS'm\xc3\xa9t\xc3\xa9oritique'
p358
F1.8372315473422747
sS'ecoutant'
p359
F3.6519909639766563
sg234
F3.598070701137828
sS'stagner'
p360
F2.255440943010259
sS'intercepter'
p361
F1.442058306274581
sS'surnaturel'
p362
F2.390534324760981
ssS'volcan'
p363
(dp364
S'communiquent-ils'
p365
F1.4334403028110603
sS'ronfler'
p366
F1.4334403028110603
sS'entrelacer'
p367
F1.371356916487109
sS'apparaissent-ils'
p368
F1.4334403028110603
sS'intraplaques'
p369
F3.0016444953635646
sS'volcainique'
p370
F1.371356916487109
sS'colombien'
p371
F1.9211040752971396
sS'reverdir'
p372
F1.4334403028110603
sS'sicilien'
p373
F1.619150688871783
sS'obs\xc3\xa9der'
p374
F1.4334403028110603
sS'originaliser'
p375
F1.4334403028110603
sS'crachent-ils'
p376
F1.4334403028110603
sS'guadeloup\xc3\xa9en'
p377
F1.4334403028110603
sS'vingts'
p378
F1.371356916487109
sS'sneffels'
p379
F1.4334403028110603
sS'individualis\xc3\xa9'
p380
F1.4334403028110603
sS'tanzanien'
p381
F1.4334403028110603
sS'provoquent-ils'
p382
F1.4334403028110603
sS'fig.9.4'
p383
F1.4334403028110603
sS'philippin'
p384
F2.3659454451015325
sS'actif'
p385
F5.634692421219061
sS'hawaiens'
p386
F1.4334403028110603
sS'vieillissant'
p387
F1.4334403028110603
sg232
F1.371356916487109
sS'goguenard'
p388
F1.371356916487109
sS'cotoyer'
p389
F1.4334403028110603
sS'sexu\xc3\xa9'
p390
F1.4334403028110603
sS'p\xc3\xa9ruvien'
p391
F1.4334403028110603
sS'latitudinal'
p392
F1.371356916487109
sS'fissuraux'
p393
F1.4334403028110603
ssS'v\xc3\xa9sicule'
p394
(dp395
S'entra\xc3\xaener'
p396
F7.5591462114347925
sS'\xc3\xa9tir\xc3\xa9'
p397
F69.61860466873237
sS'parsemer'
p398
F14.450597144108308
ss.