(lp0
(((S'NOM'
p1
S'crat\xc3\xa8re'
p2
tp3
(S'VER:simp'
p4
S'panohaya'
p5
tp6
tp7
F1.6101033755920928
tp8
a(((S'VER:subp'
p9
S'chopiner'
p10
tp11
(S'NOM'
p12
S'crat\xc3\xa8re'
p13
tp14
tp15
F1.5948375853683354
tp16
a(((S'VER:simp'
p17
S'pr\xc3\xa9cipit'
p18
tp19
(S'NOM'
p20
S'crat\xc3\xa8re'
p21
tp22
tp23
F1.5948375853683354
tp24
a(((S'VER:subi'
p25
S'violentes;'
p26
tp27
(S'NOM'
p28
S'crat\xc3\xa8re'
p29
tp30
tp31
F1.5948375853683354
tp32
a(((S'NOM'
p33
S'basalte'
p34
tp35
(S'VER:simp'
p36
S'pillow-lavas'
p37
tp38
tp39
F1.2766721872876918
tp40
a(((S'VER:subp'
p41
S'pointer'
p42
tp43
(S'NOM'
p44
S'basalte'
p45
tp46
tp47
F1.016271951643776
tp48
a(((S'NOM'
p49
S'crat\xc3\xa8re'
p50
tp51
(S'VER:simp'
p52
S'aimez-la'
p53
tp54
tp55
F0.7999491510094416
tp56
a(((S'NOM'
p57
S'crat\xc3\xa8re'
p58
tp59
(S'VER:simp'
p60
S'accroire'
p61
tp62
tp63
F0.7999491510094416
tp64
a(((S'VER:simp'
p65
S'aimez-la'
p66
tp67
g51
tp68
F0.7775481001575709
tp69
a(((S'NOM'
p70
S'd\xc3\xa9bris'
p71
tp72
(S'VER:simp'
p73
S'pulv\xc3\xa9riser'
p74
tp75
tp76
F0.7650813261073423
tp77
a(((S'VER:subi'
p78
S'lame'
p79
tp80
(S'NOM'
p81
S'basalte'
p82
tp83
tp84
F0.650669455071378
tp85
a(((S'NOM'
p86
S'c\xc3\xb4ne'
p87
tp88
(S'VER:simp'
p89
S'avaler'
p90
tp91
tp92
F0.413407621201223
tp93
a(((S'VER:simp'
p94
S'larguer'
p95
tp96
(S'NOM'
p97
S'crat\xc3\xa8re'
p98
tp99
tp100
F0.054591017592070204
tp101
a(((S'VER:simp'
p102
S'endommager'
p103
tp104
g88
tp105
F0.02775180270938193
tp106
a(((S'VER:simp'
p107
S'd\xc3\xa9montrer'
p108
tp109
(S'NOM'
p110
S'c\xc3\xb4ne'
p111
tp112
tp113
F-0.3817478566650983
tp114
a(((S'NOM'
p115
S'basalte'
p116
tp117
(S'VER:simp'
p118
S'\xc3\xa9pancher'
p119
tp120
tp121
F-0.4861393497528063
tp122
a(((S'VER:simp'
p123
S'construire'
p124
tp125
(S'NOM'
p126
S'scorie'
p127
tp128
tp129
F-0.49600339018755074
tp130
a(((S'NOM'
p131
S'scorie'
p132
tp133
(S'VER:simp'
p134
S'laisser'
p135
tp136
tp137
F-0.8372017644717604
tp138
a(((S'NOM'
p139
S'd\xc3\xa9bris'
p140
tp141
(S'VER:simp'
p142
S'\xc3\xa9lever'
p143
tp144
tp145
F-0.9994360616681082
tp146
a(((S'VER:subp'
p147
S'durer'
p148
tp149
(S'NOM'
p150
S'basalte'
p151
tp152
tp153
F-1.090901549913865
tp154
a(((S'NOM'
p155
S'c\xc3\xb4ne'
p156
tp157
(S'VER:subp'
p158
S'celui-ci'
p159
tp160
tp161
F-1.1644414087918853
tp162
a(((S'VER:simp'
p163
S'pr\xc3\xa9cipiter'
p164
tp165
(S'NOM'
p166
S'crat\xc3\xa8re'
p167
tp168
tp169
F-1.2943470316698742
tp170
a(((S'NOM'
p171
S'c\xc3\xb4ne'
p172
tp173
(S'VER:simp'
p174
S'effondrer'
p175
tp176
tp177
F-1.4807774880478113
tp178
a(((S'VER:simp'
p179
S'achever'
p180
tp181
(S'NOM'
p182
S'crat\xc3\xa8re'
p183
tp184
tp185
F-1.5349251891485662
tp186
a(((S'VER:simp'
p187
S'cr\xc3\xa9er'
p188
tp189
(S'NOM'
p190
S'basalte'
p191
tp192
tp193
F-1.5850608312789085
tp194
a(((S'VER:simp'
p195
S'planter'
p196
tp197
(S'NOM'
p198
S'crat\xc3\xa8re'
p199
tp200
tp201
F-1.6791157148946503
tp202
a(((S'VER:simp'
p203
S'ouvrir'
p204
tp205
(S'NOM'
p206
S'c\xc3\xb4ne'
p207
tp208
tp209
F-2.0107059174460518
tp210
a(((S'NOM'
p211
S'crat\xc3\xa8re'
p212
tp213
(S'VER:simp'
p214
S'recueillir'
p215
tp216
tp217
F-2.0346753045781467
tp218
a(((S'NOM'
p219
S'crat\xc3\xa8re'
p220
tp221
(S'VER:simp'
p222
S'r\xc3\xa9pondre'
p223
tp224
tp225
F-2.1940137330902343
tp226
a(((S'NOM'
p227
S'c\xc3\xb4ne'
p228
tp229
(S'VER:simp'
p230
S'\xc3\xa9lever'
p231
tp232
tp233
F-2.4110002571373
tp234
a(((S'NOM'
p235
S'crat\xc3\xa8re'
p236
tp237
(S'VER:cond'
p238
S'aimer'
p239
tp240
tp241
F-2.661214460575952
tp242
a(((S'NOM'
p243
S'd\xc3\xa9bris'
p244
tp245
(S'VER:cond'
p246
S'devoir'
p247
tp248
tp249
F-2.8777100962457016
tp250
a((g22
(S'VER:simp'
p251
S'rejeter'
p252
tp253
tp254
F-2.9075086862627555
tp255
a(((S'VER:simp'
p256
S'creuser'
p257
tp258
(S'NOM'
p259
S'crat\xc3\xa8re'
p260
tp261
tp262
F-3.0901810868481263
tp263
a(((S'VER:cond'
p264
S'former'
p265
tp266
(S'NOM'
p267
S'basalte'
p268
tp269
tp270
F-3.3738450517741607
tp271
a(((S'NOM'
p272
S'crat\xc3\xa8re'
p273
tp274
(S'VER:simp'
p275
S'exploser'
p276
tp277
tp278
F-3.6135558024878223
tp279
a(((S'NOM'
p280
S'crat\xc3\xa8re'
p281
tp282
(S'VER:subp'
p283
S'durer'
p284
tp285
tp286
F-3.920850110391582
tp287
a(((S'NOM'
p288
S'basalte'
p289
tp290
(S'VER:cond'
p291
S'devoir'
p292
tp293
tp294
F-4.0828576126249105
tp295
a(((S'NOM'
p296
S'crat\xc3\xa8re'
p297
tp298
(S'VER:simp'
p299
S'tomber'
p300
tp301
tp302
F-4.20657669249606
tp303
a(((S'VER:simp'
p304
S'donner'
p305
tp306
(S'NOM'
p307
S'c\xc3\xb4ne'
p308
tp309
tp310
F-4.2096210581092945
tp311
a(((S'VER:simp'
p312
S'tomber'
p313
tp314
g22
tp315
F-4.3389907175018125
tp316
a(((S'NOM'
p317
S'crat\xc3\xa8re'
p318
tp319
(S'VER:simp'
p320
S'installer'
p321
tp322
tp323
F-4.52661254614968
tp324
a(((S'VER:simp'
p325
S'ouvrir'
p326
tp327
(S'NOM'
p328
S'crat\xc3\xa8re'
p329
tp330
tp331
F-4.638815250983175
tp332
a(((S'VER:simp'
p333
S'recouvrir'
p334
tp335
(S'NOM'
p336
S'crat\xc3\xa8re'
p337
tp338
tp339
F-5.043408421289813
tp340
a(((S'NOM'
p341
S'crat\xc3\xa8re'
p342
tp343
g232
tp344
F-5.2228954347559355
tp345
a(((S'NOM'
p346
S'crat\xc3\xa8re'
p347
tp348
(S'VER:subp'
p349
S'appara\xc3\xaetre'
p350
tp351
tp352
F-5.759085328554254
tp353
a(((S'VER:simp'
p354
S'observer'
p355
tp356
(S'NOM'
p357
S'crat\xc3\xa8re'
p358
tp359
tp360
F-6.17868541256272
tp361
a(((S'NOM'
p362
S'crat\xc3\xa8re'
p363
tp364
(S'VER:simp'
p365
S'provoquer'
p366
tp367
tp368
F-6.289924198390253
tp369
a(((S'NOM'
p370
S'crat\xc3\xa8re'
p371
tp372
(S'VER:simp'
p373
S'passer'
p374
tp375
tp376
F-6.8347608926211745
tp377
a(((S'NOM'
p378
S'crat\xc3\xa8re'
p379
tp380
(S'VER:simp'
p381
S'constituer'
p382
tp383
tp384
F-7.897233472041142
tp385
a(((S'NOM'
p386
S'crat\xc3\xa8re'
p387
tp388
(S'VER:cond'
p389
S'permettre'
p390
tp391
tp392
F-8.914489385310954
tp393
a(((S'VER:simp'
p394
S'former'
p395
tp396
(S'NOM'
p397
S'crat\xc3\xa8re'
p398
tp399
tp400
F-9.166356995550519
tp401
a(((S'VER:simp'
p402
S'faire'
p403
tp404
g380
tp405
F-15.982413448191286
tp406
a.