(dp0
S'basalte'
p1
(dp2
S'lame'
p3
F0.650669455071378
sS'pointer'
p4
F1.016271951643776
sS'devoir'
p5
F-4.0828576126249105
sS'pillow-lavas'
p6
F1.2766721872876918
sS'former'
p7
F-3.3738450517741607
sS'\xc3\xa9pancher'
p8
F-0.4861393497528063
sS'cr\xc3\xa9er'
p9
F-1.5850608312789085
sS'durer'
p10
F-1.090901549913865
ssS't\xc3\xa9phra'
p11
(dp12
sS'gaz'
p13
(dp14
S'\xc3\xa9visc\xc3\xa9rer'
p15
F3.897344000197018
sS'\xc3\xa9jecter'
p16
F-2.599594498223681
sS'lib\xc3\xa9rer'
p17
F-4.504410401538752
sS'\xc3\xa9lever'
p18
F-4.979341739868718
sS'passer'
p19
F-6.52481588932381
sS'monter'
p20
F-5.190833929321672
sS'f\xc3\xa9m.'
p21
F-1.0465014092946874
sS'devenir'
p22
F-6.52481588932381
sS'pouvoir'
p23
F-16.5741727114388
sS'pichincha'
p24
F-0.2649199229493454
sS's\xc3\xa9parer'
p25
F-3.2761529960474527
sS'exploser'
p26
F-3.433461063050863
sS'susciter'
p27
F-0.9568716778656322
sS'mourir'
p28
F-2.8425190806721057
sS'devoir'
p29
F-10.171153661238026
sS'd\xc3\xa9gager'
p30
F-2.7236593590217537
sS'injecter'
p31
F-2.0336185516129737
sg9
F-4.814972870314326
sS'durer'
p32
F-3.7289895407789695
sS'solidifier'
p33
F-3.265731017003267
sS'pi\xc3\xa9g\xc3\xa9s;'
p34
F1.725828245286776
sS'faire'
p35
F-15.23649449554988
sS'envahir'
p36
F-1.713731276387936
sS'vouloir'
p37
F-3.8959812749834124
sS'tuer'
p38
F-3.7104380907333456
sS'provoquer'
p39
F-6.002617412652668
sS'sceller'
p40
F1.7125273970056143
ssS'fontaine'
p41
(dp42
sS'lave'
p43
(dp44
S'diriger'
p45
F-4.586884766159391
sS'encercler'
p46
F-1.4721881388575961
sS'ouvrir'
p47
F-6.796216090543512
sS'\xc3\xa9pancher'
p48
F-4.129272495811986
sS'localiser'
p49
F-2.7138993714322557
sS'r\xc3\xa9pandre'
p50
F-4.439456001484406
sS'd\xc3\xa9tourner'
p51
F-2.1816473633729325
sS'enfoncer'
p52
F-4.533386494067839
sg21
F-1.9750039496361576
sS'canaliser'
p53
F-2.1816473633729325
sS'parler'
p54
F-6.415541952653248
sS'percer'
p55
F-4.129272495811986
sS'vidanger'
p56
F-0.9104595719615483
sS'descendre'
p57
F-6.089958226656795
sS'fermer'
p58
F-4.06655276466265
sS'pillow-lavas'
p59
F-1.4721881388575961
sS'jours.'
p60
F0.12791763148963775
sS'\xc3\xa9tendre'
p61
F-5.471569008793453
sg40
F0.8016536676660192
sS'implorer'
p62
F-0.2786073310326027
sS'durer'
p63
F-4.896200466837122
sg33
F-4.991660258339567
sS'boucher'
p64
F-1.8971408083225605
sS'subir'
p65
F-3.554388299979798
sg36
F-3.794525251419151
sS'pillow-lava'
p66
F-0.35628164618845476
sS'pillowlavas'
p67
F0.8442993251684242
sS'jaillir'
p68
F-6.271133183830297
sS'p\xc3\xa9rir'
p69
F-3.086975355102427
sS'laver'
p70
F-3.548980735255677
ssS'cendre'
p71
(dp72
g15
F1.740611411591876
sS'diminuer'
p73
F-2.523114406715187
sS'laisser'
p74
F-5.294963991642012
sS'projeter'
p75
F-4.305274833279523
sS'refl\xc3\xa9ter'
p76
F-0.5405627586118626
sS'lib\xc3\xa9rer'
p77
F-4.450022062941559
sS'\xc3\xa9lever'
p78
F-4.923591271060817
sS'passer'
p79
F-6.300907172682808
sS'bloquer'
p80
F-1.2625028418142032
sS'transformer'
p81
F-3.3921654819427016
sS'devenir'
p82
F-6.453922026588395
sg24
F0.658466271122169
sS'rendre'
p83
F-4.771814206503825
sS'demeurer'
p84
F-2.034276275941627
sS'monter'
p85
F-5.133040095825964
sS'\xc3\xa9mettre'
p86
F-6.111682134384042
sS'\xc3\xa9tendre'
p87
F-3.079436538232463
sS'atteindre'
p88
F-7.357670574515315
sS'rejeter'
p89
F-2.8041588605243737
sS'cr\xc3\xa9er'
p90
F-4.637976743977982
sS'd\xc3\xa9truire'
p91
F-5.091801635721983
sS'traverser'
p92
F-4.300794110451767
sS'succomber'
p93
F-0.24281961081370085
sS'tomber'
p94
F-3.9570935154568296
sg38
F-3.6619148658462666
sS'falloir'
p95
F-7.68379369315656
sS'emporter'
p96
F-3.3974076251238707
sS'p\xc3\xa9rir'
p97
F-1.779697431086924
sS'hiroshima'
p98
F-0.5405627586118626
sS'recevoir'
p99
F-3.673673887654168
ssS'magma'
p100
(dp101
S'dispara\xc3\xaetre'
p102
F-4.781303587111311
sS'prendre'
p103
F-7.421795630160417
sS'aimer'
p104
F-2.278270694443213
sS'provenir'
p105
F-3.419563439789703
sS'disloquer'
p106
F1.0659881782049911
sg87
F-3.0590140132094645
sS'sembler'
p107
F-5.253642973636762
sS'venir'
p108
F-7.801191188929914
sS'sortir'
p109
F-4.204393934918757
sg34
F1.9319800879842837
ssS'scorie'
p110
(dp111
S'laisser'
p112
F-0.8372017644717604
sS'construire'
p113
F-0.49600339018755074
ssS'c\xc3\xb4ne'
p114
(dp115
S'\xc3\xa9lever'
p116
F-2.4110002571373
sS'avaler'
p117
F0.413407621201223
sS'celui-ci'
p118
F-1.1644414087918853
sS'effondrer'
p119
F-1.4807774880478113
sg47
F-2.0107059174460518
sS'donner'
p120
F-4.2096210581092945
sg48
F-0.9923111612056156
sS'recouvrir'
p121
F-2.2284383692646768
sS'endommager'
p122
F0.02775180270938193
sS'd\xc3\xa9montrer'
p123
F-0.3817478566650983
ssS'd\xc3\xb4me'
p124
(dp125
S'faire'
p126
F-8.727595828390909
sS'pouvoir'
p127
F-9.70179325434348
sg36
F-0.44199156582888466
sS'augmenter'
p128
F-2.2473694059860194
sg55
F-1.2097223685075635
sg26
F-1.7248489717830837
sg109
F-2.282173071409752
sS'\xc3\xa9chafauder'
p129
F1.6705119835334712
ssS'\xc3\xa9ruption'
p130
(dp131
S'sontils'
p132
F0.5128436740091388
sS'aimer'
p133
F-4.917377609022881
sS'activit'
p134
F0.5128436740091388
sS'essayer|essayer'
p135
F-3.3348962448854693
sS'tungurahua'
p136
F-1.2404218552520228
sS'perturber'
p137
F-2.782032720624346
sS'router'
p138
F-0.218343360570647
sS'git'
p139
F0.5769848015721871
sS'jeter'
p140
F-5.089385469817879
sS'interdire'
p141
F-4.366134424298041
sS'd\xc3\xa9clarer'
p142
F-4.635248858699542
sS'sabancaya'
p143
F-0.9760198866688305
sS'extr\xc3\xaame-orient'
p144
F-0.218343360570647
sg56
F-1.08809307253908
sS'fr\xc3\xa9quenter'
p145
F-1.08809307253908
sS'assister'
p146
F-4.256600840007707
sS'rivaliser'
p147
F-0.1240318255006883
sS'ressemblent-elles'
p148
F-0.1240318255006883
sS'sine'
p149
F0.5769848015721871
sS'typer'
p150
F-0.1755626890220593
sS'd\xc3\xa9buter'
p151
F-4.027564349115312
sS'pourrait-elle'
p152
F0.5769848015721871
sS'entrainer'
p153
F-0.8402124552904603
sS'gonfler'
p154
F-2.977349360821109
sS'survenir'
p155
F-4.366134424298041
sS'del'
p156
F-4.741259588184834
sS'ensuivre'
p157
F-0.6526436479897789
sS'p\xc3\xa9rir'
p158
F-3.662132038589444
sS'd\xc3\xa9clencher'
p159
F-5.20036751974818
sS'tambora'
p160
F-3.8412447809530517
ssS'd\xc3\xa9bris'
p161
(dp162
S'\xc3\xa9lever'
p163
F-0.9994360616681082
sS'pulv\xc3\xa9riser'
p164
F0.7650813261073423
sS'devoir'
p165
F-2.8777100962457016
ssS'crat\xc3\xa8re'
p166
(dp167
S'aimez-la'
p168
F0.7775481001575709
sS'aimer'
p169
F-2.661214460575952
sS'permettre'
p170
F-8.914489385310954
sS'observer'
p171
F-6.17868541256272
sS'ouvrir'
p172
F-4.638815250983175
sS'accroire'
p173
F0.7999491510094416
sS'creuser'
p174
F-3.0901810868481263
sS'installer'
p175
F-4.52661254614968
sS'recueillir'
p176
F-2.0346753045781467
sg116
F-5.2228954347559355
sS'appara\xc3\xaetre'
p177
F-5.589091206200429
sS'pr\xc3\xa9cipiter'
p178
F-1.2943470316698742
sg19
F-6.8347608926211745
sS'pr\xc3\xa9cipit'
p179
F1.5948375853683354
sS'planter'
p180
F-1.6791157148946503
sS'achever'
p181
F-1.028012126065614
sg24
F-0.35977084650727437
sg121
F-5.043408421289813
sS'r\xc3\xa9pondre'
p182
F-2.1940137330902343
sS'exploser'
p183
F-3.6135558024878223
sS'violentes;'
p184
F1.5948375853683354
sS'panohaya'
p185
F1.6101033755920928
sS'chopiner'
p186
F1.5948375853683354
sS'rejeter'
p187
F-2.9075086862627555
sg63
F-3.4384452823661382
sg94
F-4.3389907175018125
sS'larguer'
p188
F1.0996190686402705
sS'constituer'
p189
F-7.897233472041142
sS'provoquer'
p190
F-6.289924198390253
sS'remonter'
p191
F-5.356197470224023
ssS'volcan'
p192
(dp193
g132
F-0.0668543265481306
sg15
F0.986116951366627
sS'colorada'
p194
F0.11285649887108581
sS'faut-il'
p195
F-4.3617762024372695
sS'\xc3\xa9jecter'
p196
F-5.845938862692364
sS'garer'
p197
F-0.0668543265481306
sS'fonctionner'
p198
F-4.602291606043192
sg181
F-4.106393155402908
sS'jeter'
p199
F-6.594309928324166
sS'krama'
p200
F-3.2082207373826646
sS'pichincha'
p201
F-1.929430545952942
sS'conduire'
p202
F-6.451449570027795
sS'sabancaya'
p203
F-1.4017171254041279
sS'adopter'
p204
F-2.8747816959209187
sS'quinta'
p205
F-1.0636177476044804
sS'd\xc3\xa9nombrer'
p206
F-4.068759480462409
sS'peut-on'
p207
F-3.4535052619895534
sg184
F0.07985114398073523
sS'manifester'
p208
F-6.594309928324166
sS'entreprendre'
p209
F-4.602291606043192
sS'\xc3\xa9branler'
p210
F-3.5752230597159884
sS'accepter'
p211
F-4.290006003220998
sS'xalitzintla'
p212
F-1.4017171254041279
sS'r\xc3\xa9fugier'
p213
F-5.271065801617509
sS'bora-bora'
p214
F-0.8391094263158758
sS'g'
p215
F-3.5752230597159884
sg188
F-1.1866799310110188
sS'd\xc3\xa9capiter'
p216
F-2.8747816959209187
sS'oshima'
p217
F-1.4017171254041279
sg98
F-2.7950635491440363
ssS'v\xc3\xa9sicule'
p218
(dp219
s.