(dp0
S'eruption'
p1
(dp2
S'debris'
p3
F-9.270071792930825
sS'cone'
p4
F-8.937010228966273
sS'crater'
p5
F-16.083795867582708
ssS'scoria'
p6
(dp7
S'cinder'
p8
F1.5742578879120674
sS'cone'
p9
F2.7335154429062376
ssS'gas'
p10
(dp11
S'debris'
p12
F-3.784695407241123
ssS'dome'
p13
(dp14
S'debris'
p15
F-2.1946624656887606
sS'crater'
p16
F-4.307790358986856
ssS'lava'
p17
(dp18
S'crater'
p19
F-13.52394296648507
sS'debris'
p20
F-7.626683022607695
sS'basalt'
p21
F-5.880696467153583
sS'cone'
p22
F-8.711694873940873
ssS'basalt'
p23
(dp24
S'flood'
p25
F4.34466862602705
sS'chunk'
p26
F0.8465576230116548
sS'vary'
p27
F0.3118127957554224
sS'rind'
p28
F3.9007731381393618
sS'slew'
p29
F8.163096641688998
sS'mare'
p30
F1.507976533747238
sS'gabbro'
p31
F3.9007731381393618
sS'clasts'
p32
F2.809604711737549
sS'tephra'
p33
F0.4296380363519329
sS'column'
p34
F0.39855664777053723
sS'pahoehoe'
p35
F0.4125454770510342
sS'content'
p36
F0.1792981370595124
sS'low-viscosity'
p37
F3.4331286843293816
sS'ton'
p38
F0.5943812348913464
sS'tuff'
p39
F0.21532123447645327
sS'trachyte'
p40
F3.8991529978354675
sS'province'
p41
F6.023313016632835
sS'foam'
p42
F1.8622078378865163
sS'glass'
p43
F1.2272765868199356
sS'andesite'
p44
F0.7476230016398112
sS'vesiculation'
p45
F3.4331286843293816
sS'fragmentation'
p46
F1.373952689626568
sS'scarp'
p47
F2.237884084509565
sS'rhyolite'
p48
F0.887446383123059
sS'variety'
p49
F0.9222296908855784
sS'pillow'
p50
F2.7449296163386045
sS'outpouring'
p51
F2.9622652563704968
sS'addition'
p52
F0.7436591226088971
sS'accumulation'
p53
F0.7766849039634699
sS'left'
p54
F0.7476230016398112
ssS'magma'
p55
(dp56
S'debris'
p57
F-4.679463507668987
ssS'debris'
p58
(dp59
S'tonne'
p60
F2.883093172864602
sS'atmosphere'
p61
F0.516816283606531
sS'shovel'
p62
F2.3753822288061874
sS'shot'
p63
F1.0069742847435215
sS'chunk'
p64
F0.4004479013632563
sS'thedirection'
p65
F6.562344847762323
sS'avalanche'
p66
F4.087620168271026
sS'disc'
p67
F6.562344847762323
sS'water.'
p68
F2.1428344026943464
sS'shooting'
p69
F4.535807549950187
sS'log'
p70
F1.785701031006776
sS'mobilization'
p71
F6.562344847762323
sS'pile'
p72
F0.632228571686093
sS'province'
p73
F1.939262502250165
sS'dam'
p74
F0.731633933648908
sS'slump'
p75
F1.646423379976177
sS'distinguish'
p76
F1.318656108985023
sS'calculate'
p77
F0.40839645445796197
sS'stabilize'
p78
F6.562344847762323
sS'/landslide'
p79
F6.562344847762323
sS'runway'
p80
F1.4213941526002918
sS'ejection'
p81
F2.753879156181539
sS'a.d'
p82
F0.5558694051649067
sS'stratosphere'
p83
F0.7293437164463278
sS'avalanche---and'
p84
F6.563596169130291
sS'initiate'
p85
F2.138679288579473
sS'flows--mobile'
p86
F6.563596169130291
sS'velocity'
p87
F0.596746038847847
sS'six-mile'
p88
F6.563596169130291
sS'whirlwind'
p89
F6.562344847762323
ssS'fountain'
p90
(dp91
S'cinder'
p92
F0.5642781510574604
ssS'cone'
p93
(dp94
S'birth'
p95
F1.1502360405941905
sS'family'
p96
F-0.46392842557210495
sS'3600-meter'
p97
F5.840965384722124
sS'rest'
p98
F-0.3018181346187236
sS'extrude'
p99
F-0.26694180457113115
sS'cinder-and-spatter'
p100
F5.840965384722124
sS'row'
p101
F1.0583036525586587
sS'stratovolcano'
p102
F1.6370221330736077
sS'pause'
p103
F0.982928310804636
sS'scoria-and-spatter'
p104
F5.840965384722124
sS'volcano-rise'
p105
F5.842718177279538
sS'tuff'
p106
F-0.4412533554518125
sS'hornitos'
p107
F3.1811004627428483
sS'urg\\fcp'
p108
F4.01085033684946
sS'scoria'
p109
F2.7335154429062376
sS'background'
p110
F0.5987435105295549
sS'smoking'
p111
F0.24270449256254772
sS'shadow'
p112
F-0.4598482107143878
sS'kinds--cinder'
p113
F5.840965384722124
sS'driblet'
p114
F5.840965384722124
sS'question'
p115
F-0.567812938757746
sS'scarp'
p116
F1.3667577214531188
sS'didn'
p117
F-0.44569253937021047
sS'gelatine'
p118
F2.3102605421211644
sS'tear'
p119
F-0.16640979406576
sS'skyline'
p120
F1.6536824291483887
sS'spatter'
p121
F0.17476797861875762
sS'landform'
p122
F0.5890704171145598
sS'cinder'
p123
F0.23521902661187666
sS'side'
p124
F0.4778280928309156
ssS'vesicle'
p125
(dp126
sS'tephra'
p127
(dp128
S'cinder'
p129
F0.5221618704396163
sS'basalt'
p130
F0.4296380363519329
ssS'cinder'
p131
(dp132
S'vent'
p133
F-1.0983827446227807
sS'bomb'
p134
F0.7962718106899297
sS'photo'
p135
F0.41528826191497314
sS'cone'
p136
F0.23521902661187666
sS'ash'
p137
F-1.4813977152065694
sS'tephra'
p138
F0.5221618704396163
sS'ice'
p139
F-0.2986567904110379
sS'note'
p140
F0.7296848677510662
sS'track'
p141
F1.323732682173633
sS'fountain'
p142
F0.5642781510574604
sS'split'
p143
F3.338276528597807
sS'type'
p144
F-0.34373865497922396
sS'pyroclasts'
p145
F2.5711271738751384
sS'scoria'
p146
F1.5742578879120674
sS'bit'
p147
F1.7872806348362968
sS'blast'
p148
F-0.35069778411816094
sS'plain'
p149
F1.0867276932384125
sS'km'
p150
F0.03366125070330049
sg121
F9.242254110430023
sS'deposit'
p151
F-0.18643906681619216
sS'lapillus'
p152
F3.6943062047701574
sS'mound'
p153
F2.2221382372704093
sS'accumulation'
p154
F4.173067474339335
sS'block'
p155
F0.09113405825988691
ssS'crater'
p156
(dp157
S'bathe'
p158
F0.9661324459613406
sS'vodka'
p159
F3.641153225606696
sS'reflector'
p160
F0.9455750558435358
sS'savour'
p161
F2.398183221546457
sS'testing'
p162
F1.8101821173293524
sS'500ft'
p163
F2.398183221546457
sS'rim'
p164
F2.6626728341189705
sS'statistic'
p165
F1.8101821173293524
sS'pit'
p166
F2.524750880410578
sS'out-of-this-world'
p167
F3.647734357178145
sS'impact'
p168
F1.530695172464036
sS'itself.stand'
p169
F3.647734357178145
sS'goal'
p170
F0.7752735590397415
sS'floor'
p171
F1.3722019374804328
sS'3,280ft'
p172
F3.641153225606696
sS'absence'
p173
F1.1543351057975066
sS'lip'
p174
F1.809112965270846
sS'belly'
p175
F0.9455750558435358
sS'climbingdown'
p176
F3.641153225606696
sS'brace'
p177
F0.9455750558435358
sS'cord'
p178
F1.79623050426507
sS'foreground'
p179
F0.8366531412685572
sS'horseshoe-shape'
p180
F3.641153225606696
sS'draine'
p181
F3.647734357178145
sS'clamber'
p182
F0.6315119999303948
sS'hundred-year'
p183
F3.647734357178145
sS'floor;'
p184
F3.647734357178145
sS'disruption'
p185
F0.6315119999303948
sS'runoff'
p186
F0.9455750558435358
sS'inspection'
p187
F0.9455750558435358
ssS'volcan'
p188
(dp189
s.