(lp0
(((S'NNS'
p1
S'cinder'
p2
tp3
(S'VVG'
p4
S'spongy-looking'
p5
tp6
tp7
F12.957593647240778
tp8
a(((S'NN'
p9
S'cinder'
p10
tp11
(S'VVD'
p12
S'pulverise'
p13
tp14
tp15
F12.957593647240778
tp16
a(((S'JJ'
p17
S'composite'
p18
tp19
(S'NNS'
p20
S'cone'
p21
tp22
tp23
F9.86995927286157
tp24
a(((S'JJ'
p25
S'littoral'
p26
tp27
(S'NN'
p28
S'cone'
p29
tp30
tp31
F9.199536258830813
tp32
a(((S'JJ'
p33
S'littoral'
p34
tp35
(S'NNS'
p36
S'cone'
p37
tp38
tp39
F9.199536258830813
tp40
a(((S'NNS'
p41
S'basalt'
p42
tp43
(S'VVN'
p44
S'-oozed'
p45
tp46
tp47
F8.163756841204199
tp48
a(((S'JJ'
p49
S'water-quenched'
p50
tp51
(S'NN'
p52
S'basalt'
p53
tp54
tp55
F8.163096641688998
tp56
a(((S'JJ'
p57
S'cheesy'
p58
tp59
(S'NN'
p60
S'basalt'
p61
tp62
tp63
F8.163096641688998
tp64
a(((S'JJ'
p65
S'parasitic'
p66
tp67
(S'NNS'
p68
S'cone'
p69
tp70
tp71
F7.685528098291522
tp72
a(((S'JJ'
p73
S'sucking'
p74
tp75
(S'NN'
p76
S'debris'
p77
tp78
tp79
F6.562344847762323
tp80
a(((S'JJ'
p81
S'gas-laden'
p82
tp83
(S'NN'
p84
S'debris'
p85
tp86
tp87
F6.562344847762323
tp88
a(((S'JJ'
p89
S'pebble-size'
p90
tp91
(S'NN'
p92
S'debris'
p93
tp94
tp95
F6.562344847762323
tp96
a(((S'JJ'
p97
S'hyalo-clastic'
p98
tp99
(S'NN'
p100
S'debris'
p101
tp102
tp103
F6.562344847762323
tp104
a(((S'JJ'
p105
S'chock-full'
p106
tp107
(S'NN'
p108
S'debris'
p109
tp110
tp111
F6.562344847762323
tp112
a(((S'JJ'
p113
S'chocolate-coloured'
p114
tp115
(S'NN'
p116
S'debris'
p117
tp118
tp119
F6.562344847762323
tp120
a(((S'JJ'
p121
S'woody'
p122
tp123
(S'NN'
p124
S'debris'
p125
tp126
tp127
F6.562344847762323
tp128
a(((S'JJ'
p129
S'horseshoe-shaped'
p130
tp131
(S'NN'
p132
S'crater'
p133
tp134
tp135
F6.394983373161276
tp136
a(((S'NN'
p137
S'cone'
p138
tp139
(S'JJ'
p140
S'4,000ft'
p141
tp142
tp143
F5.842718177279538
tp144
a(((S'JJ'
p145
S'300-foot'
p146
tp147
(S'NN'
p148
S'cone'
p149
tp150
tp151
F5.840965384722124
tp152
a(((S'JJ'
p153
S'pleasing'
p154
tp155
(S'NN'
p156
S'cone'
p157
tp158
tp159
F5.840965384722124
tp160
a(((S'JJ'
p161
S'450-feet-high'
p162
tp163
(S'NN'
p164
S'cone'
p165
tp166
tp167
F5.840965384722124
tp168
a(((S'JJ'
p169
S'28-metre'
p170
tp171
(S'NN'
p172
S'cone'
p173
tp174
tp175
F5.840965384722124
tp176
a(((S'JJ'
p177
S'backlit'
p178
tp179
(S'NN'
p180
S'cone'
p181
tp182
tp183
F5.840965384722124
tp184
a(((S'JJ'
p185
S'upstart'
p186
tp187
(S'NN'
p188
S'cone'
p189
tp190
tp191
F5.840965384722124
tp192
a(((S'JJ'
p193
S'perfectvolcanic'
p194
tp195
g139
tp196
F5.840965384722124
tp197
a(((S'NN'
p198
S'basalt'
p199
tp200
(S'JJ'
p201
S'cretaceous'
p202
tp203
tp204
F5.687282199962319
tp205
a(((S'JJ'
p206
S'nonvolcanic'
p207
tp208
(S'NNS'
p209
S'crater'
p210
tp211
tp212
F5.149368274331532
tp213
a(((S'JJ'
p214
S'gritty'
p215
tp216
(S'NN'
p217
S'debris'
p218
tp219
tp220
F4.533749215118935
tp221
a(((S'JJ'
p222
S'waterlogged'
p223
tp224
(S'NN'
p225
S'debris'
p226
tp227
tp228
F4.533749215118935
tp229
a(((S'VVN'
p230
S'litter'
p231
tp232
(S'NN'
p233
S'cinder'
p234
tp235
tp236
F4.390707415290238
tp237
a(((S'VVN'
p238
S'litter'
p239
tp240
(S'NN'
p241
S'debris'
p242
tp243
tp244
F4.320690560682126
tp245
a(((S'JJ'
p246
S'steepsided'
p247
tp248
(S'NNS'
p249
S'cone'
p250
tp251
tp252
F4.01085033684946
tp253
a(((S'JJ'
p254
S'tholeiitic'
p255
tp256
(S'NNS'
p257
S'basalt'
p258
tp259
tp260
F3.8991529978354675
tp261
a(((S'JJ'
p262
S'dark-colored'
p263
tp264
(S'NN'
p265
S'basalt'
p266
tp267
tp268
F3.8991529978354675
tp269
a(((S'JJ'
p270
S'rootless'
p271
tp272
(S'NNS'
p273
S'cone'
p274
tp275
tp276
F3.772178546122569
tp277
a(((S'NN'
p278
S'crater'
p279
tp280
(S'VVN'
p281
S'accelerated'
p282
tp283
tp284
F3.647734357178145
tp285
a(((S'NNS'
p286
S'crater'
p287
tp288
(S'VVN'
p289
S'overprint'
p290
tp291
tp292
F3.647734357178145
tp293
a(((S'NN'
p294
S'crater'
p295
tp296
(S'VVG'
p297
S'obstruct'
p298
tp299
tp300
F3.647734357178145
tp301
a(((S'NN'
p302
S'crater'
p303
tp304
(S'VVD'
p305
S'wrestle'
p306
tp307
tp308
F3.647734357178145
tp309
a(((S'NN'
p310
S'crater'
p311
tp312
(S'JJ'
p313
S'fractious'
p314
tp315
tp316
F3.647734357178145
tp317
a(((S'NN'
p318
S'crater'
p319
tp320
(S'JJ'
p321
S'deliberate'
p322
tp323
tp324
F3.647734357178145
tp325
a(((S'NN'
p326
S'crater'
p327
tp328
(S'JJ'
p329
S'15,724ft'
p330
tp331
tp332
F3.647734357178145
tp333
a(((S'JJ'
p334
S'defunct'
p335
tp336
(S'NNS'
p337
S'crater'
p338
tp339
tp340
F3.641153225606696
tp341
a(((S'JJ'
p342
S'11-mile'
p343
tp344
(S'NP'
p345
S'crater'
p346
tp347
tp348
F3.641153225606696
tp349
a(((S'JJ'
p350
S'pine-studded'
p351
tp352
(S'NN'
p353
S'crater'
p354
tp355
tp356
F3.641153225606696
tp357
a(((S'JJ'
p358
S'250-foot-wide'
p359
tp360
(S'NN'
p361
S'crater'
p362
tp363
tp364
F3.641153225606696
tp365
a(((S'JJ'
p366
S'amphitheater-like'
p367
tp368
(S'NN'
p369
S'crater'
p370
tp371
tp372
F3.641153225606696
tp373
a(((S'JJ'
p374
S'steepwalled'
p375
tp376
(S'NN'
p377
S'crater'
p378
tp379
tp380
F3.641153225606696
tp381
a(((S'JJ'
p382
S'fern-lined'
p383
tp384
(S'NNS'
p385
S'crater'
p386
tp387
tp388
F3.641153225606696
tp389
a(((S'JJ'
p390
S'six-mile-wide'
p391
tp392
(S'NN'
p393
S'crater'
p394
tp395
tp396
F3.641153225606696
tp397
a(((S'JJ'
p398
S'green-encircled'
p399
tp400
(S'NN'
p401
S'crater'
p402
tp403
tp404
F3.641153225606696
tp405
a(((S'JJ'
p406
S'sky-blue'
p407
tp408
(S'NN'
p409
S'crater'
p410
tp411
tp412
F3.641153225606696
tp413
a(((S'VVG'
p414
S'vapourizing'
p415
tp416
(S'NN'
p417
S'crater'
p418
tp419
tp420
F3.641153225606696
tp421
a(((S'JJ'
p422
S'amphitheater-shaped'
p423
tp424
(S'NN'
p425
S'crater'
p426
tp427
tp428
F3.641153225606696
tp429
a(((S'JJ'
p430
S'crescent-shaped'
p431
tp432
(S'NN'
p433
S'crater'
p434
tp435
tp436
F3.641153225606696
tp437
a(((S'VVN'
p438
S'impound'
p439
tp440
(S'NN'
p441
S'debris'
p442
tp443
tp444
F3.6148099014860144
tp445
a(((S'VVN'
p446
S'blacken'
p447
tp448
(S'NNS'
p449
S'cinder'
p450
tp451
tp452
F3.4961464586086297
tp453
a(((S'JJ'
p454
S'steep-sided'
p455
tp456
(S'NN'
p457
S'cone'
p458
tp459
tp460
F3.276704195199739
tp461
a(((S'JJ'
p462
S'incandescent'
p463
tp464
(S'NN'
p465
S'cinder'
p466
tp467
tp468
F3.229593057119043
tp469
a(((S'NN'
p470
S'cone'
p471
tp472
(S'VVG'
p473
S'twinkle'
p474
tp475
tp476
F3.1811004627428483
tp477
a(((S'NN'
p478
S'debris'
p479
tp480
(S'VVG'
p481
S'barrel'
p482
tp483
tp484
F3.0582831112554283
tp485
a(((S'VVN'
p486
S'overtake'
p487
tp488
(S'NN'
p489
S'debris'
p490
tp491
tp492
F3.055189594867038
tp493
a(((S'NN'
p494
S'basalt'
p495
tp496
(S'JJ'
p497
S'cindery'
p498
tp499
tp500
F2.811765012208548
tp501
a(((S'JJ'
p502
S'alkalic'
p503
tp504
(S'NN'
p505
S'basalt'
p506
tp507
tp508
F2.809604711737549
tp509
a(((S'JJ'
p510
S'composite'
p511
tp512
(S'NN'
p513
S'cone'
p514
tp515
tp516
F2.705883437618736
tp517
a(((S'NN'
p518
S'cone'
p519
tp520
(S'JJ'
p521
S'thunderous'
p522
tp523
tp524
F2.6716791350741773
tp525
a(((S'NNS'
p526
S'cone'
p527
tp528
(S'JJ'
p529
S'monogenetic'
p530
tp531
tp532
F2.6716791350741773
tp533
a(((S'NN'
p534
S'debris'
p535
tp536
(S'VVD'
p537
S'down'
p538
tp539
tp540
F2.668759429969575
tp541
a(((S'NN'
p542
S'debris'
p543
tp544
(S'VVN'
p545
S'fling'
p546
tp547
tp548
F2.668759429969575
tp549
a(((S'JJ'
p550
S'oval'
p551
tp552
(S'NN'
p553
S'cone'
p554
tp555
tp556
F2.6673330298096802
tp557
a(((S'JJ'
p558
S'jagged'
p559
tp560
(S'NN'
p561
S'cinder'
p562
tp563
tp564
F2.6548849538737493
tp565
a(((S'JJ'
p566
S'actual'
p567
tp568
(S'NN'
p569
S'cone'
p570
tp571
tp572
F2.5808705797510854
tp573
a(((S'JJ'
p574
S'prominent'
p575
tp576
(S'NN'
p577
S'cone'
p578
tp579
tp580
F2.4497825524148658
tp581
a(((S'JJ'
p582
S'magmatic'
p583
tp584
(S'NN'
p585
S'debris'
p586
tp587
tp588
F2.4234447973040827
tp589
a(((S'NN'
p590
S'basalt'
p591
tp592
(S'VVG'
p593
S'exit'
p594
tp595
tp596
F2.3992097344961665
tp597
a(((S'NNS'
p598
S'crater'
p599
tp600
(S'JJ'
p601
S'convoluted'
p602
tp603
tp604
F2.398183221546457
tp605
a(((S'JJ'
p606
S'flat-floored'
p607
tp608
(S'NNS'
p609
S'crater'
p610
tp611
tp612
F2.387304117550769
tp613
a(((S'JJ'
p614
S'ice-capped'
p615
tp616
(S'NN'
p617
S'crater'
p618
tp619
tp620
F2.387304117550769
tp621
a(((S'JJ'
p622
S'pocked'
p623
tp624
(S'NNS'
p625
S'crater'
p626
tp627
tp628
F2.387304117550769
tp629
a(((S'JJ'
p630
S'cavernous'
p631
tp632
(S'NNS'
p633
S'crater'
p634
tp635
tp636
F2.387304117550769
tp637
a(((S'JJ'
p638
S'ego.'
p639
tp640
(S'NN'
p641
S'crater'
p642
tp643
tp644
F2.387304117550769
tp645
a(((S'JJ'
p646
S'sunken'
p647
tp648
(S'NN'
p649
S'crater'
p650
tp651
tp652
F2.387304117550769
tp653
a(((S'JJ'
p654
S'flat-floored'
p655
tp656
(S'NN'
p657
S'crater'
p658
tp659
tp660
F2.387304117550769
tp661
a(((S'VVN'
p662
S'vaporize'
p663
tp664
(S'NN'
p665
S'debris'
p666
tp667
tp668
F2.3715423868026293
tp669
a(((S'NN'
p670
S'cone'
p671
tp672
(S'JJ'
p673
S'overlapping'
p674
tp675
tp676
F2.3151679239464777
tp677
a(((S'NN'
p678
S'cone'
p679
tp680
(S'JJ'
p681
S'shaped'
p682
tp683
tp684
F2.3151679239464777
tp685
a(((S'JJ'
p686
S'parasitic'
p687
tp688
(S'NN'
p689
S'cone'
p690
tp691
tp692
F2.3102605421211644
tp693
a(((S'JJ'
p694
S'overlapping'
p695
tp696
(S'NNS'
p697
S'cone'
p698
tp699
tp700
F2.3102605421211644
tp701
a(((S'NN'
p702
S'basalt'
p703
tp704
(S'VVD'
p705
S'gush'
p706
tp707
tp708
F2.237884084509565
tp709
a(((S'JJ'
p710
S'buoyant'
p711
tp712
(S'NN'
p713
S'basalt'
p714
tp715
tp716
F2.23532702161847
tp717
a(((S'NNS'
p718
S'cinder'
p719
tp720
(S'JJ'
p721
S'rough'
p722
tp723
tp724
F2.2227992174960622
tp725
a(((S'JJ'
p726
S'cosmic'
p727
tp728
(S'NN'
p729
S'debris'
p730
tp731
tp732
F2.138679288579473
tp733
a(((S'JJ'
p734
S'hummocky'
p735
tp736
(S'NN'
p737
S'debris'
p738
tp739
tp740
F2.138679288579473
tp741
a(((S'JJ'
p742
S'symmetrical'
p743
tp744
(S'NNS'
p745
S'cone'
p746
tp747
tp748
F2.1169993795368947
tp749
a(((S'JJ'
p750
S'inner'
p751
tp752
(S'NN'
p753
S'cone'
p754
tp755
tp756
F2.1169993795368947
tp757
a(((S'JJ'
p758
S'slow-moving'
p759
tp760
(S'NNS'
p761
S'basalt'
p762
tp763
tp764
F2.094637850452885
tp765
a(((S'NN'
p766
S'cone'
p767
tp768
(S'JJ'
p769
S'dominant'
p770
tp771
tp772
F2.0454755518348984
tp773
a(((S'NN'
p774
S'cone'
p775
tp776
(S'VVG'
p777
S'plummet'
p778
tp779
tp780
F2.0454755518348984
tp781
a(((S'VVG'
p782
S'enlarge'
p783
tp784
(S'NN'
p785
S'crater'
p786
tp787
tp788
F2.0125440783207758
tp789
a(((S'NNS'
p790
S'cinder'
p791
tp792
(S'JJ'
p793
S'glassy'
p794
tp795
tp796
F2.006682376768087
tp797
a(((S'VVG'
p798
S'batter'
p799
tp800
(S'NN'
p801
S'debris'
p802
tp803
tp804
F1.9472866259042534
tp805
a(((S'NNS'
p806
S'cinder'
p807
tp808
(S'JJ'
p809
S'abundant'
p810
tp811
tp812
F1.9132329827733425
tp813
a(((S'JJ'
p814
S'crystalline'
p815
tp816
(S'NN'
p817
S'basalt'
p818
tp819
tp820
F1.8593367686205018
tp821
a(((S'JJ'
p822
S'colossal'
p823
tp824
(S'NN'
p825
S'basalt'
p826
tp827
tp828
F1.8593367686205018
tp829
a(((S'JJ'
p830
S'abrupt'
p831
tp832
(S'NN'
p833
S'basalt'
p834
tp835
tp836
F1.8593367686205018
tp837
a(((S'NN'
p838
S'cone'
p839
tp840
(S'VVD'
p841
S'attain'
p842
tp843
tp844
F1.8308046658008865
tp845
a(((S'NN'
p846
S'cone'
p847
tp848
(S'JJ'
p849
S'invisible'
p850
tp851
tp852
F1.8308046658008865
tp853
a(((S'VVZ'
p854
S'crater'
p855
tp856
(S'JJ'
p857
S'enlarged'
p858
tp859
tp860
F1.8101821173293524
tp861
a(((S'NN'
p862
S'crater'
p863
tp864
(S'JJ'
p865
S'3,000ft'
p866
tp867
tp868
F1.8101821173293524
tp869
a(((S'NN'
p870
S'crater'
p871
tp872
(S'JJ'
p873
S'snowy'
p874
tp875
tp876
F1.8101821173293524
tp877
a(((S'JJ'
p878
S'enlarged'
p879
tp880
(S'NN'
p881
S'crater'
p882
tp883
tp884
F1.79623050426507
tp885
a(((S'VVN'
p886
S'overgrow'
p887
tp888
(S'NN'
p889
S'crater'
p890
tp891
tp892
F1.79623050426507
tp893
a(((S'JJ'
p894
S'bowl-shaped'
p895
tp896
(S'NN'
p897
S'crater'
p898
tp899
tp900
F1.79623050426507
tp901
a((g259
(S'JJ'
p902
S'shield-building'
p903
tp904
tp905
F1.7621658473202182
tp906
a(((S'JJ'
p907
S'shield-building'
p908
tp909
(S'NNS'
p910
S'basalt'
p911
tp912
tp913
F1.759203608240041
tp914
a(((S'JJ'
p915
S'fluid'
p916
tp917
(S'NN'
p918
S'basalt'
p919
tp920
tp921
F1.7297911923463192
tp922
a(((S'NN'
p923
S'debris'
p924
tp925
(S'VVG'
p926
S'hurtle'
p927
tp928
tp929
F1.6513787748786803
tp930
a(((S'NN'
p931
S'debris'
p932
tp933
(S'VVN'
p934
S'veil'
p935
tp936
tp937
F1.6513787748786803
tp938
a(((S'NN'
p939
S'debris'
p940
tp941
(S'VVN'
p942
S'saturate'
p943
tp944
tp945
F1.6513787748786803
tp946
a(((S'VVG'
p947
S'smoulder'
p948
tp949
(S'NN'
p950
S'debris'
p951
tp952
tp953
F1.646423379976177
tp954
a(((S'NN'
p955
S'basalt'
p956
tp957
(S'VVN'
p958
S'inundate'
p959
tp960
tp961
F1.5879139737044532
tp962
a(((S'JJ'
p963
S'hardened'
p964
tp965
(S'NN'
p966
S'basalt'
p967
tp968
tp969
F1.5847858528996697
tp970
a(((S'JJ'
p971
S'coarse'
p972
tp973
(S'NN'
p974
S'debris'
p975
tp976
tp977
F1.524378841114875
tp978
a(((S'NN'
p979
S'cone'
p980
tp981
(S'VVD'
p982
S'enclose'
p983
tp984
tp985
F1.5035901867545198
tp986
a(((S'JJ'
p987
S'scenic'
p988
tp989
(S'NN'
p990
S'cone'
p991
tp992
tp993
F1.4969446170382519
tp994
a(((S'JJ'
p995
S'water-saturated'
p996
tp997
(S'NN'
p998
S'cone'
p999
tp1000
tp1001
F1.4969446170382519
tp1002
a((g643
(S'JJ'
p1003
S'fateful'
p1004
tp1005
tp1006
F1.4395434177057713
tp1007
a(((S'NN'
p1008
S'crater'
p1009
tp1010
(S'VVG'
p1011
S'dislodge'
p1012
tp1013
tp1014
F1.4395434177057713
tp1015
a(((S'NN'
p1016
S'crater'
p1017
tp1018
(S'VVN'
p1019
S'nestle'
p1020
tp1021
tp1022
F1.4395434177057713
tp1023
a(((S'NN'
p1024
S'crater'
p1025
tp1026
(S'JJ'
p1027
S'infamous'
p1028
tp1029
tp1030
F1.4395434177057713
tp1031
a(((S'VVN'
p1032
S'classify'
p1033
tp1034
(S'NNS'
p1035
S'basalt'
p1036
tp1037
tp1038
F1.4368291111934182
tp1039
a(((S'JJ'
p1040
S'swollen'
p1041
tp1042
(S'NN'
p1043
S'crater'
p1044
tp1045
tp1046
F1.423083565217451
tp1047
a(((S'VVG'
p1048
S'pre-exist'
p1049
tp1050
(S'NN'
p1051
S'crater'
p1052
tp1053
tp1054
F1.423083565217451
tp1055
a(((S'JJ'
p1056
S'funnel-shaped'
p1057
tp1058
(S'NN'
p1059
S'crater'
p1060
tp1061
tp1062
F1.423083565217451
tp1063
a(((S'NN'
p1064
S'cone'
p1065
tp1066
(S'VVN'
p1067
S'strip'
p1068
tp1069
tp1070
F1.3737581812961634
tp1071
a(((S'NNS'
p1072
S'cone'
p1073
tp1074
(S'JJ'
p1075
S'episodic'
p1076
tp1077
tp1078
F1.3737581812961634
tp1079
a(((S'JJ'
p1080
S'artificial'
p1081
tp1082
(S'NN'
p1083
S'cone'
p1084
tp1085
tp1086
F1.3667577214531188
tp1087
a(((S'VVN'
p1088
S'smash'
p1089
tp1090
(S'NN'
p1091
S'debris'
p1092
tp1093
tp1094
F1.318656108985023
tp1095
a(((S'NN'
p1096
S'basalt'
p1097
tp1098
(S'JJ'
p1099
S'prolonged'
p1100
tp1101
tp1102
F1.2541067778032755
tp1103
a(((S'VVG'
p1104
S'shoot'
p1105
tp1106
(S'NNS'
p1107
S'cinder'
p1108
tp1109
tp1110
F1.2526673928376442
tp1111
a(((S'JJR'
p1112
S'sticky'
p1113
tp1114
(S'NN'
p1115
S'basalt'
p1116
tp1117
tp1118
F1.25064142592931
tp1119
a(((S'VVG'
p1120
S'joint'
p1121
tp1122
(S'NN'
p1123
S'basalt'
p1124
tp1125
tp1126
F1.25064142592931
tp1127
a((g243
(S'JJ'
p1128
S'immense'
p1129
tp1130
tp1131
F1.236225363849852
tp1132
a(((S'JJ'
p1133
S'fine-grained'
p1134
tp1135
(S'NN'
p1136
S'debris'
p1137
tp1138
tp1139
F1.2304245205828432
tp1140
a(((S'JJ'
p1141
S'steep'
p1142
tp1143
(S'NN'
p1144
S'cone'
p1145
tp1146
tp1147
F1.2031074448481558
tp1148
a(((S'NNS'
p1149
S'basalt'
p1150
tp1151
(S'VVD'
p1152
S'cease'
p1153
tp1154
tp1155
F1.1994844726053264
tp1156
a(((S'NN'
p1157
S'crater'
p1158
tp1159
(S'VVD'
p1160
S'override'
p1161
tp1162
tp1163
F1.1729614527475514
tp1164
a(((S'NN'
p1165
S'crater'
p1166
tp1167
(S'VVN'
p1168
S'deluge'
p1169
tp1170
tp1171
F1.1729614527475514
tp1172
a(((S'NN'
p1173
S'crater'
p1174
tp1175
(S'VVD'
p1176
S'reappear'
p1177
tp1178
tp1179
F1.1729614527475514
tp1180
a(((S'NN'
p1181
S'debris'
p1182
tp1183
(S'VVG'
p1184
S'orbit'
p1185
tp1186
tp1187
F1.1557883816199468
tp1188
a(((S'VVG'
p1189
S'blaze'
p1190
tp1191
(S'NN'
p1192
S'crater'
p1193
tp1194
tp1195
F1.1543351057975066
tp1196
a(((S'VVN'
p1197
S'anchor'
p1198
tp1199
(S'NN'
p1200
S'crater'
p1201
tp1202
tp1203
F1.1543351057975066
tp1204
a(((S'VVN'
p1205
S'fling'
p1206
tp1207
(S'NN'
p1208
S'crater'
p1209
tp1210
tp1211
F1.1543351057975066
tp1212
a(((S'JJ'
p1213
S'fragmented'
p1214
tp1215
(S'NN'
p1216
S'debris'
p1217
tp1218
tp1219
F1.1498040086654542
tp1220
a(((S'NN'
p1221
S'cinder'
p1222
tp1223
(S'VVN'
p1224
S'expose'
p1225
tp1226
tp1227
F1.1059441989508343
tp1228
a(((S'JJ'
p1229
S'equivalent'
p1230
tp1231
(S'NN'
p1232
S'basalt'
p1233
tp1234
tp1235
F1.0489542947088972
tp1236
a(((S'VVD'
p1237
S'throw'
p1238
tp1239
(S'VV'
p1240
S'cinder'
p1241
tp1242
tp1243
F1.0137181204169123
tp1244
a(((S'JJ'
p1245
S'gigantic'
p1246
tp1247
(S'NN'
p1248
S'debris'
p1249
tp1250
tp1251
F1.0069742847435215
tp1252
a(((S'NN'
p1253
S'cone'
p1254
tp1255
(S'JJ'
p1256
S'southeastern'
p1257
tp1258
tp1259
F0.982928310804636
tp1260
a(((S'JJ'
p1261
S'perfect'
p1262
tp1263
(S'NN'
p1264
S'cone'
p1265
tp1266
tp1267
F0.9747021882606403
tp1268
a(((S'JJ'
p1269
S'perfect'
p1270
tp1271
(S'NNS'
p1272
S'cone'
p1273
tp1274
tp1275
F0.9747021882606403
tp1276
a(((S'NNS'
p1277
S'basalt'
p1278
tp1279
(S'JJ'
p1280
S'sedimentary'
p1281
tp1282
tp1283
F0.9663137900993181
tp1284
a(((S'NN'
p1285
S'basalt'
p1286
tp1287
(S'VVG'
p1288
S'dissolve'
p1289
tp1290
tp1291
F0.9663137900993181
tp1292
a((g219
(S'VVD'
p1293
S'coat'
p1294
tp1295
tp1296
F0.9495772019851901
tp1297
a(((S'JJ'
p1298
S'steep-walled'
p1299
tp1300
(S'NN'
p1301
S'crater'
p1302
tp1303
tp1304
F0.9455750558435358
tp1305
a(((S'VVG'
p1306
S'preexist'
p1307
tp1308
(S'NNS'
p1309
S'crater'
p1310
tp1311
tp1312
F0.9455750558435358
tp1313
a(((S'JJ'
p1314
S'basin-shaped'
p1315
tp1316
(S'NN'
p1317
S'crater'
p1318
tp1319
tp1320
F0.9455750558435358
tp1321
a(((S'NN'
p1322
S'cone'
p1323
tp1324
(S'VVN'
p1325
S'vanish'
p1326
tp1327
tp1328
F0.9065711056131919
tp1329
a(((S'NN'
p1330
S'basalt'
p1331
tp1332
(S'VVN'
p1333
S'subduct'
p1334
tp1335
tp1336
F0.887446383123059
tp1337
a(((S'NNS'
p1338
S'crater'
p1339
tp1340
(S'VVN'
p1341
S'tape'
p1342
tp1343
tp1344
F0.7975869617371572
tp1345
a(((S'NN'
p1346
S'crater'
p1347
tp1348
(S'JJ'
p1349
S'stiff'
p1350
tp1351
tp1352
F0.7975869617371572
tp1353
a(((S'VVG'
p1354
S'smolder'
p1355
tp1356
(S'NN'
p1357
S'crater'
p1358
tp1359
tp1360
F0.7752735590397415
tp1361
a(((S'VVG'
p1362
S'overflow'
p1363
tp1364
(S'NN'
p1365
S'debris'
p1366
tp1367
tp1368
F0.77450776531942
tp1369
a(((S'JJ'
p1370
S'prehistoric'
p1371
tp1372
(S'NN'
p1373
S'debris'
p1374
tp1375
tp1376
F0.7245808080971754
tp1377
a(((S'JJ'
p1378
S'inner'
p1379
tp1380
(S'NN'
p1381
S'crater'
p1382
tp1383
tp1384
F0.7170959868305286
tp1385
a(((S'VVN'
p1386
S'eject'
p1387
tp1388
(S'NN'
p1389
S'debris'
p1390
tp1391
tp1392
F0.7134512551588322
tp1393
a(((S'NNS'
p1394
S'cone'
p1395
tp1396
(S'JJ'
p1397
S'opposite'
p1398
tp1399
tp1400
F0.709722996709936
tp1401
a(((S'NNS'
p1402
S'cone'
p1403
tp1404
(S'JJ'
p1405
S'hydrovolcanic'
p1406
tp1407
tp1408
F0.709722996709936
tp1409
a(((S'JJ'
p1410
S'littoral'
p1411
tp1412
(S'NP'
p1413
S'cone'
p1414
tp1415
tp1416
F0.7004920036781108
tp1417
a(((S'JJ'
p1418
S'symmetrical'
p1419
tp1420
(S'NN'
p1421
S'cone'
p1422
tp1423
tp1424
F0.7004920036781108
tp1425
a(((S'NNS'
p1426
S'crater'
p1427
tp1428
(S'JJ'
p1429
S'radial'
p1430
tp1431
tp1432
F0.6554445830303243
tp1433
a(((S'NNS'
p1434
S'crater'
p1435
tp1436
(S'JJ'
p1437
S'collapsed'
p1438
tp1439
tp1440
F0.6554445830303243
tp1441
a(((S'NN'
p1442
S'crater'
p1443
tp1444
(S'VVN'
p1445
S'enlarge'
p1446
tp1447
tp1448
F0.6554445830303243
tp1449
a(((S'JJ'
p1450
S'collapsed'
p1451
tp1452
(S'NN'
p1453
S'crater'
p1454
tp1455
tp1456
F0.6315119999303948
tp1457
a(((S'NN'
p1458
S'crater'
p1459
tp1460
(S'VVN'
p1461
S'breach'
p1462
tp1463
tp1464
F0.5992155870140067
tp1465
a(((S'NNS'
p1466
S'cone'
p1467
tp1468
(S'VVN'
p1469
S'breach'
p1470
tp1471
tp1472
F0.5987435105295549
tp1473
a(((S'NN'
p1474
S'cone'
p1475
tp1476
(S'JJ'
p1477
S'excellent'
p1478
tp1479
tp1480
F0.5987435105295549
tp1481
a(((S'NNS'
p1482
S'cone'
p1483
tp1484
(S'JJ'
p1485
S'straight'
p1486
tp1487
tp1488
F0.5987435105295549
tp1489
a(((S'VVG'
p1490
S'underlie'
p1491
tp1492
(S'NN'
p1493
S'basalt'
p1494
tp1495
tp1496
F0.5943812348913464
tp1497
a(((S'JJ'
p1498
S'individual'
p1499
tp1500
(S'NN'
p1501
S'debris'
p1502
tp1503
tp1504
F0.5893239167072678
tp1505
a(((S'JJ'
p1506
S'steep-sided'
p1507
tp1508
(S'NNS'
p1509
S'cone'
p1510
tp1511
tp1512
F0.5890704171145598
tp1513
a(((S'NNS'
p1514
S'cone'
p1515
tp1516
(S'VVN'
p1517
S'construct'
p1518
tp1519
tp1520
F0.5479275715923289
tp1521
a(((S'NN'
p1522
S'cone'
p1523
tp1524
(S'VVN'
p1525
S'concentrate'
p1526
tp1527
tp1528
F0.5479275715923289
tp1529
a(((S'NN'
p1530
S'cone'
p1531
tp1532
(S'VVN'
p1533
S'paint'
p1534
tp1535
tp1536
F0.5479275715923289
tp1537
a(((S'NNS'
p1538
S'basalt'
p1539
tp1540
(S'VVG'
p1541
S'cap'
p1542
tp1543
tp1544
F0.5193791329837313
tp1545
a(((S'VVG'
p1546
S'shroud'
p1547
tp1548
(S'NN'
p1549
S'crater'
p1550
tp1551
tp1552
F0.5070634350495259
tp1553
a(((S'VVN'
p1554
S'mistake'
p1555
tp1556
(S'NN'
p1557
S'crater'
p1558
tp1559
tp1560
F0.5070634350495259
tp1561
a(((S'VVN'
p1562
S'shroud'
p1563
tp1564
g864
tp1565
F0.5070634350495259
tp1566
a(((S'VVG'
p1567
S'dip'
p1568
tp1569
(S'NN'
p1570
S'crater'
p1571
tp1572
tp1573
F0.5070634350495259
tp1574
a(((S'VVD'
p1575
S'wrap'
p1576
tp1577
g1026
tp1578
F0.5070634350495259
tp1579
a((g984
(S'NN'
p1580
S'crater'
p1581
tp1582
tp1583
F0.5070634350495259
tp1584
a(((S'VVN'
p1585
S'enclose'
p1586
tp1587
(S'NN'
p1588
S'crater'
p1589
tp1590
tp1591
F0.5070634350495259
tp1592
a(((S'NN'
p1593
S'cone'
p1594
tp1595
(S'VVG'
p1596
S'spit'
p1597
tp1598
tp1599
F0.49977672899660514
tp1600
a(((S'NN'
p1601
S'cinder'
p1602
tp1603
(S'JJ'
p1604
S'common'
p1605
tp1606
tp1607
F0.4818709447173452
tp1608
a(((S'NN'
p1609
S'debris'
p1610
tp1611
(S'JJ'
p1612
S'original'
p1613
tp1614
tp1615
F0.4431207998683399
tp1616
a(((S'NNS'
p1617
S'cinder'
p1618
tp1619
(S'JJ'
p1620
S'red'
p1621
tp1622
tp1623
F0.41528826191497314
tp1624
a(((S'JJ'
p1625
S'scary'
p1626
tp1627
(S'NN'
p1628
S'crater'
p1629
tp1630
tp1631
F0.39724371958673155
tp1632
a(((S'NN'
p1633
S'cone'
p1634
tp1635
(S'JJ'
p1636
S'bright'
p1637
tp1638
tp1639
F0.368757426132199
tp1640
a(((S'JJ'
p1641
S'typical'
p1642
tp1643
(S'NN'
p1644
S'basalt'
p1645
tp1646
tp1647
F0.33234947219999594
tp1648
a(((S'NN'
p1649
S'crater'
p1650
tp1651
(S'VVD'
p1652
S'telephone'
p1653
tp1654
tp1655
F0.32705242306620813
tp1656
a(((S'NN'
p1657
S'crater'
p1658
tp1659
(S'VVD'
p1660
S'roll'
p1661
tp1662
tp1663
F0.31794963867702225
tp1664
a(((S'NN'
p1665
S'debris'
p1666
tp1667
(S'VVD'
p1668
S'sweep'
p1669
tp1670
tp1671
F0.31367824588001986
tp1672
a(((S'JJ'
p1673
S'south-east'
p1674
tp1675
(S'NN'
p1676
S'crater'
p1677
tp1678
tp1679
F0.2988579166134238
tp1680
a(((S'VVG'
p1681
S'reawaken'
p1682
tp1683
(S'NP'
p1684
S'crater'
p1685
tp1686
tp1687
F0.2988579166134238
tp1688
a(((S'JJR'
p1689
S'soft'
p1690
tp1691
(S'NN'
p1692
S'cone'
p1693
tp1694
tp1695
F0.24270449256254772
tp1696
a(((S'JJ'
p1697
S'volcanic'
p1698
tp1699
(S'NN'
p1700
S'debris'
p1701
tp1702
tp1703
F0.2301995766221735
tp1704
a(((S'NN'
p1705
S'debris'
p1706
tp1707
(S'VVN'
p1708
S'accumulate'
p1709
tp1710
tp1711
F0.22336361464622226
tp1712
a(((S'VVN'
p1713
S'spurt'
p1714
tp1715
(S'NN'
p1716
S'crater'
p1717
tp1718
tp1719
F0.20963709805836764
tp1720
a(((S'JJ'
p1721
S'secondary'
p1722
tp1723
(S'NN'
p1724
S'crater'
p1725
tp1726
tp1727
F0.20963709805836764
tp1728
a(((S'JJ'
p1729
S'flaming'
p1730
tp1731
(S'NN'
p1732
S'crater'
p1733
tp1734
tp1735
F0.20963709805836764
tp1736
a(((S'VVD'
p1737
S'wind'
p1738
tp1739
(S'NN'
p1740
S'cinder'
p1741
tp1742
tp1743
F0.18399333961739658
tp1744
a(((S'JJ'
p1745
S'relative'
p1746
tp1747
(S'NN'
p1748
S'basalt'
p1749
tp1750
tp1751
F0.1792981370595124
tp1752
a(((S'NN'
p1753
S'crater'
p1754
tp1755
(S'VVG'
p1756
S'enjoy'
p1757
tp1758
tp1759
F0.16986064328857126
tp1760
a(((S'NN'
p1761
S'crater'
p1762
tp1763
(S'VVN'
p1764
S'consume'
p1765
tp1766
tp1767
F0.15859108977897335
tp1768
a(((S'NNS'
p1769
S'cone'
p1770
tp1771
(S'JJ'
p1772
S'narrow'
p1773
tp1774
tp1775
F0.15133622975661845
tp1776
a(((S'NNS'
p1777
S'cone'
p1778
tp1779
(S'VVN'
p1780
S'compose'
p1781
tp1782
tp1783
F0.14479806530058945
tp1784
a(((S'JJ'
p1785
S'unstable'
p1786
tp1787
(S'NN'
p1788
S'debris'
p1789
tp1790
tp1791
F0.13409876399521994
tp1792
a(((S'NN'
p1793
S'cone'
p1794
tp1795
(S'JJ'
p1796
S'flat'
p1797
tp1798
tp1799
F0.08856161278781187
tp1800
a(((S'NNS'
p1801
S'cone'
p1802
tp1803
(S'JJ'
p1804
S'flat'
p1805
tp1806
tp1807
F0.08856161278781187
tp1808
a(((S'NN'
p1809
S'crater'
p1810
tp1811
(S'VVN'
p1812
S'own'
p1813
tp1814
tp1815
F0.08427287041638842
tp1816
a(((S'VVN'
p1817
S'venture'
p1818
tp1819
(S'NN'
p1820
S'crater'
p1821
tp1822
tp1823
F0.052440258307944417
tp1824
a(((S'VVN'
p1825
S'compose'
p1826
tp1827
(S'NN'
p1828
S'basalt'
p1829
tp1830
tp1831
F0.04724435824245553
tp1832
a(((S'NN'
p1833
S'debris'
p1834
tp1835
(S'VVN'
p1836
S'derive'
p1837
tp1838
tp1839
F0.04473937573401967
tp1840
a(((S'NN'
p1841
S'debris'
p1842
tp1843
(S'VVN'
p1844
S'emit'
p1845
tp1846
tp1847
F0.04473937573401967
tp1848
a(((S'NNS'
p1849
S'crater'
p1850
tp1851
(S'VVN'
p1852
S'ease'
p1853
tp1854
tp1855
F0.015183986553067417
tp1856
a(((S'NNS'
p1857
S'crater'
p1858
tp1859
(S'VVN'
p1860
S'restrict'
p1861
tp1862
tp1863
F0.015183986553067417
tp1864
a(((S'VVG'
p1865
S'drain'
p1866
tp1867
(S'NN'
p1868
S'debris'
p1869
tp1870
tp1871
F0.01268916765454822
tp1872
a(((S'NN'
p1873
S'debris'
p1874
tp1875
(S'VVG'
p1876
S'blanket'
p1877
tp1878
tp1879
F-0.0008708914969552904
tp1880
a(((S'NN'
p1881
S'debris'
p1882
tp1883
(S'VVD'
p1884
S'hurl'
p1885
tp1886
tp1887
F-0.0008708914969552904
tp1888
a(((S'JJ'
p1889
S'visible'
p1890
tp1891
(S'NN'
p1892
S'cone'
p1893
tp1894
tp1895
F-0.010976679135019216
tp1896
a(((S'JJ'
p1897
S'viscous'
p1898
tp1899
(S'NN'
p1900
S'basalt'
p1901
tp1902
tp1903
F-0.012699664323478603
tp1904
a(((S'JJ'
p1905
S'irregular'
p1906
tp1907
(S'NNS'
p1908
S'crater'
p1909
tp1910
tp1911
F-0.017759406392068418
tp1912
a(((S'JJ'
p1913
S'upper'
p1914
tp1915
(S'NN'
p1916
S'cone'
p1917
tp1918
tp1919
F-0.01901216596023448
tp1920
a(((S'NN'
p1921
S'debris'
p1922
tp1923
(S'VVN'
p1924
S'extrude'
p1925
tp1926
tp1927
F-0.04450602624577661
tp1928
a(((S'NN'
p1929
S'crater'
p1930
tp1931
(S'VVN'
p1932
S'double'
p1933
tp1934
tp1935
F-0.04943258562651822
tp1936
a(((S'NN'
p1937
S'cone'
p1938
tp1939
(S'JJ'
p1940
S'adjacent'
p1941
tp1942
tp1943
F-0.07897687113004306
tp1944
a((g1234
(S'VVN'
p1945
S'compare'
p1946
tp1947
tp1948
F-0.07903841774539927
tp1949
a(((S'VVD'
p1950
S'scramble'
p1951
tp1952
(S'NN'
p1953
S'crater'
p1954
tp1955
tp1956
F-0.08344431256306892
tp1957
a(((S'JJ'
p1958
S'dense'
p1959
tp1960
(S'NN'
p1961
S'basalt'
p1962
tp1963
tp1964
F-0.09642588117016035
tp1965
a(((S'NN'
p1966
S'cone'
p1967
tp1968
(S'VVN'
p1969
S'represent'
p1970
tp1971
tp1972
F-0.1292065905946462
tp1973
a(((S'JJ'
p1974
S'beautiful'
p1975
tp1976
(S'NN'
p1977
S'cone'
p1978
tp1979
tp1980
F-0.14207006604629563
tp1981
a(((S'NN'
p1982
S'basalt'
p1983
tp1984
(S'JJ'
p1985
S'dark'
p1986
tp1987
tp1988
F-0.1575956445517375
tp1989
a(((S'JJ'
p1990
S'dark'
p1991
tp1992
(S'NNS'
p1993
S'basalt'
p1994
tp1995
tp1996
F-0.1613386814832228
tp1997
a(((S'NN'
p1998
S'crater'
p1999
tp2000
(S'VVN'
p2001
S'peer'
p2002
tp2003
tp2004
F-0.16755603906226854
tp2005
a(((S'NNS'
p2006
S'cone'
p2007
tp2008
(S'JJ'
p2009
S'broad'
p2010
tp2011
tp2012
F-0.1771280122147701
tp2013
a(((S'JJ'
p2014
S'broad'
p2015
tp2016
(S'NN'
p2017
S'cone'
p2018
tp2019
tp2020
F-0.19020005480712043
tp2021
a(((S'VVN'
p2022
S'propel'
p2023
tp2024
(S'NN'
p2025
S'crater'
p2026
tp2027
tp2028
F-0.20359206542972552
tp2029
a(((S'VVG'
p2030
S'peer'
p2031
tp2032
(S'NN'
p2033
S'crater'
p2034
tp2035
tp2036
F-0.20359206542972552
tp2037
a(((S'JJ'
p2038
S'minor'
p2039
tp2040
(S'NN'
p2041
S'debris'
p2042
tp2043
tp2044
F-0.212108265371168
tp2045
a(((S'JJ'
p2046
S'enormous'
p2047
tp2048
(S'NN'
p2049
S'cone'
p2050
tp2051
tp2052
F-0.2134687668823929
tp2053
a(((S'VVD'
p2054
S'mean'
p2055
tp2056
g1287
tp2057
F-0.23428161616504864
tp2058
a(((S'JJS'
p2059
S'bad'
p2060
tp2061
(S'NN'
p2062
S'basalt'
p2063
tp2064
tp2065
F-0.25752856639363303
tp2066
a(((S'NN'
p2067
S'cone'
p2068
tp2069
(S'VVD'
p2070
S'exist'
p2071
tp2072
tp2073
F-0.26694180457113115
tp2074
a(((S'NNS'
p2075
S'cinder'
p2076
tp2077
(S'VVD'
p2078
S'fall'
p2079
tp2080
tp2081
F-0.2713996715123826
tp2082
a(((S'JJ'
p2083
S'molten'
p2084
tp2085
(S'NN'
p2086
S'basalt'
p2087
tp2088
tp2089
F-0.2866991694855342
tp2090
a(((S'NN'
p2091
S'cinder'
p2092
tp2093
(S'VVN'
p2094
S'see'
p2095
tp2096
tp2097
F-0.2990654689411158
tp2098
a(((S'JJ'
p2099
S'tall'
p2100
tp2101
(S'NNS'
p2102
S'cone'
p2103
tp2104
tp2105
F-0.3018181346187236
tp2106
a(((S'NP'
p2107
S'crater'
p2108
tp2109
(S'VVG'
p2110
S'overflow'
p2111
tp2112
tp2113
F-0.32313502387519427
tp2114
a(((S'NN'
p2115
S'crater'
p2116
tp2117
(S'VVN'
p2118
S'overflow'
p2119
tp2120
tp2121
F-0.32313502387519427
tp2122
a(((S'JJ'
p2123
S'fine'
p2124
tp2125
(S'NN'
p2126
S'debris'
p2127
tp2128
tp2129
F-0.35003022139298257
tp2130
a(((S'JJ'
p2131
S'pyroclastic'
p2132
tp2133
(S'NN'
p2134
S'debris'
p2135
tp2136
tp2137
F-0.3649151141044977
tp2138
a(((S'NNS'
p2139
S'crater'
p2140
tp2141
(S'VVG'
p2142
S'spit'
p2143
tp2144
tp2145
F-0.370431388051762
tp2146
a(((S'NNS'
p2147
S'crater'
p2148
tp2149
(S'JJ'
p2150
S'steady'
p2151
tp2152
tp2153
F-0.370431388051762
tp2154
a(((S'JJ'
p2155
S'prehistoric'
p2156
tp2157
(S'NNS'
p2158
S'crater'
p2159
tp2160
tp2161
F-0.410144758823743
tp2162
a(((S'VVN'
p2163
S'confine'
p2164
tp2165
(S'NN'
p2166
S'crater'
p2167
tp2168
tp2169
F-0.410144758823743
tp2170
a(((S'NN'
p2171
S'basalt'
p2172
tp2173
(S'JJ'
p2174
S'short'
p2175
tp2176
tp2177
F-0.4148802979798919
tp2178
a(((S'JJ'
p2179
S'massive'
p2180
tp2181
(S'NN'
p2182
S'basalt'
p2183
tp2184
tp2185
F-0.4177584611809436
tp2186
a(((S'NN'
p2187
S'basalt'
p2188
tp2189
(S'JJ'
p2190
S'common'
p2191
tp2192
tp2193
F-0.4347085348826379
tp2194
a(((S'VVG'
p2195
S'include'
p2196
tp2197
(S'NNS'
p2198
S'cinder'
p2199
tp2200
tp2201
F-0.4363147698230267
tp2202
a((g715
(S'JJ'
p2203
S'upper'
p2204
tp2205
tp2206
F-0.46383540141248586
tp2207
a(((S'JJ'
p2208
S'numerous'
p2209
tp2210
(S'NNS'
p2211
S'cone'
p2212
tp2213
tp2214
F-0.47815026693363505
tp2215
a(((S'NN'
p2216
S'debris'
p2217
tp2218
(S'VVG'
p2219
S'surge'
p2220
tp2221
tp2222
F-0.4916890871027062
tp2223
a(((S'VVG'
p2224
S'surround'
p2225
tp2226
(S'NN'
p2227
S'basalt'
p2228
tp2229
tp2230
F-0.4947543362045236
tp2231
a(((S'NN'
p2232
S'basalt'
p2233
tp2234
(S'JJ'
p2235
S'young'
p2236
tp2237
tp2238
F-0.5291461435962083
tp2239
a(((S'NN'
p2240
S'crater'
p2241
tp2242
(S'VVN'
p2243
S'connect'
p2244
tp2245
tp2246
F-0.5421574844498912
tp2247
a(((S'NN'
p2248
S'debris'
p2249
tp2250
(S'JJ'
p2251
S'shallow'
p2252
tp2253
tp2254
F-0.5471512602178948
tp2255
a(((S'NN'
p2256
S'cone'
p2257
tp2258
(S'JJ'
p2259
S'heavy'
p2260
tp2261
tp2262
F-0.5511110473074895
tp2263
a(((S'NNS'
p2264
S'basalt'
p2265
tp2266
(S'JJ'
p2267
S'fluid'
p2268
tp2269
tp2270
F-0.556091471563238
tp2271
a((g1495
(S'JJ'
p2272
S'fluid'
p2273
tp2274
tp2275
F-0.556091471563238
tp2276
a(((S'NN'
p2277
S'basalt'
p2278
tp2279
(S'VVD'
p2280
S'fill'
p2281
tp2282
tp2283
F-0.5649432466709682
tp2284
a(((S'NN'
p2285
S'crater'
p2286
tp2287
(S'JJ'
p2288
S'colombian'
p2289
tp2290
tp2291
F-0.5814460481801099
tp2292
a(((S'NN'
p2293
S'crater'
p2294
tp2295
(S'VVN'
p2296
S'apply'
p2297
tp2298
tp2299
F-0.5814460481801099
tp2300
a(((S'VVG'
p2301
S'billow'
p2302
tp2303
g872
tp2304
F-0.5851577725621563
tp2305
a(((S'JJ'
p2306
S'solid'
p2307
tp2308
(S'NN'
p2309
S'debris'
p2310
tp2311
tp2312
F-0.6100080777397361
tp2313
a(((S'VVG'
p2314
S'issue'
p2315
tp2316
g2258
tp2317
F-0.6152230602133253
tp2318
a(((S'NN'
p2319
S'crater'
p2320
tp2321
(S'JJ'
p2322
S'occasional'
p2323
tp2324
tp2325
F-0.6195060417801231
tp2326
a(((S'JJ'
p2327
S'dormant'
p2328
tp2329
(S'NNS'
p2330
S'cone'
p2331
tp2332
tp2333
F-0.6313182028916781
tp2334
a(((S'VVG'
p2335
S'spew'
p2336
tp2337
(S'NN'
p2338
S'debris'
p2339
tp2340
tp2341
F-0.6483295370577761
tp2342
a(((S'NNS'
p2343
S'crater'
p2344
tp2345
(S'VVN'
p2346
S'subduct'
p2347
tp2348
tp2349
F-0.6564289826596877
tp2350
a(((S'NN'
p2351
S'crater'
p2352
tp2353
(S'VVG'
p2354
S'belch'
p2355
tp2356
tp2357
F-0.6564289826596877
tp2358
a(((S'NN'
p2359
S'basalt'
p2360
tp2361
(S'VVN'
p2362
S'associate'
p2363
tp2364
tp2365
F-0.6583839173921114
tp2366
a(((S'NNS'
p2367
S'basalt'
p2368
tp2369
(S'VVN'
p2370
S'associate'
p2371
tp2372
tp2373
F-0.6583839173921114
tp2374
a(((S'VVN'
p2375
S'hold'
p2376
tp2377
(S'NN'
p2378
S'debris'
p2379
tp2380
tp2381
F-0.6608454035068025
tp2382
a(((S'VVN'
p2383
S'rush'
p2384
tp2385
(S'NN'
p2386
S'crater'
p2387
tp2388
tp2389
F-0.6640309722695764
tp2390
a(((S'JJ'
p2391
S'white'
p2392
tp2393
(S'NN'
p2394
S'cone'
p2395
tp2396
tp2397
F-0.6783926591520073
tp2398
a(((S'NNS'
p2399
S'cone'
p2400
tp2401
(S'JJ'
p2402
S'northwest'
p2403
tp2404
tp2405
F-0.6938926474073117
tp2406
a(((S'NN'
p2407
S'cone'
p2408
tp2409
(S'VVN'
p2410
S'name'
p2411
tp2412
tp2413
F-0.6938926474073117
tp2414
a(((S'NN'
p2415
S'debris'
p2416
tp2417
(S'VVN'
p2418
S'eject'
p2419
tp2420
tp2421
F-0.6999540942491806
tp2422
a(((S'VVN'
p2423
S'name'
p2424
tp2425
(S'NN'
p2426
S'cone'
p2427
tp2428
tp2429
F-0.7088273642317262
tp2430
a(((S'NN'
p2431
S'debris'
p2432
tp2433
(S'VVD'
p2434
S'solidify'
p2435
tp2436
tp2437
F-0.7118946397994369
tp2438
a(((S'NN'
p2439
S'debris'
p2440
tp2441
(S'VVD'
p2442
S'fly'
p2443
tp2444
tp2445
F-0.7354525597925338
tp2446
a(((S'VVG'
p2447
S'fly'
p2448
tp2449
(S'NN'
p2450
S'debris'
p2451
tp2452
tp2453
F-0.7451554623723402
tp2454
a(((S'NN'
p2455
S'crater'
p2456
tp2457
(S'VVD'
p2458
S'glow'
p2459
tp2460
tp2461
F-0.7611489542135981
tp2462
a(((S'NN'
p2463
S'crater'
p2464
tp2465
(S'VVD'
p2466
S'serve'
p2467
tp2468
tp2469
F-0.7611489542135981
tp2470
a(((S'VVN'
p2471
S'lower'
p2472
tp2473
(S'NN'
p2474
S'crater'
p2475
tp2476
tp2477
F-0.773866752493309
tp2478
a(((S'VVD'
p2479
S'call'
p2480
tp2481
(S'NNS'
p2482
S'cinder'
p2483
tp2484
tp2485
F-0.784874797572825
tp2486
a(((S'VVN'
p2487
S'call'
p2488
tp2489
(S'NNS'
p2490
S'cinder'
p2491
tp2492
tp2493
F-0.784874797572825
tp2494
a(((S'JJS'
p2495
S'southwest'
p2496
tp2497
(S'NN'
p2498
S'crater'
p2499
tp2500
tp2501
F-0.7985050180998767
tp2502
a(((S'NN'
p2503
S'crater'
p2504
tp2505
(S'VVN'
p2506
S'join'
p2507
tp2508
tp2509
F-0.8265637359884983
tp2510
a(((S'VVN'
p2511
S'clear'
p2512
tp2513
(S'NN'
p2514
S'debris'
p2515
tp2516
tp2517
F-0.8352521867169863
tp2518
a(((S'VVG'
p2519
S'release'
p2520
tp2521
(S'NN'
p2522
S'debris'
p2523
tp2524
tp2525
F-0.8352521867169863
tp2526
a(((S'NN'
p2527
S'debris'
p2528
tp2529
(S'JJ'
p2530
S'giant'
p2531
tp2532
tp2533
F-0.8365857632333575
tp2534
a(((S'JJ'
p2535
S'dark'
p2536
tp2537
(S'NN'
p2538
S'cone'
p2539
tp2540
tp2541
F-0.8375844993347648
tp2542
a(((S'JJ'
p2543
S'massive'
p2544
tp2545
(S'NN'
p2546
S'debris'
p2547
tp2548
tp2549
F-0.867531933780998
tp2550
a(((S'JJ'
p2551
S'similar'
p2552
tp2553
g2069
tp2554
F-0.9040898766241684
tp2555
a(((S'NN'
p2556
S'crater'
p2557
tp2558
(S'VVN'
p2559
S'gather'
p2560
tp2561
tp2562
F-0.9191148071462769
tp2563
a(((S'JJ'
p2564
S'visible'
p2565
tp2566
(S'NP'
p2567
S'crater'
p2568
tp2569
tp2570
F-0.9389474252329284
tp2571
a(((S'VVD'
p2572
S'visit'
p2573
tp2574
(S'NN'
p2575
S'debris'
p2576
tp2577
tp2578
F-0.9400258281381211
tp2579
a(((S'NN'
p2580
S'crater'
p2581
tp2582
(S'VVG'
p2583
S'roll'
p2584
tp2585
tp2586
F-0.9486451576239147
tp2587
a(((S'NN'
p2588
S'crater'
p2589
tp2590
(S'VVG'
p2591
S'ready'
p2592
tp2593
tp2594
F-0.9486451576239147
tp2595
a(((S'VVD'
p2596
S'trigger'
p2597
tp2598
(S'NN'
p2599
S'debris'
p2600
tp2601
tp2602
F-0.9500814581373056
tp2603
a(((S'VVD'
p2604
S'believe'
p2605
tp2606
g1279
tp2607
F-0.9565392133312655
tp2608
a(((S'NN'
p2609
S'crater'
p2610
tp2611
(S'JJ'
p2612
S'adjacent'
p2613
tp2614
tp2615
F-0.9775744990714492
tp2616
a(((S'VVD'
p2617
S'slide'
p2618
tp2619
(S'NN'
p2620
S'debris'
p2621
tp2622
tp2623
F-0.9798275043997191
tp2624
a(((S'VVN'
p2625
S'store'
p2626
tp2627
(S'NN'
p2628
S'crater'
p2629
tp2630
tp2631
F-0.9998801635554458
tp2632
a(((S'NN'
p2633
S'crater'
p2634
tp2635
(S'VVD'
p2636
S'display'
p2637
tp2638
tp2639
F-1.0059339641425271
tp2640
a(((S'NN'
p2641
S'debris'
p2642
tp2643
(S'JJ'
p2644
S'nearby'
p2645
tp2646
tp2647
F-1.0096120342979185
tp2648
a(((S'VVD'
p2649
S'call'
p2650
tp2651
(S'NN'
p2652
S'basalt'
p2653
tp2654
tp2655
F-1.0172128606456272
tp2656
a(((S'NN'
p2657
S'debris'
p2658
tp2659
(S'VVD'
p2660
S'fill'
p2661
tp2662
tp2663
F-1.019175462698428
tp2664
a(((S'JJ'
p2665
S'high'
p2666
tp2667
(S'NN'
p2668
S'cinder'
p2669
tp2670
tp2671
F-1.0228374554692283
tp2672
a(((S'JJ'
p2673
S'adjacent'
p2674
tp2675
(S'NN'
p2676
S'crater'
p2677
tp2678
tp2679
F-1.0294111620561082
tp2680
a(((S'NN'
p2681
S'crater'
p2682
tp2683
(S'VVD'
p2684
S'sink'
p2685
tp2686
tp2687
F-1.0337522587422645
tp2688
a(((S'VVG'
p2689
S'develop'
p2690
tp2691
(S'NN'
p2692
S'debris'
p2693
tp2694
tp2695
F-1.065556378198972
tp2696
a(((S'JJ'
p2697
S'beautiful'
p2698
tp2699
(S'NP'
p2700
S'crater'
p2701
tp2702
tp2703
F-1.0867603249056703
tp2704
a(((S'VVD'
p2705
S'sink'
p2706
tp2707
(S'NN'
p2708
S'crater'
p2709
tp2710
tp2711
F-1.0867603249056703
tp2712
a(((S'NN'
p2713
S'crater'
p2714
tp2715
(S'JJ'
p2716
S'broad'
p2717
tp2718
tp2719
F-1.0878694763787715
tp2720
a(((S'NP'
p2721
S'crater'
p2722
tp2723
(S'VVD'
p2724
S'drain'
p2725
tp2726
tp2727
F-1.1142157499878398
tp2728
a(((S'JJ'
p2729
S'hot'
p2730
tp2731
(S'NNS'
p2732
S'cinder'
p2733
tp2734
tp2735
F-1.1144689331920254
tp2736
a(((S'JJ'
p2737
S'natural'
p2738
tp2739
(S'NN'
p2740
S'debris'
p2741
tp2742
tp2743
F-1.1200676656031567
tp2744
a((g2104
(S'JJ'
p2745
S'steep'
p2746
tp2747
tp2748
F-1.1274927546096516
tp2749
a(((S'JJ'
p2750
S'glowing'
p2751
tp2752
(S'NN'
p2753
S'crater'
p2754
tp2755
tp2756
F-1.1420087400050078
tp2757
a(((S'VVN'
p2758
S'throw'
p2759
tp2760
g1659
tp2761
F-1.143425772792128
tp2762
a(((S'VVN'
p2763
S'ooze'
p2764
tp2765
(S'NN'
p2766
S'crater'
p2767
tp2768
tp2769
F-1.1689063373105932
tp2770
a((g763
(S'VVN'
p2771
S'cool'
p2772
tp2773
tp2774
F-1.178451098127758
tp2775
a(((S'NNS'
p2776
S'cone'
p2777
tp2778
(S'VVN'
p2779
S'visit'
p2780
tp2781
tp2782
F-1.181736206842021
tp2783
a(((S'VVD'
p2784
S'visit'
p2785
tp2786
(S'NN'
p2787
S'cone'
p2788
tp2789
tp2790
F-1.1970319265118852
tp2791
a(((S'VVG'
p2792
S'surround'
p2793
tp2794
(S'NN'
p2795
S'cone'
p2796
tp2797
tp2798
F-1.2076462933241425
tp2799
a(((S'NN'
p2800
S'debris'
p2801
tp2802
(S'VVG'
p2803
S'range'
p2804
tp2805
tp2806
F-1.2325427637133575
tp2807
a(((S'JJ'
p2808
S'main'
p2809
tp2810
(S'NN'
p2811
S'crater'
p2812
tp2813
tp2814
F-1.2346287229899218
tp2815
a(((S'VVN'
p2816
S'rest'
p2817
tp2818
(S'NN'
p2819
S'crater'
p2820
tp2821
tp2822
F-1.272137759119151
tp2823
a(((S'VVN'
p2824
S'damage'
p2825
tp2826
(S'NN'
p2827
S'debris'
p2828
tp2829
tp2830
F-1.2729185466019435
tp2831
a(((S'VVG'
p2832
S'build'
p2833
tp2834
(S'NN'
p2835
S'cone'
p2836
tp2837
tp2838
F-1.2785761651261172
tp2839
a(((S'NNS'
p2840
S'crater'
p2841
tp2842
(S'JJS'
p2843
S'southwest'
p2844
tp2845
tp2846
F-1.2871665138886461
tp2847
a(((S'VVG'
p2848
S'erode'
p2849
tp2850
(S'NN'
p2851
S'crater'
p2852
tp2853
tp2854
F-1.2969463281631448
tp2855
a(((S'VVD'
p2856
S'plug'
p2857
tp2858
(S'NN'
p2859
S'crater'
p2860
tp2861
tp2862
F-1.2969463281631448
tp2863
a((g94
(S'VVD'
p2864
S'rain'
p2865
tp2866
tp2867
F-1.3137675491611338
tp2868
a(((S'VVG'
p2869
S'stream'
p2870
tp2871
(S'NN'
p2872
S'cone'
p2873
tp2874
tp2875
F-1.319990721752083
tp2876
a(((S'NN'
p2877
S'debris'
p2878
tp2879
(S'VVD'
p2880
S'block'
p2881
tp2882
tp2883
F-1.32168041912532
tp2884
a(((S'NN'
p2885
S'debris'
p2886
tp2887
(S'VVD'
p2888
S'fall'
p2889
tp2890
tp2891
F-1.3283004199245827
tp2892
a(((S'NN'
p2893
S'cone'
p2894
tp2895
(S'VVN'
p2896
S'grow'
p2897
tp2898
tp2899
F-1.3387030196501937
tp2900
a(((S'VVN'
p2901
S'draw'
p2902
tp2903
(S'NN'
p2904
S'crater'
p2905
tp2906
tp2907
F-1.345475225775959
tp2908
a(((S'VVD'
p2909
S'descend'
p2910
tp2911
(S'NN'
p2912
S'crater'
p2913
tp2914
tp2915
F-1.345475225775959
tp2916
a(((S'VVN'
p2917
S'present'
p2918
tp2919
(S'NNS'
p2920
S'cone'
p2921
tp2922
tp2923
F-1.3493394242030385
tp2924
a(((S'VVD'
p2925
S'blow'
p2926
tp2927
(S'NN'
p2928
S'debris'
p2929
tp2930
tp2931
F-1.3673144986696983
tp2932
a(((S'VVG'
p2933
S'shoot'
p2934
tp2935
(S'NN'
p2936
S'crater'
p2937
tp2938
tp2939
F-1.3692234055169827
tp2940
a(((S'VVN'
p2941
S'shoot'
p2942
tp2943
(S'NN'
p2944
S'crater'
p2945
tp2946
tp2947
F-1.3692234055169827
tp2948
a(((S'NNS'
p2949
S'cone'
p2950
tp2951
(S'JJ'
p2952
S'similar'
p2953
tp2954
tp2955
F-1.4105357473547118
tp2956
a(((S'NN'
p2957
S'debris'
p2958
tp2959
(S'VVN'
p2960
S'cover'
p2961
tp2962
tp2963
F-1.4729129917349448
tp2964
a(((S'JJ'
p2965
S'numerous'
p2966
tp2967
(S'NNS'
p2968
S'crater'
p2969
tp2970
tp2971
F-1.4832891123126373
tp2972
a(((S'JJ'
p2973
S'hawaiian'
p2974
tp2975
(S'NN'
p2976
S'basalt'
p2977
tp2978
tp2979
F-1.4861930284117046
tp2980
a(((S'NN'
p2981
S'crater'
p2982
tp2983
(S'VVD'
p2984
S'hear'
p2985
tp2986
tp2987
F-1.5066956603910526
tp2988
a(((S'JJ'
p2989
S'entire'
p2990
tp2991
(S'NN'
p2992
S'crater'
p2993
tp2994
tp2995
F-1.526930790366678
tp2996
a((g976
(S'JJ'
p2997
S'eruptive'
p2998
tp2999
tp3000
F-1.5300645747018147
tp3001
a(((S'NNS'
p3002
S'crater'
p3003
tp3004
(S'JJ'
p3005
S'single'
p3006
tp3007
tp3008
F-1.5475203430289717
tp3009
a(((S'JJ'
p3010
S'central'
p3011
tp3012
(S'NN'
p3013
S'crater'
p3014
tp3015
tp3016
F-1.565232045321744
tp3017
a(((S'VVN'
p3018
S'hear'
p3019
tp3020
(S'NN'
p3021
S'crater'
p3022
tp3023
tp3024
F-1.5695488859523752
tp3025
a(((S'NN'
p3026
S'debris'
p3027
tp3028
(S'VVD'
p3029
S'provide'
p3030
tp3031
tp3032
F-1.599177131408409
tp3033
a((g2380
(S'VVN'
p3034
S'provide'
p3035
tp3036
tp3037
F-1.599177131408409
tp3038
a(((S'JJ'
p3039
S'huge'
p3040
tp3041
(S'NN'
p3042
S'debris'
p3043
tp3044
tp3045
F-1.6030709051399665
tp3046
a((g118
(S'VVD'
p3047
S'destroy'
p3048
tp3049
tp3050
F-1.6059554056146566
tp3051
a(((S'NNS'
p3052
S'crater'
p3053
tp3054
(S'JJ'
p3055
S'dormant'
p3056
tp3057
tp3058
F-1.6071242054944679
tp3059
a(((S'VVG'
p3060
S'move'
p3061
tp3062
(S'NN'
p3063
S'debris'
p3064
tp3065
tp3066
F-1.609756878129493
tp3067
a(((S'VVD'
p3068
S'form'
p3069
tp3070
g2077
tp3071
F-1.6105614095952066
tp3072
a(((S'NN'
p3073
S'debris'
p3074
tp3075
(S'VVN'
p3076
S'build'
p3077
tp3078
tp3079
F-1.638269841715199
tp3080
a(((S'NN'
p3081
S'cone'
p3082
tp3083
(S'VVN'
p3084
S'build'
p3085
tp3086
tp3087
F-1.6442083182595408
tp3088
a(((S'VVD'
p3089
S'turn'
p3090
tp3091
g472
tp3092
F-1.6514611224215359
tp3093
a(((S'VVD'
p3094
S'arrive'
p3095
tp3096
(S'NN'
p3097
S'crater'
p3098
tp3099
tp3100
F-1.6519628314871206
tp3101
a(((S'VVG'
p3102
S'discover'
p3103
tp3104
(S'NN'
p3105
S'crater'
p3106
tp3107
tp3108
F-1.6519628314871206
tp3109
a(((S'NN'
p3110
S'debris'
p3111
tp3112
(S'VVN'
p3113
S'deposit'
p3114
tp3115
tp3116
F-1.6790341191137041
tp3117
a(((S'NN'
p3118
S'crater'
p3119
tp3120
(S'JJ'
p3121
S'green'
p3122
tp3123
tp3124
F-1.6838052550720408
tp3125
a(((S'NN'
p3126
S'crater'
p3127
tp3128
(S'VVN'
p3129
S'name'
p3130
tp3131
tp3132
F-1.702513635186597
tp3133
a(((S'NNS'
p3134
S'cone'
p3135
tp3136
(S'VVN'
p3137
S'generate'
p3138
tp3139
tp3140
F-1.7074037856177917
tp3141
a(((S'NN'
p3142
S'debris'
p3143
tp3144
(S'JJ'
p3145
S'explosive'
p3146
tp3147
tp3148
F-1.7308675539407086
tp3149
a(((S'JJ'
p3150
S'ancient'
p3151
tp3152
(S'NN'
p3153
S'crater'
p3154
tp3155
tp3156
F-1.750236236814903
tp3157
a(((S'JJ'
p3158
S'green'
p3159
tp3160
(S'NN'
p3161
S'crater'
p3162
tp3163
tp3164
F-1.750236236814903
tp3165
a(((S'NN'
p3166
S'cone'
p3167
tp3168
(S'VVN'
p3169
S'cover'
p3170
tp3171
tp3172
F-1.7582358294383735
tp3173
a(((S'NN'
p3174
S'cone'
p3175
tp3176
(S'VVD'
p3177
S'grow'
p3178
tp3179
tp3180
F-1.789123957378062
tp3181
a((g190
(S'VVG'
p3182
S'grow'
p3183
tp3184
tp3185
F-1.789123957378062
tp3186
a((g1218
(S'VVN'
p3187
S'generate'
p3188
tp3189
tp3190
F-1.7994515296590925
tp3191
a(((S'VVG'
p3192
S'surge'
p3193
tp3194
(S'NN'
p3195
S'crater'
p3196
tp3197
tp3198
F-1.806941279371198
tp3199
a(((S'VVG'
p3200
S'push'
p3201
tp3202
(S'NN'
p3203
S'crater'
p3204
tp3205
tp3206
F-1.8438839921843213
tp3207
a(((S'NN'
p3208
S'crater'
p3209
tp3210
(S'VVN'
p3211
S'estimate'
p3212
tp3213
tp3214
F-1.846248295083427
tp3215
a(((S'JJ'
p3216
S'volcanic'
p3217
tp3218
g1619
tp3219
F-1.8521858379769407
tp3220
a(((S'NNS'
p3221
S'crater'
p3222
tp3223
(S'JJ'
p3224
S'common'
p3225
tp3226
tp3227
F-1.8762234252940166
tp3228
a(((S'VVN'
p3229
S'pour'
p3230
tp3231
(S'NN'
p3232
S'crater'
p3233
tp3234
tp3235
F-1.8801779460724057
tp3236
a(((S'NNS'
p3237
S'basalt'
p3238
tp3239
(S'VVD'
p3240
S'produce'
p3241
tp3242
tp3243
F-1.8825058668209642
tp3244
a(((S'VVN'
p3245
S'call'
p3246
tp3247
(S'NN'
p3248
S'basalt'
p3249
tp3250
tp3251
F-1.885684720423404
tp3252
a(((S'VVG'
p3253
S'well'
p3254
tp3255
(S'NN'
p3256
S'crater'
p3257
tp3258
tp3259
F-1.8980914607545045
tp3260
a(((S'VVD'
p3261
S'blast'
p3262
tp3263
(S'NN'
p3264
S'debris'
p3265
tp3266
tp3267
F-1.9006183310849878
tp3268
a(((S'NN'
p3269
S'cone'
p3270
tp3271
(S'VVD'
p3272
S'move'
p3273
tp3274
tp3275
F-1.9011519774610306
tp3276
a(((S'NN'
p3277
S'debris'
p3278
tp3279
(S'VVN'
p3280
S'blast'
p3281
tp3282
tp3283
F-1.9017683274595887
tp3284
a(((S'NN'
p3285
S'cone'
p3286
tp3287
(S'JJ'
p3288
S'low'
p3289
tp3290
tp3291
F-1.9084212063236985
tp3292
a(((S'NN'
p3293
S'cone'
p3294
tp3295
(S'VVN'
p3296
S'create'
p3297
tp3298
tp3299
F-1.915666904240127
tp3300
a(((S'VVD'
p3301
S'walk'
p3302
tp3303
g304
tp3304
F-1.915854272458961
tp3305
a(((S'JJ'
p3306
S'massive'
p3307
tp3308
g1755
tp3309
F-1.9196407109699298
tp3310
a(((S'NN'
p3311
S'cone'
p3312
tp3313
(S'VVD'
p3314
S'collapse'
p3315
tp3316
tp3317
F-1.9311490471502537
tp3318
a(((S'VVN'
p3319
S'determine'
p3320
tp3321
(S'NP'
p3322
S'crater'
p3323
tp3324
tp3325
F-1.9854671626713054
tp3326
a(((S'JJ'
p3327
S'old'
p3328
tp3329
(S'NN'
p3330
S'cone'
p3331
tp3332
tp3333
F-1.9966298360571997
tp3334
a(((S'NNS'
p3335
S'crater'
p3336
tp3337
(S'VVD'
p3338
S'shake'
p3339
tp3340
tp3341
F-1.997044520595173
tp3342
a(((S'VVD'
p3343
S'climb'
p3344
tp3345
(S'NN'
p3346
S'crater'
p3347
tp3348
tp3349
F-2.0025268861732513
tp3350
a(((S'VVG'
p3351
S'climb'
p3352
tp3353
(S'NN'
p3354
S'crater'
p3355
tp3356
tp3357
F-2.0025268861732513
tp3358
a(((S'VVG'
p3359
S'spew'
p3360
tp3361
(S'NN'
p3362
S'crater'
p3363
tp3364
tp3365
F-2.0025268861732513
tp3366
a(((S'VVN'
p3367
S'locate'
p3368
tp3369
(S'NN'
p3370
S'crater'
p3371
tp3372
tp3373
F-2.036255083539689
tp3374
a(((S'VVN'
p3375
S'eject'
p3376
tp3377
(S'NN'
p3378
S'crater'
p3379
tp3380
tp3381
F-2.0859103515233244
tp3382
a(((S'NN'
p3383
S'crater'
p3384
tp3385
(S'VVG'
p3386
S'explode'
p3387
tp3388
tp3389
F-2.107667404386959
tp3390
a(((S'VVD'
p3391
S'fly'
p3392
tp3393
(S'NN'
p3394
S'crater'
p3395
tp3396
tp3397
F-2.1345021082457025
tp3398
a(((S'NN'
p3399
S'debris'
p3400
tp3401
(S'JJ'
p3402
S'past'
p3403
tp3404
tp3405
F-2.1842176531541884
tp3406
a(((S'NN'
p3407
S'cone'
p3408
tp3409
(S'JJ'
p3410
S'molten'
p3411
tp3412
tp3413
F-2.2268904790141986
tp3414
a(((S'NN'
p3415
S'crater'
p3416
tp3417
(S'JJ'
p3418
S'massive'
p3419
tp3420
tp3421
F-2.2280279853017815
tp3422
a(((S'NN'
p3423
S'crater'
p3424
tp3425
(S'JJ'
p3426
S'common'
p3427
tp3428
tp3429
F-2.257210067899212
tp3430
a(((S'NN'
p3431
S'crater'
p3432
tp3433
(S'VVD'
p3434
S'detect'
p3435
tp3436
tp3437
F-2.257210067899212
tp3438
a(((S'NN'
p3439
S'cone'
p3440
tp3441
(S'JJ'
p3442
S'deep'
p3443
tp3444
tp3445
F-2.2709995078849947
tp3446
a(((S'JJ'
p3447
S'giant'
p3448
tp3449
(S'NN'
p3450
S'crater'
p3451
tp3452
tp3453
F-2.2744941471793383
tp3454
a(((S'JJ'
p3455
S'giant'
p3456
tp3457
(S'NNS'
p3458
S'crater'
p3459
tp3460
tp3461
F-2.2744941471793383
tp3462
a((g2789
(S'VVD'
p3463
S'do'
p3464
tp3465
tp3466
F-2.277240342917002
tp3467
a(((S'NN'
p3468
S'crater'
p3469
tp3470
(S'JJ'
p3471
S'upper'
p3472
tp3473
tp3474
F-2.300352945751905
tp3475
a(((S'JJ'
p3476
S'wide'
p3477
tp3478
(S'NN'
p3479
S'crater'
p3480
tp3481
tp3482
F-2.304524968094069
tp3483
a(((S'JJ'
p3484
S'short'
p3485
tp3486
(S'NN'
p3487
S'crater'
p3488
tp3489
tp3490
F-2.304524968094069
tp3491
a(((S'VVG'
p3492
S'result'
p3493
tp3494
(S'NN'
p3495
S'cone'
p3496
tp3497
tp3498
F-2.3065659838495165
tp3499
a(((S'JJ'
p3500
S'steep'
p3501
tp3502
(S'NN'
p3503
S'crater'
p3504
tp3505
tp3506
F-2.3341933894916056
tp3507
a(((S'JJ'
p3508
S'southern'
p3509
tp3510
(S'NN'
p3511
S'crater'
p3512
tp3513
tp3514
F-2.348895577467563
tp3515
a(((S'JJ'
p3516
S'big'
p3517
tp3518
g1803
tp3519
F-2.3604410319957396
tp3520
a(((S'NN'
p3521
S'crater'
p3522
tp3523
(S'VVG'
p3524
S'bubble'
p3525
tp3526
tp3527
F-2.370668905150155
tp3528
a(((S'VVD'
p3529
S'build'
p3530
tp3531
(S'NN'
p3532
S'cone'
p3533
tp3534
tp3535
F-2.384017065886558
tp3536
a((g3155
(S'JJR'
p3537
S'young'
p3538
tp3539
tp3540
F-2.3982688508458194
tp3541
a(((S'JJ'
p3542
S'dangerous'
p3543
tp3544
(S'NN'
p3545
S'crater'
p3546
tp3547
tp3548
F-2.4353509897136822
tp3549
a(((S'NN'
p3550
S'crater'
p3551
tp3552
(S'JJ'
p3553
S'nearby'
p3554
tp3555
tp3556
F-2.43913391756567
tp3557
a(((S'NN'
p3558
S'crater'
p3559
tp3560
(S'VVN'
p3561
S'fill'
p3562
tp3563
tp3564
F-2.4526173328792984
tp3565
a(((S'JJ'
p3566
S'explosive'
p3567
tp3568
(S'NNS'
p3569
S'cone'
p3570
tp3571
tp3572
F-2.470530535428484
tp3573
a(((S'VVD'
p3574
S'produce'
p3575
tp3576
(S'NN'
p3577
S'debris'
p3578
tp3579
tp3580
F-2.4912569094794934
tp3581
a(((S'NN'
p3582
S'debris'
p3583
tp3584
(S'VVN'
p3585
S'produce'
p3586
tp3587
tp3588
F-2.5092315795321767
tp3589
a(((S'NNS'
p3590
S'cone'
p3591
tp3592
(S'JJ'
p3593
S'long'
p3594
tp3595
tp3596
F-2.515800144871319
tp3597
a(((S'JJ'
p3598
S'nearby'
p3599
tp3600
(S'NN'
p3601
S'crater'
p3602
tp3603
tp3604
F-2.5189963571720804
tp3605
a(((S'VVN'
p3606
S'call'
p3607
tp3608
(S'NN'
p3609
S'debris'
p3610
tp3611
tp3612
F-2.5224615836193687
tp3613
a(((S'VVD'
p3614
S'fill'
p3615
tp3616
(S'NN'
p3617
S'crater'
p3618
tp3619
tp3620
F-2.532682094899446
tp3621
a(((S'VVN'
p3622
S'fill'
p3623
tp3624
(S'NN'
p3625
S'crater'
p3626
tp3627
tp3628
F-2.532682094899446
tp3629
a(((S'NN'
p3630
S'debris'
p3631
tp3632
(S'VVD'
p3633
S'call'
p3634
tp3635
tp3636
F-2.541622315265164
tp3637
a((g427
(S'JJ'
p3638
S'open'
p3639
tp3640
tp3641
F-2.5581397073604224
tp3642
a(((S'NNS'
p3643
S'cone'
p3644
tp3645
(S'VVN'
p3646
S'produce'
p3647
tp3648
tp3649
F-2.563709477517145
tp3650
a(((S'NN'
p3651
S'cone'
p3652
tp3653
(S'VVN'
p3654
S'produce'
p3655
tp3656
tp3657
F-2.563709477517145
tp3658
a(((S'VVN'
p3659
S'bury'
p3660
tp3661
g3560
tp3662
F-2.573323398130125
tp3663
a(((S'NN'
p3664
S'crater'
p3665
tp3666
(S'VVN'
p3667
S'block'
p3668
tp3669
tp3670
F-2.5734846588343725
tp3671
a(((S'NN'
p3672
S'cone'
p3673
tp3674
(S'VVN'
p3675
S'show'
p3676
tp3677
tp3678
F-2.5780327005665558
tp3679
a(((S'NN'
p3680
S'debris'
p3681
tp3682
(S'VVD'
p3683
S'come'
p3684
tp3685
tp3686
F-2.5782189851130135
tp3687
a(((S'VVD'
p3688
S'cause'
p3689
tp3690
(S'NN'
p3691
S'debris'
p3692
tp3693
tp3694
F-2.664868164164402
tp3695
a(((S'JJ'
p3696
S'natural'
p3697
tp3698
(S'NN'
p3699
S'crater'
p3700
tp3701
tp3702
F-2.6658515737549178
tp3703
a(((S'VVN'
p3704
S'associate'
p3705
tp3706
(S'NN'
p3707
S'crater'
p3708
tp3709
tp3710
F-2.6788201354300134
tp3711
a(((S'VVG'
p3712
S'slope'
p3713
tp3714
g1795
tp3715
F-2.683031665451472
tp3716
a(((S'NN'
p3717
S'debris'
p3718
tp3719
(S'VVD'
p3720
S'begin'
p3721
tp3722
tp3723
F-2.716090956258466
tp3724
a(((S'VVN'
p3725
S'flood'
p3726
tp3727
(S'NN'
p3728
S'crater'
p3729
tp3730
tp3731
F-2.7173695962798132
tp3732
a((g387
(S'JJ'
p3733
S'black'
p3734
tp3735
tp3736
F-2.7215897709881656
tp3737
a(((S'JJ'
p3738
S'hot'
p3739
tp3740
g2441
tp3741
F-2.7283705803241123
tp3742
a(((S'NN'
p3743
S'crater'
p3744
tp3745
(S'VVN'
p3746
S'break'
p3747
tp3748
tp3749
F-2.745941416415211
tp3750
a(((S'NN'
p3751
S'crater'
p3752
tp3753
(S'VVN'
p3754
S'set'
p3755
tp3756
tp3757
F-2.758043110873777
tp3758
a(((S'NN'
p3759
S'crater'
p3760
tp3761
(S'VVD'
p3762
S'travel'
p3763
tp3764
tp3765
F-2.8296529045287118
tp3766
a(((S'VVN'
p3767
S'die'
p3768
tp3769
g2287
tp3770
F-2.8422351161837938
tp3771
a(((S'VVD'
p3772
S'die'
p3773
tp3774
(S'NN'
p3775
S'crater'
p3776
tp3777
tp3778
F-2.8422351161837938
tp3779
a(((S'VVG'
p3780
S'produce'
p3781
tp3782
(S'NN'
p3783
S'cone'
p3784
tp3785
tp3786
F-2.8706792816758724
tp3787
a((g1210
(S'VVD'
p3788
S'rain'
p3789
tp3790
tp3791
F-2.876480915751771
tp3792
a(((S'NNS'
p3793
S'cone'
p3794
tp3795
(S'VVD'
p3796
S'rise'
p3797
tp3798
tp3799
F-2.8767051307391345
tp3800
a(((S'NNS'
p3801
S'cone'
p3802
tp3803
(S'VVD'
p3804
S'produce'
p3805
tp3806
tp3807
F-2.8817957135355172
tp3808
a(((S'VVG'
p3809
S'erupt'
p3810
tp3811
(S'NN'
p3812
S'basalt'
p3813
tp3814
tp3815
F-2.898971607808862
tp3816
a(((S'VVN'
p3817
S'travel'
p3818
tp3819
(S'NN'
p3820
S'crater'
p3821
tp3822
tp3823
F-2.91467650030692
tp3824
a((g110
(S'JJ'
p3825
S'high'
p3826
tp3827
tp3828
F-2.922834149961082
tp3829
a((g251
(S'VVN'
p3830
S'know'
p3831
tp3832
tp3833
F-2.9422947069106273
tp3834
a(((S'NN'
p3835
S'cone'
p3836
tp3837
(S'VVN'
p3838
S'know'
p3839
tp3840
tp3841
F-2.9422947069106273
tp3842
a(((S'NNS'
p3843
S'crater'
p3844
tp3845
(S'VVN'
p3846
S'appear'
p3847
tp3848
tp3849
F-2.9454374531173992
tp3850
a(((S'NN'
p3851
S'crater'
p3852
tp3853
(S'VVD'
p3854
S'blow'
p3855
tp3856
tp3857
F-2.9454374531173992
tp3858
a(((S'NN'
p3859
S'basalt'
p3860
tp3861
(S'VVN'
p3862
S'erupt'
p3863
tp3864
tp3865
F-2.9884425190003614
tp3866
a(((S'NNS'
p3867
S'basalt'
p3868
tp3869
(S'VVD'
p3870
S'erupt'
p3871
tp3872
tp3873
F-2.9884425190003614
tp3874
a(((S'JJ'
p3875
S'new'
p3876
tp3877
(S'NN'
p3878
S'cone'
p3879
tp3880
tp3881
F-2.990265415320454
tp3882
a(((S'NNS'
p3883
S'crater'
p3884
tp3885
(S'JJ'
p3886
S'recent'
p3887
tp3888
tp3889
F-3.001787054172215
tp3890
a(((S'JJ'
p3891
S'close'
p3892
tp3893
g3853
tp3894
F-3.031498087411566
tp3895
a((g1582
(S'VVD'
p3896
S'contain'
p3897
tp3898
tp3899
F-3.0571806883662216
tp3900
a(((S'NN'
p3901
S'basalt'
p3902
tp3903
(S'VVN'
p3904
S'form'
p3905
tp3906
tp3907
F-3.097390208184512
tp3908
a(((S'JJ'
p3909
S'huge'
p3910
tp3911
(S'NN'
p3912
S'crater'
p3913
tp3914
tp3915
F-3.108079503316931
tp3916
a(((S'NN'
p3917
S'crater'
p3918
tp3919
(S'VVN'
p3920
S'cover'
p3921
tp3922
tp3923
F-3.1116670933486654
tp3924
a((g627
(S'VVN'
p3925
S'cover'
p3926
tp3927
tp3928
F-3.1116670933486654
tp3929
a(((S'VVG'
p3930
S'steam'
p3931
tp3932
(S'NN'
p3933
S'crater'
p3934
tp3935
tp3936
F-3.129714102164424
tp3937
a(((S'JJ'
p3938
S'east'
p3939
tp3940
(S'NN'
p3941
S'crater'
p3942
tp3943
tp3944
F-3.1555289214702733
tp3945
a(((S'JJ'
p3946
S'active'
p3947
tp3948
g3837
tp3949
F-3.1665224604727156
tp3950
a((g3444
(S'NN'
p3951
S'crater'
p3952
tp3953
tp3954
F-3.1809884478831982
tp3955
a(((S'NN'
p3956
S'crater'
p3957
tp3958
(S'JJ'
p3959
S'seismic'
p3960
tp3961
tp3962
F-3.197068900835363
tp3963
a(((S'NN'
p3964
S'crater'
p3965
tp3966
(S'VVD'
p3967
S'melt'
p3968
tp3969
tp3970
F-3.2389940380834843
tp3971
a(((S'VVD'
p3972
S'grow'
p3973
tp3974
(S'NN'
p3975
S'crater'
p3976
tp3977
tp3978
F-3.2427009240816327
tp3979
a(((S'VVD'
p3980
S'lead'
p3981
tp3982
(S'NN'
p3983
S'crater'
p3984
tp3985
tp3986
F-3.285439928099791
tp3987
a(((S'JJ'
p3988
S'large'
p3989
tp3990
(S'NN'
p3991
S'debris'
p3992
tp3993
tp3994
F-3.295194928215465
tp3995
a(((S'NNS'
p3996
S'crater'
p3997
tp3998
(S'VVN'
p3999
S'provide'
p4000
tp4001
tp4002
F-3.3009654470082896
tp4003
a(((S'NN'
p4004
S'crater'
p4005
tp4006
(S'VVN'
p4007
S'destroy'
p4008
tp4009
tp4010
F-3.3111906563772706
tp4011
a((g2452
(S'JJR'
p4012
S'large'
p4013
tp4014
tp4015
F-3.355564032782637
tp4016
a((g2136
(S'JJ'
p4017
S'large'
p4018
tp4019
tp4020
F-3.355564032782637
tp4021
a(((S'VVG'
p4022
S'steam'
p4023
tp4024
(S'NNS'
p4025
S'crater'
p4026
tp4027
tp4028
F-3.393667162993835
tp4029
a(((S'JJR'
p4030
S'low'
p4031
tp4032
(S'NN'
p4033
S'crater'
p4034
tp4035
tp4036
F-3.4105132112276957
tp4037
a(((S'VVP'
p4038
S'crater'
p4039
tp4040
(S'VVG'
p4041
S'follow'
p4042
tp4043
tp4044
F-3.441584602836524
tp4045
a(((S'NN'
p4046
S'crater'
p4047
tp4048
(S'VVD'
p4049
S'think'
p4050
tp4051
tp4052
F-3.4612462865741858
tp4053
a(((S'VVN'
p4054
S'see'
p4055
tp4056
(S'NP'
p4057
S'crater'
p4058
tp4059
tp4060
F-3.4640875833813842
tp4061
a(((S'JJR'
p4062
S'old'
p4063
tp4064
(S'VVN'
p4065
S'crater'
p4066
tp4067
tp4068
F-3.5213389679377767
tp4069
a(((S'VVZ'
p4070
S'crater'
p4071
tp4072
(S'VVD'
p4073
S'steam'
p4074
tp4075
tp4076
F-3.567616393968199
tp4077
a(((S'JJS'
p4078
S'close'
p4079
tp4080
(S'NN'
p4081
S'crater'
p4082
tp4083
tp4084
F-3.570597809829741
tp4085
a(((S'NN'
p4086
S'crater'
p4087
tp4088
(S'VVD'
p4089
S'generate'
p4090
tp4091
tp4092
F-3.605586995371937
tp4093
a(((S'NNS'
p4094
S'crater'
p4095
tp4096
(S'VVN'
p4097
S'see'
p4098
tp4099
tp4100
F-3.633828066278216
tp4101
a((g2035
(S'VVG'
p4102
S'see'
p4103
tp4104
tp4105
F-3.633828066278216
tp4106
a((g2027
(S'JJ'
p4107
S'molten'
p4108
tp4109
tp4110
F-3.772149945824489
tp4111
a(((S'NN'
p4112
S'cone'
p4113
tp4114
(S'VVN'
p4115
S'form'
p4116
tp4117
tp4118
F-3.805512533919372
tp4119
a((g747
(S'JJ'
p4120
S'large'
p4121
tp4122
tp4123
F-3.811103013437042
tp4124
a(((S'VVD'
p4125
S'remain'
p4126
tp4127
(S'NN'
p4128
S'crater'
p4129
tp4130
tp4131
F-3.834951373907941
tp4132
a(((S'VVD'
p4133
S'form'
p4134
tp4135
(S'NN'
p4136
S'debris'
p4137
tp4138
tp4139
F-3.845614155340509
tp4140
a(((S'VVD'
p4141
S'blast'
p4142
tp4143
(S'NN'
p4144
S'crater'
p4145
tp4146
tp4147
F-3.853149735431547
tp4148
a(((S'VVD'
p4149
S'blast'
p4150
tp4151
(S'NNS'
p4152
S'crater'
p4153
tp4154
tp4155
F-3.853149735431547
tp4156
a((g3163
(S'VVD'
p4157
S'result'
p4158
tp4159
tp4160
F-3.8795873621064456
tp4161
a(((S'JJ'
p4162
S'deep'
p4163
tp4164
(S'NNS'
p4165
S'crater'
p4166
tp4167
tp4168
F-3.9251104985271055
tp4169
a(((S'VVG'
p4170
S'go'
p4171
tp4172
g1651
tp4173
F-3.934014220117475
tp4174
a(((S'NN'
p4175
S'debris'
p4176
tp4177
(S'VVN'
p4178
S'form'
p4179
tp4180
tp4181
F-3.9520723351144693
tp4182
a(((S'NN'
p4183
S'debris'
p4184
tp4185
(S'VVD'
p4186
S'form'
p4187
tp4188
tp4189
F-3.9520723351144693
tp4190
a(((S'VVG'
p4191
S'collapse'
p4192
tp4193
(S'NN'
p4194
S'crater'
p4195
tp4196
tp4197
F-3.9782375946586788
tp4198
a(((S'NN'
p4199
S'cone'
p4200
tp4201
(S'VVD'
p4202
S'form'
p4203
tp4204
tp4205
F-4.026862925126027
tp4206
a(((S'VVG'
p4207
S'include'
p4208
tp4209
(S'NN'
p4210
S'crater'
p4211
tp4212
tp4213
F-4.039346614042708
tp4214
a(((S'NN'
p4215
S'crater'
p4216
tp4217
(S'VVN'
p4218
S'leave'
p4219
tp4220
tp4221
F-4.101106638394087
tp4222
a(((S'VVG'
p4223
S'form'
p4224
tp4225
(S'NN'
p4226
S'cone'
p4227
tp4228
tp4229
F-4.14229281272292
tp4230
a(((S'VVG'
p4231
S'erupt'
p4232
tp4233
(S'NN'
p4234
S'cone'
p4235
tp4236
tp4237
F-4.231285304939203
tp4238
a(((S'VVN'
p4239
S'study'
p4240
tp4241
(S'NN'
p4242
S'crater'
p4243
tp4244
tp4245
F-4.2422563790324
tp4246
a(((S'NN'
p4247
S'crater'
p4248
tp4249
(S'VVN'
p4250
S'show'
p4251
tp4252
tp4253
F-4.276947406380587
tp4254
a(((S'NP'
p4255
S'cone'
p4256
tp4257
(S'VVD'
p4258
S'erupt'
p4259
tp4260
tp4261
F-4.324981061001562
tp4262
a(((S'NNS'
p4263
S'cone'
p4264
tp4265
(S'VVD'
p4266
S'erupt'
p4267
tp4268
tp4269
F-4.324981061001562
tp4270
a(((S'VVN'
p4271
S'show'
p4272
tp4273
(S'NNS'
p4274
S'crater'
p4275
tp4276
tp4277
F-4.364332766462997
tp4278
a(((S'VVG'
p4279
S'rise'
p4280
tp4281
(S'NN'
p4282
S'crater'
p4283
tp4284
tp4285
F-4.378846164301331
tp4286
a(((S'VVD'
p4287
S'near'
p4288
tp4289
(S'NN'
p4290
S'crater'
p4291
tp4292
tp4293
F-4.3917654172929375
tp4294
a(((S'NN'
p4295
S'crater'
p4296
tp4297
(S'VVG'
p4298
S'make'
p4299
tp4300
tp4301
F-4.397005837568059
tp4302
a(((S'NNS'
p4303
S'cone'
p4304
tp4305
(S'VVN'
p4306
S'form'
p4307
tp4308
tp4309
F-4.469563707539337
tp4310
a(((S'NN'
p4311
S'crater'
p4312
tp4313
(S'VVD'
p4314
S'leave'
p4315
tp4316
tp4317
F-4.529672203306521
tp4318
a(((S'VVD'
p4319
S'occur'
p4320
tp4321
(S'NN'
p4322
S'crater'
p4323
tp4324
tp4325
F-4.560597743398713
tp4326
a(((S'NN'
p4327
S'crater'
p4328
tp4329
(S'VVN'
p4330
S'know'
p4331
tp4332
tp4333
F-4.604044951037226
tp4334
a(((S'VVD'
p4335
S'leave'
p4336
tp4337
(S'NN'
p4338
S'crater'
p4339
tp4340
tp4341
F-4.614067589538613
tp4342
a(((S'VVG'
p4343
S'leave'
p4344
tp4345
(S'NNS'
p4346
S'crater'
p4347
tp4348
tp4349
F-4.614067589538613
tp4350
a(((S'VVG'
p4351
S'leave'
p4352
tp4353
(S'NP'
p4354
S'crater'
p4355
tp4356
tp4357
F-4.614067589538613
tp4358
a(((S'VVG'
p4359
S'come'
p4360
tp4361
g4048
tp4362
F-4.705996767692409
tp4363
a(((S'NP'
p4364
S'crater'
p4365
tp4366
(S'VVN'
p4367
S'produce'
p4368
tp4369
tp4370
F-4.718819499384042
tp4371
a(((S'NN'
p4372
S'crater'
p4373
tp4374
(S'VVN'
p4375
S'produce'
p4376
tp4377
tp4378
F-4.718819499384042
tp4379
a(((S'NN'
p4380
S'crater'
p4381
tp4382
(S'VVN'
p4383
S'call'
p4384
tp4385
tp4386
F-4.770609873874156
tp4387
a((g3452
(S'VVD'
p4388
S'call'
p4389
tp4390
tp4391
F-4.770609873874156
tp4392
a(((S'NN'
p4393
S'crater'
p4394
tp4395
(S'VVD'
p4396
S'come'
p4397
tp4398
tp4399
F-4.829210169479837
tp4400
a(((S'VVD'
p4401
S'call'
p4402
tp4403
(S'NNS'
p4404
S'crater'
p4405
tp4406
tp4407
F-4.851051521559596
tp4408
a(((S'VVD'
p4409
S'call'
p4410
tp4411
(S'NN'
p4412
S'crater'
p4413
tp4414
tp4415
F-4.851051521559596
tp4416
a((g3840
(S'NP'
p4417
S'crater'
p4418
tp4419
tp4420
F-4.887048761116657
tp4421
a(((S'JJ'
p4422
S'volcanic'
p4423
tp4424
(S'NN'
p4425
S'cone'
p4426
tp4427
tp4428
F-4.905025915424626
tp4429
a(((S'JJ'
p4430
S'new'
p4431
tp4432
(S'NN'
p4433
S'crater'
p4434
tp4435
tp4436
F-4.912102196623861
tp4437
a(((S'NN'
p4438
S'crater'
p4439
tp4440
(S'VVN'
p4441
S'cause'
p4442
tp4443
tp4444
F-5.0085238148738815
tp4445
a(((S'NN'
p4446
S'crater'
p4447
tp4448
(S'VVD'
p4449
S'begin'
p4450
tp4451
tp4452
F-5.050747231556219
tp4453
a(((S'NN'
p4454
S'crater'
p4455
tp4456
(S'JJR'
p4457
S'small'
p4458
tp4459
tp4460
F-5.203070960990952
tp4461
a(((S'NNS'
p4462
S'crater'
p4463
tp4464
(S'JJR'
p4465
S'small'
p4466
tp4467
tp4468
F-5.203070960990952
tp4469
a(((S'JJ'
p4470
S'active'
p4471
tp4472
g3004
tp4473
F-5.297241405260194
tp4474
a(((S'JJ'
p4475
S'active'
p4476
tp4477
(S'NN'
p4478
S'crater'
p4479
tp4480
tp4481
F-5.297241405260194
tp4482
a(((S'NN'
p4483
S'crater'
p4484
tp4485
(S'JJ'
p4486
S'high'
p4487
tp4488
tp4489
F-5.385032347147841
tp4490
a(((S'NNS'
p4491
S'crater'
p4492
tp4493
(S'JJ'
p4494
S'high'
p4495
tp4496
tp4497
F-5.385032347147841
tp4498
a(((S'NN'
p4499
S'crater'
p4500
tp4501
(S'JJ'
p4502
S'active'
p4503
tp4504
tp4505
F-5.594277700053371
tp4506
a(((S'JJ'
p4507
S'volcanic'
p4508
tp4509
(S'NNS'
p4510
S'cone'
p4511
tp4512
tp4513
F-5.704407273730606
tp4514
a(((S'VVP'
p4515
S'crater'
p4516
tp4517
(S'JJ'
p4518
S'new'
p4519
tp4520
tp4521
F-5.728163616737549
tp4522
a(((S'JJ'
p4523
S'new'
p4524
tp4525
(S'NNS'
p4526
S'crater'
p4527
tp4528
tp4529
F-5.78120885109661
tp4530
a(((S'NN'
p4531
S'crater'
p4532
tp4533
(S'JJ'
p4534
S'large'
p4535
tp4536
tp4537
F-5.927035988356987
tp4538
a(((S'VVD'
p4539
S'say'
p4540
tp4541
g1635
tp4542
F-6.018423772723698
tp4543
a((g363
(S'JJR'
p4544
S'large'
p4545
tp4546
tp4547
F-6.091484212325759
tp4548
a(((S'JJR'
p4549
S'large'
p4550
tp4551
(S'NN'
p4552
S'crater'
p4553
tp4554
tp4555
F-6.128812705358966
tp4556
a(((S'JJ'
p4557
S'volcanic'
p4558
tp4559
(S'NP'
p4560
S'cone'
p4561
tp4562
tp4563
F-6.184036088714194
tp4564
a(((S'NN'
p4565
S'crater'
p4566
tp4567
(S'VVN'
p4568
S'form'
p4569
tp4570
tp4571
F-6.501548699168581
tp4572
a(((S'VVG'
p4573
S'form'
p4574
tp4575
(S'NN'
p4576
S'crater'
p4577
tp4578
tp4579
F-6.767543321302432
tp4580
a(((S'NNS'
p4581
S'crater'
p4582
tp4583
(S'VVN'
p4584
S'form'
p4585
tp4586
tp4587
F-6.789153930674899
tp4588
a(((S'VVN'
p4589
S'erupt'
p4590
tp4591
(S'NN'
p4592
S'crater'
p4593
tp4594
tp4595
F-6.853245392882458
tp4596
a(((S'NN'
p4597
S'crater'
p4598
tp4599
(S'VVD'
p4600
S'erupt'
p4601
tp4602
tp4603
F-6.859756679091238
tp4604
a(((S'VVG'
p4605
S'form'
p4606
tp4607
(S'NP'
p4608
S'crater'
p4609
tp4610
tp4611
F-7.055117954597186
tp4612
a(((S'VVD'
p4613
S'form'
p4614
tp4615
(S'NP'
p4616
S'crater'
p4617
tp4618
tp4619
F-7.055117954597186
tp4620
a((g134
(S'VVD'
p4621
S'form'
p4622
tp4623
tp4624
F-7.076759162181216
tp4625
a(((S'JJ'
p4626
S'volcanic'
p4627
tp4628
(S'NN'
p4629
S'crater'
p4630
tp4631
tp4632
F-8.714168837888348
tp4633
a(((S'VVD'
p4634
S'rock'
p4635
tp4636
(S'NNS'
p4637
S'crater'
p4638
tp4639
tp4640
F-9.012578939445309
tp4641
a(((S'VVD'
p4642
S'rock'
p4643
tp4644
(S'NN'
p4645
S'crater'
p4646
tp4647
tp4648
F-9.012578939445309
tp4649
a(((S'JJ'
p4650
S'volcanic'
p4651
tp4652
(S'NNS'
p4653
S'crater'
p4654
tp4655
tp4656
F-9.857232356184898
tp4657
a((g4594
(S'JJ'
p4658
S'volcanic'
p4659
tp4660
tp4661
F-10.2568710135976
tp4662
a((g4276
(S'JJ'
p4663
S'volcanic'
p4664
tp4665
tp4666
F-10.2568710135976
tp4667
a(((S'JJ'
p4668
S's'
p4669
tp4670
(S'NN'
p4671
S'crater'
p4672
tp4673
tp4674
F-14.200374492240828
tp4675
a.