(lp0
(((S'NOM'
p1
S'c\xc3\xb4ne'
p2
tp3
(S'ADJ'
p4
S'adventif'
p5
tp6
tp7
F15.233315793233492
tp8
a(((S'NOM'
p9
S'crat\xc3\xa8re'
p10
tp11
(S'ADJ'
p12
S'sommital'
p13
tp14
tp15
F12.589809300582523
tp16
a(((S'NOM'
p17
S'c\xc3\xb4ne'
p18
tp19
(S'ADJ'
p20
S'parfait'
p21
tp22
tp23
F12.381007588162872
tp24
a(((S'NOM'
p25
S'c\xc3\xb4ne'
p26
tp27
(S'VER:pper'
p28
S'surbaisser'
p29
tp30
tp31
F10.591117136296743
tp32
a(((S'ADJ'
p33
S'pyroclastique'
p34
tp35
(S'NOM'
p36
S'd\xc3\xa9bris'
p37
tp38
tp39
F9.730383847587666
tp40
a(((S'NOM'
p41
S'basalte'
p42
tp43
(S'ADJ'
p44
S'aphyrique'
p45
tp46
tp47
F9.552790950561146
tp48
a(((S'NOM'
p49
S'basalte'
p50
tp51
(S'ADJ'
p52
S'imbattable'
p53
tp54
tp55
F9.552790950561146
tp56
a(((S'NOM'
p57
S'basalte'
p58
tp59
(S'ADJ'
p60
S'picritique'
p61
tp62
tp63
F9.552790950561146
tp64
a(((S'ADJ'
p65
S'amygdalo\xc3\xafdale'
p66
tp67
(S'NOM'
p68
S'basalte'
p69
tp70
tp71
F9.552376797218347
tp72
a(((S'ADJ'
p73
S'subverticaux'
p74
tp75
(S'NOM'
p76
S'basalte'
p77
tp78
tp79
F9.552376797218347
tp80
a(((S'VER:pper'
p81
S'exclamer'
p82
tp83
(S'NOM'
p84
S'd\xc3\xa9bris'
p85
tp86
tp87
F9.11440843388298
tp88
a(((S'NOM'
p89
S'basalte'
p90
tp91
(S'ADJ'
p92
S'alcalin'
p93
tp94
tp95
F8.940685616997358
tp96
a(((S'NOM'
p97
S'c\xc3\xb4ne'
p98
tp99
(S'ADJ'
p100
S'surbaiss\xc3\xa9'
p101
tp102
tp103
F7.489057484694915
tp104
a(((S'NOM'
p105
S'c\xc3\xb4ne'
p106
tp107
(S'VER:pper'
p108
S'velouter'
p109
tp110
tp111
F7.489057484694915
tp112
a(((S'NOM'
p113
S'c\xc3\xb4ne'
p114
tp115
(S'VER:pper'
p116
S'massacrer'
p117
tp118
tp119
F7.489057484694915
tp120
a(((S'VER:pper'
p121
S'v\xc3\xa9roler'
p122
tp123
(S'NOM'
p124
S'c\xc3\xb4ne'
p125
tp126
tp127
F7.4882069247602
tp128
a(((S'VER:pper'
p129
S'stup\xc3\xa9faire'
p130
tp131
(S'NOM'
p132
S'c\xc3\xb4ne'
p133
tp134
tp135
F7.4882069247602
tp136
a(((S'VER:pres'
p137
S'd\xc3\xa9blayer'
p138
tp139
(S'NOM'
p140
S'd\xc3\xa9bris'
p141
tp142
tp143
F7.397489043021853
tp144
a(((S'NOM'
p145
S'c\xc3\xb4ne'
p146
tp147
(S'ADJ'
p148
S'terminal'
p149
tp150
tp151
F7.357781704340212
tp152
a(((S'NOM'
p153
S'basalte'
p154
tp155
(S'VER:pres'
p156
S'recristalliser'
p157
tp158
tp159
F6.681604868589469
tp160
a(((S'NOM'
p161
S'basalte'
p162
tp163
(S'ADJ'
p164
S'thol\xc3\xa9iitiques'
p165
tp166
tp167
F6.681604868589469
tp168
a(((S'VER:pper'
p169
S'cuirasser'
p170
tp171
(S'NOM'
p172
S'basalte'
p173
tp174
tp175
F6.680927473890907
tp176
a(((S'VER:ppre'
p177
S'enserrer'
p178
tp179
(S'NOM'
p180
S'scorie'
p181
tp182
tp183
F6.566786838577116
tp184
a(((S'VER:pper'
p185
S'h\xc3\xa9risser'
p186
tp187
(S'NOM'
p188
S'scorie'
p189
tp190
tp191
F6.566786838577116
tp192
a(((S'NOM'
p193
S'c\xc3\xb4ne'
p194
tp195
(S'VER:pper'
p196
S'\xc3\xa9lancer'
p197
tp198
tp199
F6.522285662874674
tp200
a(((S'ADJ'
p201
S'g\xc3\xa9ochimique'
p202
tp203
(S'NOM'
p204
S'basalte'
p205
tp206
tp207
F5.214502938191179
tp208
a(((S'ADJ'
p209
S'surtseyenne'
p210
tp211
(S'NOM'
p212
S'c\xc3\xb4ne'
p213
tp214
tp215
F5.201359837996538
tp216
a(((S'NOM'
p217
S'c\xc3\xb4ne'
p218
tp219
(S'ADJ'
p220
S'r\xc3\xa9gulier'
p221
tp222
tp223
F4.742766666656052
tp224
a(((S'VER:pper'
p225
S'saupoudrer'
p226
tp227
(S'NOM'
p228
S'scorie'
p229
tp230
tp231
F4.537898397157223
tp232
a(((S'NOM'
p233
S'crat\xc3\xa8re'
p234
tp235
(S'VER:pper'
p236
S'embo\xc3\xaeter'
p237
tp238
tp239
F4.496027019680976
tp240
a(((S'NOM'
p241
S'basalte'
p242
tp243
(S'ADJ'
p244
S'sombre'
p245
tp246
tp247
F3.990743785616504
tp248
a(((S'VER:pper'
p249
S'soufrer'
p250
tp251
(S'NOM'
p252
S'd\xc3\xa9bris'
p253
tp254
tp255
F3.8815613760793473
tp256
a(((S'NOM'
p257
S'c\xc3\xb4ne'
p258
tp259
(S'ADJ'
p260
S'mixte'
p261
tp262
tp263
F3.7535101200455774
tp264
a(((S'NOM'
p265
S'basalte'
p266
tp267
(S'ADJ'
p268
S'mou'
p269
tp270
tp271
F3.6884460266528825
tp272
a(((S'NOM'
p273
S'crat\xc3\xa8re'
p274
tp275
(S'VER:ppre'
p276
S'ecoutant'
p277
tp278
tp279
F3.6519909639766563
tp280
a(((S'NOM'
p281
S'crat\xc3\xa8re'
p282
tp283
(S'ADJ'
p284
S'mignon'
p285
tp286
tp287
F3.6519909639766563
tp288
a(((S'NOM'
p289
S'crat\xc3\xa8re'
p290
tp291
(S'ADJ'
p292
S'\xc3\xa9gueul\xc3\xa9'
p293
tp294
tp295
F3.6519909639766563
tp296
a(((S'ADJ'
p297
S'sorti'
p298
tp299
(S'NOM'
p300
S'crat\xc3\xa8re'
p301
tp302
tp303
F3.645431494992931
tp304
a(((S'VER:pres'
p305
S'engorger'
p306
tp307
(S'NOM'
p308
S'crat\xc3\xa8re'
p309
tp310
tp311
F3.645431494992931
tp312
a(((S'VER:pper'
p313
S'cribler'
p314
tp315
(S'NOM'
p316
S'crat\xc3\xa8re'
p317
tp318
tp319
F3.645431494992931
tp320
a(((S'ADJ'
p321
S'-magma'
p322
tp323
(S'NOM'
p324
S'crat\xc3\xa8re'
p325
tp326
tp327
F3.645431494992931
tp328
a(((S'VER:pres'
p329
S'larder'
p330
tp331
(S'NOM'
p332
S'crat\xc3\xa8re'
p333
tp334
tp335
F3.645431494992931
tp336
a(((S'ADJ'
p337
S'gr\xc3\xaal\xc3\xa9'
p338
tp339
(S'NOM'
p340
S'crat\xc3\xa8re'
p341
tp342
tp343
F3.645431494992931
tp344
a(((S'VER:pper'
p345
S'couronner'
p346
tp347
(S'NOM'
p348
S'crat\xc3\xa8re'
p349
tp350
tp351
F3.598070701137828
tp352
a(((S'NOM'
p353
S'c\xc3\xb4ne'
p354
tp355
(S'ADJ'
p356
S'composite'
p357
tp358
tp359
F3.5476352259750716
tp360
a(((S'ADJ'
p361
S'dru'
p362
tp363
g107
tp364
F3.5455435137559412
tp365
a(((S'VER:pper'
p366
S'coiffer'
p367
tp368
(S'NOM'
p369
S'scorie'
p370
tp371
tp372
F3.48741756955149
tp373
a(((S'NOM'
p374
S'scorie'
p375
tp376
(S'VER:pres'
p377
S'cro\xc3\xaetre'
p378
tp379
tp380
F3.3674679808690136
tp381
a(((S'NOM'
p382
S'scorie'
p383
tp384
(S'VER:pper'
p385
S'souder'
p386
tp387
tp388
F3.256867173662624
tp389
a(((S'VER:pper'
p390
S'souder'
p391
tp392
(S'NOM'
p393
S'scorie'
p394
tp395
tp396
F3.256508500568065
tp397
a(((S'VER:pper'
p398
S'charger'
p399
tp400
(S'NOM'
p401
S'd\xc3\xa9bris'
p402
tp403
tp404
F3.215792543216756
tp405
a(((S'NOM'
p406
S'd\xc3\xa9bris'
p407
tp408
(S'ADJ'
p409
S'organique'
p410
tp411
tp412
F3.1989411438884674
tp413
a(((S'NOM'
p414
S'scorie'
p415
tp416
(S'ADJ'
p417
S'incandescent'
p418
tp419
tp420
F3.1224151500857866
tp421
a(((S'NOM'
p422
S'basalte'
p423
tp424
(S'VER:pres'
p425
S'd\xc3\xa9filer'
p426
tp427
tp428
F3.121008095300234
tp429
a(((S'NOM'
p430
S'c\xc3\xb4ne'
p431
tp432
(S'VER:pper'
p433
S'enneiger'
p434
tp435
tp436
F3.114387010135792
tp437
a(((S'NOM'
p438
S'c\xc3\xb4ne'
p439
tp440
(S'ADJ'
p441
S'sym\xc3\xa9trique'
p442
tp443
tp444
F3.114387010135792
tp445
a(((S'ADJ'
p446
S'fin'
p447
tp448
(S'NOM'
p449
S'd\xc3\xa9bris'
p450
tp451
tp452
F3.0411749511791584
tp453
a(((S'ADJ'
p454
S'isotopique'
p455
tp456
(S'NOM'
p457
S'basalte'
p458
tp459
tp460
F2.906476120643966
tp461
a(((S'ADJ'
p462
S'petit'
p463
tp464
(S'NOM'
p465
S'c\xc3\xb4ne'
p466
tp467
tp468
F2.901910432645638
tp469
a((g190
(S'VER:pper'
p470
S'parsemer'
p471
tp472
tp473
F2.811622821767735
tp474
a(((S'NOM'
p475
S'c\xc3\xb4ne'
p476
tp477
(S'VER:pper'
p478
S'\xc3\xa9parpiller'
p479
tp480
tp481
F2.7894291724899074
tp482
a(((S'NOM'
p483
S'scorie'
p484
tp485
(S'VER:ppre'
p486
S'd\xc3\xa9rouler'
p487
tp488
tp489
F2.7387988155247394
tp490
a(((S'NOM'
p491
S'basalte'
p492
tp493
(S'VER:pper'
p494
S'allonger'
p495
tp496
tp497
F2.725957500183003
tp498
a(((S'NOM'
p499
S'crat\xc3\xa8re'
p500
tp501
(S'ADJ'
p502
S'jumeau'
p503
tp504
tp505
F2.5637849241901347
tp506
a(((S'VER:pper'
p507
S'combler'
p508
tp509
(S'NOM'
p510
S'd\xc3\xa9bris'
p511
tp512
tp513
F2.493957753256507
tp514
a(((S'NOM'
p515
S'basalte'
p516
tp517
(S'VER:pres'
p518
S'empiler'
p519
tp520
tp521
F2.4285899434374136
tp522
a(((S'VER:pres'
p523
S'\xc3\xa9voluer'
p524
tp525
(S'NOM'
p526
S'd\xc3\xa9bris'
p527
tp528
tp529
F2.420224051841872
tp530
a(((S'NOM'
p531
S'crat\xc3\xa8re'
p532
tp533
(S'VER:pper'
p534
S'sacrer'
p535
tp536
tp537
F2.401376516617557
tp538
a(((S'VER:ppre'
p539
S'rougeoyer'
p540
tp541
(S'NOM'
p542
S'crat\xc3\xa8re'
p543
tp544
tp545
F2.390534324760981
tp546
a(((S'ADJ'
p547
S'surnaturel'
p548
tp549
(S'NOM'
p550
S'crat\xc3\xa8re'
p551
tp552
tp553
F2.390534324760981
tp554
a((g30
(S'NOM'
p555
S'crat\xc3\xa8re'
p556
tp557
tp558
F2.390534324760981
tp559
a(((S'VER:pper'
p560
S'd\xc3\xa9pourvue'
p561
tp562
(S'NOM'
p563
S'crat\xc3\xa8re'
p564
tp565
tp566
F2.390534324760981
tp567
a(((S'VER:pres'
p568
S'affairer'
p569
tp570
(S'NOM'
p571
S'crat\xc3\xa8re'
p572
tp573
tp574
F2.390534324760981
tp575
a(((S'ADJ'
p576
S'imprenable'
p577
tp578
(S'NOM'
p579
S'crat\xc3\xa8re'
p580
tp581
tp582
F2.390534324760981
tp583
a(((S'NOM'
p584
S'c\xc3\xb4ne'
p585
tp586
(S'ADJ'
p587
S'littoral'
p588
tp589
tp590
F2.322856990009559
tp591
a(((S'VER:pper'
p592
S'corder'
p593
tp594
(S'NOM'
p595
S'basalte'
p596
tp597
tp598
F2.302825146543003
tp599
a(((S'NOM'
p600
S'd\xc3\xa9bris'
p601
tp602
(S'VER:pper'
p603
S'm\xc3\xa9langer'
p604
tp605
tp606
F2.2864301739311297
tp607
a(((S'VER:pres'
p608
S'm\xc3\xa9langer'
p609
tp610
(S'NOM'
p611
S'd\xc3\xa9bris'
p612
tp613
tp614
F2.2857966173446904
tp615
a(((S'VER:ppre'
p616
S'm\xc3\xa9langer'
p617
tp618
(S'NOM'
p619
S'd\xc3\xa9bris'
p620
tp621
tp622
F2.2857966173446904
tp623
a(((S'VER:pres'
p624
S'stagner'
p625
tp626
(S'NOM'
p627
S'crat\xc3\xa8re'
p628
tp629
tp630
F2.255440943010259
tp631
a(((S'NOM'
p632
S'basalte'
p633
tp634
(S'ADJ'
p635
S'fondu'
p636
tp637
tp638
F2.1930087674479783
tp639
a(((S'ADJ'
p640
S'constitutif'
p641
tp642
(S'NOM'
p643
S'c\xc3\xb4ne'
p644
tp645
tp646
F2.1430735106993404
tp647
a(((S'NOM'
p648
S'crat\xc3\xa8re'
p649
tp650
(S'ADJ'
p651
S'b\xc3\xa9ant'
p652
tp653
tp654
F2.0392291824193
tp655
a(((S'NOM'
p656
S'c\xc3\xb4ne'
p657
tp658
(S'ADJ'
p659
S'isol\xc3\xa9'
p660
tp661
tp662
F1.9945532360784686
tp663
a(((S'NOM'
p664
S'c\xc3\xb4ne'
p665
tp666
(S'VER:pres'
p667
S'aplatir'
p668
tp669
tp670
F1.9945532360784686
tp671
a(((S'NOM'
p672
S'c\xc3\xb4ne'
p673
tp674
(S'VER:pper'
p675
S'inonder'
p676
tp677
tp678
F1.9945532360784686
tp679
a(((S'VER:pres'
p680
S'b\xc3\xa2tir'
p681
tp682
(S'NOM'
p683
S'c\xc3\xb4ne'
p684
tp685
tp686
F1.991237933445719
tp687
a(((S'NOM'
p688
S'crat\xc3\xa8re'
p689
tp690
(S'ADJ'
p691
S'principal'
p692
tp693
tp694
F1.974771010791612
tp695
a(((S'NOM'
p696
S'd\xc3\xa9bris'
p697
tp698
(S'ADJ'
p699
S'volcanique'
p700
tp701
tp702
F1.879072207906122
tp703
a(((S'VER:pper'
p704
S'ponctuer'
p705
tp706
g674
tp707
F1.8586588244345563
tp708
a(((S'ADJ'
p709
S'superbe'
p710
tp711
(S'NOM'
p712
S'c\xc3\xb4ne'
p713
tp714
tp715
F1.8419751135944893
tp716
a(((S'NOM'
p717
S'crat\xc3\xa8re'
p718
tp719
(S'ADJ'
p720
S'm\xc3\xa9t\xc3\xa9oritique'
p721
tp722
tp723
F1.8372315473422747
tp724
a(((S'NOM'
p725
S'crat\xc3\xa8re'
p726
tp727
(S'ADJ'
p728
S'adjacent'
p729
tp730
tp731
F1.8129382286835225
tp732
a(((S'NOM'
p733
S'crat\xc3\xa8re'
p734
tp735
(S'ADJ'
p736
S'hurlant'
p737
tp738
tp739
F1.8129382286835225
tp740
a(((S'NOM'
p741
S'crat\xc3\xa8re'
p742
tp743
(S'ADJ'
p744
S'rugissant'
p745
tp746
tp747
F1.8129382286835225
tp748
a(((S'VER:pper'
p749
S'assortir'
p750
tp751
(S'NOM'
p752
S'crat\xc3\xa8re'
p753
tp754
tp755
F1.799035350568914
tp756
a(((S'ADJ'
p757
S'verdoyant'
p758
tp759
(S'NOM'
p760
S'crat\xc3\xa8re'
p761
tp762
tp763
F1.799035350568914
tp764
a(((S'NOM'
p765
S'c\xc3\xb4ne'
p766
tp767
g347
tp768
F1.7449189029932595
tp769
a(((S'NOM'
p770
S'scorie'
p771
tp772
(S'ADJ'
p773
S'l\xc3\xa9ger'
p774
tp775
tp776
F1.7329005878221628
tp777
a(((S'NOM'
p778
S'scorie'
p779
tp780
(S'ADJ'
p781
S'superficiel'
p782
tp783
tp784
F1.6517167494668128
tp785
a(((S'NOM'
p786
S'scorie'
p787
tp788
(S'VER:pres'
p789
S'succ\xc3\xa9der'
p790
tp791
tp792
F1.6517167494668128
tp793
a((g528
(S'ADJ'
p794
S'rocheux'
p795
tp796
tp797
F1.64239621480467
tp798
a(((S'NOM'
p799
S'd\xc3\xa9bris'
p800
tp801
(S'VER:pper'
p802
S'\xc3\xa9jecter'
p803
tp804
tp805
F1.6088778564091242
tp806
a(((S'ADJ'
p807
S'sombre'
p808
tp809
(S'NOM'
p810
S'd\xc3\xa9bris'
p811
tp812
tp813
F1.6084350227603008
tp814
a(((S'NOM'
p815
S'c\xc3\xb4ne'
p816
tp817
(S'VER:pper'
p818
S'superposer'
p819
tp820
tp821
F1.5452423468144714
tp822
a(((S'ADJ'
p823
S'appel\xc3\xa9'
p824
tp825
(S'NOM'
p826
S'basalte'
p827
tp828
tp829
F1.5141834246847239
tp830
a(((S'ADJ'
p831
S'\xc3\xa9pais'
p832
tp833
(S'NOM'
p834
S'd\xc3\xa9bris'
p835
tp836
tp837
F1.473601799773665
tp838
a(((S'VER:pres'
p839
S'escalader'
p840
tp841
(S'NOM'
p842
S'c\xc3\xb4ne'
p843
tp844
tp845
F1.4549457701953163
tp846
a(((S'ADJ'
p847
S'form\xc3\xa9'
p848
tp849
(S'NOM'
p850
S'c\xc3\xb4ne'
p851
tp852
tp853
F1.4549457701953163
tp854
a(((S'ADJ'
p855
S'br\xc3\xbblant'
p856
tp857
(S'NOM'
p858
S'scorie'
p859
tp860
tp861
F1.4424881525962296
tp862
a(((S'NOM'
p863
S'crat\xc3\xa8re'
p864
tp865
(S'VER:pres'
p866
S'intercepter'
p867
tp868
tp869
F1.442058306274581
tp870
a(((S'VER:pper'
p871
S'bienvenir'
p872
tp873
(S'NOM'
p874
S'crat\xc3\xa8re'
p875
tp876
tp877
F1.4256576001001513
tp878
a(((S'VER:pper'
p879
S'd\xc3\xa9pourvu'
p880
tp881
(S'NOM'
p882
S'crat\xc3\xa8re'
p883
tp884
tp885
F1.4256576001001513
tp886
a(((S'NOM'
p887
S'c\xc3\xb4ne'
p888
tp889
(S'ADJ'
p890
S'central'
p891
tp892
tp893
F1.4082522635797365
tp894
a(((S'ADJ'
p895
S'essentiel'
p896
tp897
g801
tp898
F1.3754380658388867
tp899
a(((S'NOM'
p900
S'crat\xc3\xa8re'
p901
tp902
(S'ADJ'
p903
S'ast\xc3\xa9ro\xc3\xafde'
p904
tp905
tp906
F1.3692400340474777
tp907
a(((S'NOM'
p908
S'crat\xc3\xa8re'
p909
tp910
(S'ADJ'
p911
S'circulaire'
p912
tp913
tp914
F1.3530409460422328
tp915
a(((S'NOM'
p916
S'scorie'
p917
tp918
(S'ADJ'
p919
S'basaltique'
p920
tp921
tp922
F1.342708386590978
tp923
a(((S'NOM'
p924
S'scorie'
p925
tp926
(S'ADJ'
p927
S'noir'
p928
tp929
tp930
F1.3369672564536845
tp931
a(((S'NOM'
p932
S'basalte'
p933
tp934
(S'VER:pres'
p935
S'injecter'
p936
tp937
tp938
F1.3195105036038925
tp939
a(((S'ADJ'
p940
S'oriental'
p941
tp942
g440
tp943
F1.3024730935995246
tp944
a(((S'ADJ'
p945
S'incandescent'
p946
tp947
(S'NOM'
p948
S'scorie'
p949
tp950
tp951
F1.2884065929230073
tp952
a(((S'NOM'
p953
S'd\xc3\xa9bris'
p954
tp955
(S'VER:pres'
p956
S'd\xc3\xa9clencher'
p957
tp958
tp959
F1.2774985054641181
tp960
a(((S'NOM'
p961
S'c\xc3\xb4ne'
p962
tp963
(S'ADJ'
p964
S'fumant'
p965
tp966
tp967
F1.238847980542243
tp968
a(((S'ADJ'
p969
S'minuscule'
p970
tp971
(S'NOM'
p972
S'c\xc3\xb4ne'
p973
tp974
tp975
F1.2345756397083736
tp976
a(((S'VER:pres'
p977
S'noter'
p978
tp979
(S'NOM'
p980
S'basalte'
p981
tp982
tp983
F1.232470594943112
tp984
a(((S'NOM'
p985
S'c\xc3\xb4ne'
p986
tp987
(S'VER:pres'
p988
S'd\xc3\xa9barquer'
p989
tp990
tp991
F1.17564271433503
tp992
a(((S'NOM'
p993
S'c\xc3\xb4ne'
p994
tp995
(S'VER:pper'
p996
S'd\xc3\xa9ferler'
p997
tp998
tp999
F1.17564271433503
tp1000
a(((S'NOM'
p1001
S'crat\xc3\xa8re'
p1002
tp1003
(S'VER:pper'
p1004
S'tapisser'
p1005
tp1006
tp1007
F1.1753245996720416
tp1008
a(((S'NOM'
p1009
S'crat\xc3\xa8re'
p1010
tp1011
(S'VER:pper'
p1012
S'\xc3\xa9gueuler'
p1013
tp1014
tp1015
F1.1753245996720416
tp1016
a(((S'NOM'
p1017
S'crat\xc3\xa8re'
p1018
tp1019
(S'VER:pper'
p1020
S'enneiger'
p1021
tp1022
tp1023
F1.1753245996720416
tp1024
a(((S'VER:pres'
p1025
S'cantonner'
p1026
tp1027
(S'NOM'
p1028
S'crat\xc3\xa8re'
p1029
tp1030
tp1031
F1.1567670547721547
tp1032
a(((S'VER:pres'
p1033
S'engouffrer'
p1034
tp1035
(S'NOM'
p1036
S'crat\xc3\xa8re'
p1037
tp1038
tp1039
F1.1567670547721547
tp1040
a(((S'VER:ppre'
p1041
S'engouffrer'
p1042
tp1043
(S'NOM'
p1044
S'crat\xc3\xa8re'
p1045
tp1046
tp1047
F1.1567670547721547
tp1048
a(((S'ADJ'
p1049
S'mince'
p1050
tp1051
(S'NOM'
p1052
S'basalte'
p1053
tp1054
tp1055
F1.1546501873916364
tp1056
a(((S'NOM'
p1057
S'crat\xc3\xa8re'
p1058
tp1059
(S'ADJ'
p1060
S'nord-est'
p1061
tp1062
tp1063
F1.1379252645461644
tp1064
a(((S'NOM'
p1065
S'c\xc3\xb4ne'
p1066
tp1067
(S'ADJ'
p1068
S'paisible'
p1069
tp1070
tp1071
F1.1164721292359476
tp1072
a(((S'NOM'
p1073
S'd\xc3\xa9bris'
p1074
tp1075
(S'ADJ'
p1076
S'br\xc3\xbblant'
p1077
tp1078
tp1079
F1.1074316501694523
tp1080
a(((S'NOM'
p1081
S'c\xc3\xb4ne'
p1082
tp1083
(S'ADJ'
p1084
S'strombolien'
p1085
tp1086
tp1087
F1.106963929129566
tp1088
a(((S'NOM'
p1089
S'basalte'
p1090
tp1091
(S'VER:pres'
p1092
S'laver'
p1093
tp1094
tp1095
F1.0850436005261381
tp1096
a(((S'VER:pper'
p1097
S'fondre'
p1098
tp1099
g698
tp1100
F1.0510696962970822
tp1101
a(((S'NOM'
p1102
S'd\xc3\xa9bris'
p1103
tp1104
(S'VER:pper'
p1105
S'emporter'
p1106
tp1107
tp1108
F1.0509139486718992
tp1109
a(((S'NOM'
p1110
S'd\xc3\xa9bris'
p1111
tp1112
(S'ADJ'
p1113
S'divers'
p1114
tp1115
tp1116
F1.0509139486718992
tp1117
a(((S'VER:pres'
p1118
S'dresser'
p1119
tp1120
(S'NOM'
p1121
S'c\xc3\xb4ne'
p1122
tp1123
tp1124
F1.0460946700681488
tp1125
a(((S'ADJ'
p1126
S'commun'
p1127
tp1128
(S'NOM'
p1129
S'basalte'
p1130
tp1131
tp1132
F1.016271951643776
tp1133
a(((S'NOM'
p1134
S'crat\xc3\xa8re'
p1135
tp1136
(S'VER:pper'
p1137
S'remplir'
p1138
tp1139
tp1140
F0.9972468067855084
tp1141
a(((S'NOM'
p1142
S'd\xc3\xa9bris'
p1143
tp1144
(S'ADJ'
p1145
S'gros'
p1146
tp1147
tp1148
F0.9746737167014372
tp1149
a(((S'NOM'
p1150
S'crat\xc3\xa8re'
p1151
tp1152
(S'ADJ'
p1153
S'incomplet'
p1154
tp1155
tp1156
F0.9683928613131042
tp1157
a(((S'NOM'
p1158
S'crat\xc3\xa8re'
p1159
tp1160
(S'ADJ'
p1161
S'adventif'
p1162
tp1163
tp1164
F0.9683928613131042
tp1165
a(((S'NOM'
p1166
S'crat\xc3\xa8re'
p1167
tp1168
(S'ADJ'
p1169
S'nordique'
p1170
tp1171
tp1172
F0.9683928613131042
tp1173
a(((S'ADJ'
p1174
S'issu'
p1175
tp1176
(S'NOM'
p1177
S'd\xc3\xa9bris'
p1178
tp1179
tp1180
F0.9641203670061994
tp1181
a(((S'NOM'
p1182
S'c\xc3\xb4ne'
p1183
tp1184
(S'VER:pper'
p1185
S'aligner'
p1186
tp1187
tp1188
F0.9588443145232957
tp1189
a(((S'VER:pper'
p1190
S'parsemer'
p1191
tp1192
(S'NOM'
p1193
S'c\xc3\xb4ne'
p1194
tp1195
tp1196
F0.9541607795634853
tp1197
a(((S'VER:pper'
p1198
S'consteller'
p1199
tp1200
(S'NOM'
p1201
S'crat\xc3\xa8re'
p1202
tp1203
tp1204
F0.9479134762030094
tp1205
a(((S'ADJ'
p1206
S'gravim\xc3\xa9trique'
p1207
tp1208
(S'NOM'
p1209
S'crat\xc3\xa8re'
p1210
tp1211
tp1212
F0.9479134762030094
tp1213
a(((S'NOM'
p1214
S'd\xc3\xa9bris'
p1215
tp1216
(S'VER:pres'
p1217
S'retomber'
p1218
tp1219
tp1220
F0.9473211883138681
tp1221
a(((S'NOM'
p1222
S'basalte'
p1223
tp1224
(S'VER:pper'
p1225
S'publier'
p1226
tp1227
tp1228
F0.9268372366169204
tp1229
a(((S'NOM'
p1230
S'c\xc3\xb4ne'
p1231
tp1232
(S'ADJ'
p1233
S'volcanique'
p1234
tp1235
tp1236
F0.9222933427557468
tp1237
a(((S'ADJ'
p1238
S'consid\xc3\xa9rable'
p1239
tp1240
g91
tp1241
F0.8960566089921622
tp1242
a(((S'ADJ'
p1243
S'p\xc3\xa2teux'
p1244
tp1245
(S'NOM'
p1246
S'basalte'
p1247
tp1248
tp1249
F0.8414071664094582
tp1250
a(((S'ADJ'
p1251
S'cube'
p1252
tp1253
(S'NOM'
p1254
S'basalte'
p1255
tp1256
tp1257
F0.8038773559633151
tp1258
a(((S'NOM'
p1259
S'crat\xc3\xa8re'
p1260
tp1261
(S'VER:pres'
p1262
S'perforer'
p1263
tp1264
tp1265
F0.7997745813821225
tp1266
a(((S'NOM'
p1267
S'basalte'
p1268
tp1269
(S'VER:pres'
p1270
S'\xc3\xa9pancher'
p1271
tp1272
tp1273
F0.7919932806540472
tp1274
a(((S'VER:pres'
p1275
S'emplir'
p1276
tp1277
(S'NOM'
p1278
S'crat\xc3\xa8re'
p1279
tp1280
tp1281
F0.7775481001575709
tp1282
a(((S'ADJ'
p1283
S'nocturne'
p1284
tp1285
(S'NOM'
p1286
S'crat\xc3\xa8re'
p1287
tp1288
tp1289
F0.7775481001575709
tp1290
a(((S'NOM'
p1291
S'basalte'
p1292
tp1293
(S'ADJ'
p1294
S'auvergnat'
p1295
tp1296
tp1297
F0.7672593468538046
tp1298
a(((S'ADJ'
p1299
S'noir'
p1300
tp1301
(S'NOM'
p1302
S'basalte'
p1303
tp1304
tp1305
F0.7623610107759118
tp1306
a(((S'NOM'
p1307
S'c\xc3\xb4ne'
p1308
tp1309
(S'VER:pres'
p1310
S'fumer'
p1311
tp1312
tp1313
F0.7447005898833253
tp1314
a(((S'NOM'
p1315
S'basalte'
p1316
tp1317
(S'VER:pres'
p1318
S'enfoncer'
p1319
tp1320
tp1321
F0.7431776850416331
tp1322
a(((S'NOM'
p1323
S'c\xc3\xb4ne'
p1324
tp1325
(S'VER:ppre'
p1326
S'reconstituer'
p1327
tp1328
tp1329
F0.7073080100084467
tp1330
a(((S'NOM'
p1331
S'd\xc3\xa9bris'
p1332
tp1333
(S'VER:pres'
p1334
S'tomber'
p1335
tp1336
tp1337
F0.7048229052378784
tp1338
a(((S'NOM'
p1339
S'crat\xc3\xa8re'
p1340
tp1341
(S'VER:pper'
p1342
S'assimiler'
p1343
tp1344
tp1345
F0.6575790754939149
tp1346
a(((S'NOM'
p1347
S'crat\xc3\xa8re'
p1348
tp1349
(S'VER:pres'
p1350
S'bombarder'
p1351
tp1352
tp1353
F0.6575790754939149
tp1354
a(((S'NOM'
p1355
S'basalte'
p1356
tp1357
(S'VER:pres'
p1358
S'jeter'
p1359
tp1360
tp1361
F0.6527341008435601
tp1362
a(((S'NOM'
p1363
S'basalte'
p1364
tp1365
(S'VER:pper'
p1366
S'r\xc3\xa9pandre'
p1367
tp1368
tp1369
F0.6527341008435601
tp1370
a(((S'ADJ'
p1371
S'fissurale'
p1372
tp1373
(S'NOM'
p1374
S'crat\xc3\xa8re'
p1375
tp1376
tp1377
F0.6337421452818877
tp1378
a(((S'VER:pper'
p1379
S'attacher'
p1380
tp1381
(S'NOM'
p1382
S'crat\xc3\xa8re'
p1383
tp1384
tp1385
F0.6337421452818877
tp1386
a(((S'VER:pper'
p1387
S'encercler'
p1388
tp1389
(S'NOM'
p1390
S'crat\xc3\xa8re'
p1391
tp1392
tp1393
F0.6337421452818877
tp1394
a(((S'ADJ'
p1395
S'r\xc3\xa9gulier'
p1396
tp1397
g1309
tp1398
F0.6316732754992835
tp1399
a(((S'NOM'
p1400
S'c\xc3\xb4ne'
p1401
tp1402
(S'ADJ'
p1403
S'superbe'
p1404
tp1405
tp1406
F0.5403391322521618
tp1407
a(((S'NOM'
p1408
S'crat\xc3\xa8re'
p1409
tp1410
(S'VER:ppre'
p1411
S'masquer'
p1412
tp1413
tp1414
F0.5345993047566066
tp1415
a(((S'NOM'
p1416
S'scorie'
p1417
tp1418
(S'ADJ'
p1419
S'rouge'
p1420
tp1421
tp1422
F0.5289415238822168
tp1423
a(((S'VER:pper'
p1424
S'd\xc3\xa9biter'
p1425
tp1426
(S'NOM'
p1427
S'crat\xc3\xa8re'
p1428
tp1429
tp1430
F0.5092626807375297
tp1431
a(((S'ADJ'
p1432
S'turbulent'
p1433
tp1434
(S'NOM'
p1435
S'crat\xc3\xa8re'
p1436
tp1437
tp1438
F0.5092626807375297
tp1439
a(((S'VER:pper'
p1440
S'r\xc3\xa9colter'
p1441
tp1442
(S'NOM'
p1443
S'crat\xc3\xa8re'
p1444
tp1445
tp1446
F0.5092626807375297
tp1447
a(((S'VER:ppre'
p1448
S'imposer'
p1449
tp1450
(S'NOM'
p1451
S'c\xc3\xb4ne'
p1452
tp1453
tp1454
F0.5049821614103857
tp1455
a(((S'ADJ'
p1456
S'instable'
p1457
tp1458
(S'NOM'
p1459
S'c\xc3\xb4ne'
p1460
tp1461
tp1462
F0.4476203278063685
tp1463
a(((S'NOM'
p1464
S'crat\xc3\xa8re'
p1465
tp1466
(S'VER:pper'
p1467
S'aborder'
p1468
tp1469
tp1470
F0.426165899192729
tp1471
a(((S'NOM'
p1472
S'crat\xc3\xa8re'
p1473
tp1474
(S'VER:pper'
p1475
S'obstruer'
p1476
tp1477
tp1478
F0.426165899192729
tp1479
a(((S'VER:pper'
p1480
S'composer'
p1481
tp1482
(S'NOM'
p1483
S'basalte'
p1484
tp1485
tp1486
F0.4231956300662409
tp1487
a(((S'VER:pres'
p1488
S'composer'
p1489
tp1490
g634
tp1491
F0.4231956300662409
tp1492
a(((S'ADJ'
p1493
S'vulcanien'
p1494
tp1495
(S'NOM'
p1496
S'c\xc3\xb4ne'
p1497
tp1498
tp1499
F0.4202175352677474
tp1500
a(((S'NOM'
p1501
S'crat\xc3\xa8re'
p1502
tp1503
(S'VER:pper'
p1504
S'aligner'
p1505
tp1506
tp1507
F0.4010329960310284
tp1508
a(((S'NOM'
p1509
S'basalte'
p1510
tp1511
(S'VER:pres'
p1512
S'plonger'
p1513
tp1514
tp1515
F0.391937730311718
tp1516
a(((S'VER:pper'
p1517
S'dominer'
p1518
tp1519
g163
tp1520
F0.39018865338256664
tp1521
a(((S'VER:pper'
p1522
S'former'
p1523
tp1524
g384
tp1525
F0.3528214338690671
tp1526
a(((S'NOM'
p1527
S'basalte'
p1528
tp1529
(S'ADJ'
p1530
S'issu'
p1531
tp1532
tp1533
F0.3291102429153358
tp1534
a(((S'NOM'
p1535
S'crat\xc3\xa8re'
p1536
tp1537
(S'VER:pper'
p1538
S'boucher'
p1539
tp1540
tp1541
F0.3290952463619248
tp1542
a(((S'VER:pres'
p1543
S'd\xc3\xa9gager'
p1544
tp1545
(S'NOM'
p1546
S'c\xc3\xb4ne'
p1547
tp1548
tp1549
F0.31800403044559833
tp1550
a(((S'ADJ'
p1551
S'\xc3\xa9cologique'
p1552
tp1553
(S'NOM'
p1554
S'crat\xc3\xa8re'
p1555
tp1556
tp1557
F0.3010220456413221
tp1558
a(((S'VER:pper'
p1559
S'nicher'
p1560
tp1561
(S'NOM'
p1562
S'crat\xc3\xa8re'
p1563
tp1564
tp1565
F0.3010220456413221
tp1566
a(((S'VER:ppre'
p1567
S'boucher'
p1568
tp1569
(S'NOM'
p1570
S'crat\xc3\xa8re'
p1571
tp1572
tp1573
F0.3010220456413221
tp1574
a(((S'ADJ'
p1575
S'\xc3\xa9mis'
p1576
tp1577
(S'NOM'
p1578
S'crat\xc3\xa8re'
p1579
tp1580
tp1581
F0.3010220456413221
tp1582
a(((S'NOM'
p1583
S'c\xc3\xb4ne'
p1584
tp1585
(S'VER:pper'
p1586
S'percer'
p1587
tp1588
tp1589
F0.29964924870860526
tp1590
a(((S'ADJ'
p1591
S'entier'
p1592
tp1593
(S'NOM'
p1594
S'c\xc3\xb4ne'
p1595
tp1596
tp1597
F0.2940978182466497
tp1598
a((g645
(S'ADJ'
p1599
S'auvergnat'
p1600
tp1601
tp1602
F0.2763520657926839
tp1603
a(((S'ADJ'
p1604
S'oc\xc3\xa9anique'
p1605
tp1606
(S'NOM'
p1607
S'scorie'
p1608
tp1609
tp1610
F0.2581445008430608
tp1611
a(((S'ADJ'
p1612
S'inf\xc3\xa9rieur'
p1613
tp1614
g43
tp1615
F0.25455366048423195
tp1616
a(((S'NOM'
p1617
S'crat\xc3\xa8re'
p1618
tp1619
(S'ADJ'
p1620
S'ind\xc3\xa9pendant'
p1621
tp1622
tp1623
F0.2411273255572005
tp1624
a(((S'NOM'
p1625
S'crat\xc3\xa8re'
p1626
tp1627
(S'VER:pper'
p1628
S'priver'
p1629
tp1630
tp1631
F0.2411273255572005
tp1632
a(((S'NOM'
p1633
S'd\xc3\xa9bris'
p1634
tp1635
(S'VER:pper'
p1636
S'd\xc3\xa9truire'
p1637
tp1638
tp1639
F0.23313102436363253
tp1640
a(((S'NOM'
p1641
S'basalte'
p1642
tp1643
(S'VER:pres'
p1644
S'couvrir'
p1645
tp1646
tp1647
F0.22827217577129552
tp1648
a(((S'ADJ'
p1649
S'hindouiste'
p1650
tp1651
(S'NOM'
p1652
S'crat\xc3\xa8re'
p1653
tp1654
tp1655
F0.21179279043486887
tp1656
a(((S'ADJ'
p1657
S'plongeant'
p1658
tp1659
(S'NOM'
p1660
S'crat\xc3\xa8re'
p1661
tp1662
tp1663
F0.21179279043486887
tp1664
a(((S'VER:pres'
p1665
S'grandir'
p1666
tp1667
(S'NOM'
p1668
S'crat\xc3\xa8re'
p1669
tp1670
tp1671
F0.21179279043486887
tp1672
a(((S'VER:pres'
p1673
S'agir'
p1674
tp1675
(S'NOM'
p1676
S'c\xc3\xb4ne'
p1677
tp1678
tp1679
F0.21089490534002656
tp1680
a(((S'NOM'
p1681
S'c\xc3\xb4ne'
p1682
tp1683
(S'VER:pres'
p1684
S'recouvrer|recouvrir'
p1685
tp1686
tp1687
F0.20969148568104304
tp1688
a(((S'VER:pper'
p1689
S'd\xc3\xa9border'
p1690
tp1691
(S'NOM'
p1692
S'crat\xc3\xa8re'
p1693
tp1694
tp1695
F0.18394372273817142
tp1696
a(((S'NOM'
p1697
S'crat\xc3\xa8re'
p1698
tp1699
(S'VER:pres'
p1700
S'embo\xc3\xaeter'
p1701
tp1702
tp1703
F0.16060434826522085
tp1704
a(((S'NOM'
p1705
S'c\xc3\xb4ne'
p1706
tp1707
(S'ADJ'
p1708
S'r\xc3\xa9cent'
p1709
tp1710
tp1711
F0.14897583869581715
tp1712
a((g126
(S'VER:pper'
p1713
S'entourer'
p1714
tp1715
tp1716
F0.1473482727590642
tp1717
a(((S'NOM'
p1718
S'crat\xc3\xa8re'
p1719
tp1720
(S'ADJ'
p1721
S'secondaire'
p1722
tp1723
tp1724
F0.1470351231864891
tp1725
a(((S'VER:pper'
p1726
S'entourer'
p1727
tp1728
(S'NOM'
p1729
S'c\xc3\xb4ne'
p1730
tp1731
tp1732
F0.14169221627645753
tp1733
a(((S'VER:pres'
p1734
S'construire'
p1735
tp1736
(S'NOM'
p1737
S'c\xc3\xb4ne'
p1738
tp1739
tp1740
F0.13096228084288508
tp1741
a(((S'NOM'
p1742
S'basalte'
p1743
tp1744
(S'ADJ'
p1745
S'pr\xc3\xa9sent'
p1746
tp1747
tp1748
F0.12462122945033083
tp1749
a(((S'NOM'
p1750
S'crat\xc3\xa8re'
p1751
tp1752
(S'VER:ppre'
p1753
S'fumer'
p1754
tp1755
tp1756
F0.12103446074244847
tp1757
a(((S'NOM'
p1758
S'crat\xc3\xa8re'
p1759
tp1760
(S'VER:pres'
p1761
S'entamer'
p1762
tp1763
tp1764
F0.0862768493759498
tp1765
a(((S'NOM'
p1766
S'scorie'
p1767
tp1768
(S'VER:pres'
p1769
S'devenir'
p1770
tp1771
tp1772
F0.07050040227334686
tp1773
a(((S'ADJ'
p1774
S'strombolien'
p1775
tp1776
(S'NOM'
p1777
S'c\xc3\xb4ne'
p1778
tp1779
tp1780
F0.06428850127734087
tp1781
a(((S'ADJ'
p1782
S'amoureux'
p1783
tp1784
(S'NOM'
p1785
S'crat\xc3\xa8re'
p1786
tp1787
tp1788
F0.054591017592070204
tp1789
a(((S'NOM'
p1790
S'basalte'
p1791
tp1792
(S'VER:pres'
p1793
S'descendre'
p1794
tp1795
tp1796
F0.05347644592304842
tp1797
a(((S'NOM'
p1798
S'scorie'
p1799
tp1800
(S'VER:pres'
p1801
S'aller'
p1802
tp1803
tp1804
F0.03684717624427498
tp1805
a(((S'NOM'
p1806
S'c\xc3\xb4ne'
p1807
tp1808
(S'VER:pper'
p1809
S'dresser'
p1810
tp1811
tp1812
F0.03343637426201543
tp1813
a(((S'ADJ'
p1814
S'vieux'
p1815
tp1816
g1511
tp1817
F0.019048058825539522
tp1818
a(((S'NOM'
p1819
S'crat\xc3\xa8re'
p1820
tp1821
(S'VER:pres'
p1822
S'redescendre'
p1823
tp1824
tp1825
F0.017181366390638424
tp1826
a(((S'NOM'
p1827
S'basalte'
p1828
tp1829
(S'VER:pres'
p1830
S'jaillir'
p1831
tp1832
tp1833
F-0.002178832127116482
tp1834
a(((S'NOM'
p1835
S'c\xc3\xb4ne'
p1836
tp1837
(S'ADJ'
p1838
S'\xc3\xa9ruptif'
p1839
tp1840
tp1841
F-0.003496436243023412
tp1842
a(((S'ADJ'
p1843
S'nombreux'
p1844
tp1845
g1768
tp1846
F-0.008756022641145634
tp1847
a(((S'ADJ'
p1848
S'gros'
p1849
tp1850
g1216
tp1851
F-0.013886165522464257
tp1852
a(((S'VER:pres'
p1853
S'arr\xc3\xaater'
p1854
tp1855
(S'NOM'
p1856
S'c\xc3\xb4ne'
p1857
tp1858
tp1859
F-0.024663562996859144
tp1860
a((g1046
(S'VER:pper'
p1861
S'vaporiser'
p1862
tp1863
tp1864
F-0.04743964701356311
tp1865
a(((S'NOM'
p1866
S'crat\xc3\xa8re'
p1867
tp1868
(S'VER:ppre'
p1869
S'gravir'
p1870
tp1871
tp1872
F-0.04743964701356311
tp1873
a(((S'NOM'
p1874
S'crat\xc3\xa8re'
p1875
tp1876
(S'VER:pres'
p1877
S'endommager'
p1878
tp1879
tp1880
F-0.04743964701356311
tp1881
a((g1858
(S'VER:pper'
p1882
S'composer'
p1883
tp1884
tp1885
F-0.05248322667755174
tp1886
a(((S'VER:pres'
p1887
S's\xc3\xa9journer'
p1888
tp1889
(S'NOM'
p1890
S'crat\xc3\xa8re'
p1891
tp1892
tp1893
F-0.08128749474255248
tp1894
a(((S'NOM'
p1895
S'basalte'
p1896
tp1897
(S'VER:pper'
p1898
S'\xc3\xa9mettre'
p1899
tp1900
tp1901
F-0.092462726680686
tp1902
a(((S'VER:pres'
p1903
S'pr\xc3\xa9senter'
p1904
tp1905
g19
tp1906
F-0.09384174867407187
tp1907
a(((S'NOM'
p1908
S'crat\xc3\xa8re'
p1909
tp1910
(S'VER:pres'
p1911
S'fissurer'
p1912
tp1913
tp1914
F-0.10819194018605613
tp1915
a(((S'NOM'
p1916
S'crat\xc3\xa8re'
p1917
tp1918
(S'VER:pper'
p1919
S'souffler'
p1920
tp1921
tp1922
F-0.10819194018605613
tp1923
a(((S'NOM'
p1924
S'crat\xc3\xa8re'
p1925
tp1926
(S'VER:pres'
p1927
S'appartenir'
p1928
tp1929
tp1930
F-0.11193921268688124
tp1931
a(((S'ADJ'
p1932
S'min\xc3\xa9ral'
p1933
tp1934
g408
tp1935
F-0.12412874460219084
tp1936
a(((S'VER:ppre'
p1937
S'\xc3\xa9mettre'
p1938
tp1939
(S'NOM'
p1940
S'd\xc3\xa9bris'
p1941
tp1942
tp1943
F-0.1499354329158706
tp1944
a(((S'NOM'
p1945
S'crat\xc3\xa8re'
p1946
tp1947
(S'VER:pper'
p1948
S'\xc3\xa9roder'
p1949
tp1950
tp1951
F-0.16556704646487774
tp1952
a(((S'NOM'
p1953
S'crat\xc3\xa8re'
p1954
tp1955
(S'ADJ'
p1956
S'fumant'
p1957
tp1958
tp1959
F-0.16556704646487774
tp1960
a(((S'ADJ'
p1961
S'lunaire'
p1962
tp1963
(S'NOM'
p1964
S'crat\xc3\xa8re'
p1965
tp1966
tp1967
F-0.20142192214385576
tp1968
a((g966
g650
tp1969
F-0.20142192214385576
tp1970
a(((S'VER:pres'
p1971
S'd\xc3\xa9boucher'
p1972
tp1973
(S'NOM'
p1974
S'crat\xc3\xa8re'
p1975
tp1976
tp1977
F-0.20142192214385576
tp1978
a(((S'NOM'
p1979
S'crat\xc3\xa8re'
p1980
tp1981
(S'VER:pper'
p1982
S'planter'
p1983
tp1984
tp1985
F-0.21996900554038806
tp1986
a(((S'NOM'
p1987
S'crat\xc3\xa8re'
p1988
tp1989
(S'ADJ'
p1990
S'creux'
p1991
tp1992
tp1993
F-0.21996900554038806
tp1994
a(((S'NOM'
p1995
S'crat\xc3\xa8re'
p1996
tp1997
(S'VER:pper'
p1998
S'r\xc3\xa9chauffer'
p1999
tp2000
tp2001
F-0.271733764327578
tp2002
a(((S'NOM'
p2003
S'c\xc3\xb4ne'
p2004
tp2005
(S'ADJ'
p2006
S'froid'
p2007
tp2008
tp2009
F-0.2744191316337137
tp2010
a(((S'VER:pres'
p2011
S'retrouver'
p2012
tp2013
g1365
tp2014
F-0.2922362714409805
tp2015
a(((S'VER:pper'
p2016
S'hui'
p2017
tp2018
(S'NOM'
p2019
S'scorie'
p2020
tp2021
tp2022
F-0.2956142743672093
tp2023
a(((S'NOM'
p2024
S'crat\xc3\xa8re'
p2025
tp2026
(S'VER:pres'
p2027
S'r\xc3\xa9server'
p2028
tp2029
tp2030
F-0.32114352434668436
tp2031
a(((S'NOM'
p2032
S'crat\xc3\xa8re'
p2033
tp2034
(S'VER:pres'
p2035
S'examiner'
p2036
tp2037
tp2038
F-0.32114352434668436
tp2039
a((g852
(S'ADJ'
p2040
S'faible'
p2041
tp2042
tp2043
F-0.3266335120971548
tp2044
a((g254
(S'ADJ'
p2045
S'fin'
p2046
tp2047
tp2048
F-0.3519984077178347
tp2049
a(((S'VER:pper'
p2050
S'accumuler'
p2051
tp2052
(S'NOM'
p2053
S'c\xc3\xb4ne'
p2054
tp2055
tp2056
F-0.3571389015055838
tp2057
a((g1123
(S'ADJ'
p2058
S'actuel'
p2059
tp2060
tp2061
F-0.36425486965870096
tp2062
a(((S'NOM'
p2063
S'basalte'
p2064
tp2065
(S'ADJ'
p2066
S'rouge'
p2067
tp2068
tp2069
F-0.36524060681953996
tp2070
a((g1694
(S'ADJ'
p2071
S'strato-volcan'
p2072
tp2073
tp2074
F-0.3684375278002465
tp2075
a(((S'ADJ'
p2076
S'bas'
p2077
tp2078
(S'NOM'
p2079
S'c\xc3\xb4ne'
p2080
tp2081
tp2082
F-0.36951079998361047
tp2083
a(((S'ADJ'
p2084
S'actuel'
p2085
tp2086
(S'NOM'
p2087
S'c\xc3\xb4ne'
p2088
tp2089
tp2090
F-0.36951079998361047
tp2091
a(((S'ADJ'
p2092
S'riche'
p2093
tp2094
(S'NOM'
p2095
S'basalte'
p2096
tp2097
tp2098
F-0.401100598700372
tp2099
a(((S'VER:pres'
p2100
S'p\xc3\xa9n\xc3\xa9trer'
p2101
tp2102
(S'NOM'
p2103
S'crat\xc3\xa8re'
p2104
tp2105
tp2106
F-0.40793453427836335
tp2107
a(((S'NOM'
p2108
S'crat\xc3\xa8re'
p2109
tp2110
(S'VER:pres'
p2111
S'parsemer'
p2112
tp2113
tp2114
F-0.4138202868631482
tp2115
a(((S'NOM'
p2116
S'crat\xc3\xa8re'
p2117
tp2118
(S'VER:pres'
p2119
S'vider'
p2120
tp2121
tp2122
F-0.4574679464351803
tp2123
a(((S'ADJ'
p2124
S'sous-marin'
p2125
tp2126
(S'NOM'
p2127
S'c\xc3\xb4ne'
p2128
tp2129
tp2130
F-0.48634450864041523
tp2131
a(((S'ADJ'
p2132
S'vaste'
p2133
tp2134
(S'NOM'
p2135
S'c\xc3\xb4ne'
p2136
tp2137
tp2138
F-0.48634450864041523
tp2139
a((g1062
(S'NOM'
p2140
S'crat\xc3\xa8re'
p2141
tp2142
tp2143
F-0.4986331212342579
tp2144
a(((S'ADJ'
p2145
S'myst\xc3\xa9rieux'
p2146
tp2147
g1466
tp2148
F-0.4986331212342579
tp2149
a(((S'NOM'
p2150
S'crat\xc3\xa8re'
p2151
tp2152
(S'VER:pres'
p2153
S'\xc3\xa9voquer'
p2154
tp2155
tp2156
F-0.49953326351401284
tp2157
a((g174
(S'VER:pres'
p2158
S'agir'
p2159
tp2160
tp2161
F-0.510482324248651
tp2162
a(((S'VER:pper'
p2163
S'ouvrir'
p2164
tp2165
(S'NOM'
p2166
S'c\xc3\xb4ne'
p2167
tp2168
tp2169
F-0.519215941104832
tp2170
a(((S'ADJ'
p2171
S'g\xc3\xa9ologique'
p2172
tp2173
g517
tp2174
F-0.5339295184626112
tp2175
a(((S'NOM'
p2176
S'crat\xc3\xa8re'
p2177
tp2178
(S'VER:pres'
p2179
S'd\xc3\xa9border'
p2180
tp2181
tp2182
F-0.5401495471027867
tp2183
a(((S'NOM'
p2184
S'crat\xc3\xa8re'
p2185
tp2186
(S'ADJ'
p2187
S'lat\xc3\xa9ral'
p2188
tp2189
tp2190
F-0.5401495471027867
tp2191
a(((S'NOM'
p2192
S'crat\xc3\xa8re'
p2193
tp2194
(S'VER:pper'
p2195
S'vomir'
p2196
tp2197
tp2198
F-0.5794338072151775
tp2199
a(((S'NOM'
p2200
S'crat\xc3\xa8re'
p2201
tp2202
(S'ADJ'
p2203
S'invisible'
p2204
tp2205
tp2206
F-0.5794338072151775
tp2207
a(((S'VER:pres'
p2208
S'd\xc3\xa9border'
p2209
tp2210
(S'NOM'
p2211
S'crat\xc3\xa8re'
p2212
tp2213
tp2214
F-0.5828972191658495
tp2215
a(((S'VER:ppre'
p2216
S'd\xc3\xa9border'
p2217
tp2218
(S'NOM'
p2219
S'crat\xc3\xa8re'
p2220
tp2221
tp2222
F-0.5828972191658495
tp2223
a(((S'NOM'
p2224
S'c\xc3\xb4ne'
p2225
tp2226
(S'ADJ'
p2227
S'principal'
p2228
tp2229
tp2230
F-0.5982662060990367
tp2231
a(((S'ADJ'
p2232
S'\xc3\xa9trange'
p2233
tp2234
(S'NOM'
p2235
S'crat\xc3\xa8re'
p2236
tp2237
tp2238
F-0.6099204213047916
tp2239
a(((S'NOM'
p2240
S'crat\xc3\xa8re'
p2241
tp2242
(S'VER:pres'
p2243
S'courir'
p2244
tp2245
tp2246
F-0.6174892951488552
tp2247
a(((S'VER:pres'
p2248
S'occuper'
p2249
tp2250
(S'NOM'
p2251
S'crat\xc3\xa8re'
p2252
tp2253
tp2254
F-0.6189309624244245
tp2255
a(((S'ADJ'
p2256
S'large'
p2257
tp2258
g1585
tp2259
F-0.6226903444606776
tp2260
a(((S'VER:pres'
p2261
S'peupler'
p2262
tp2263
g275
tp2264
F-0.6229435673207411
tp2265
a(((S'NOM'
p2266
S'crat\xc3\xa8re'
p2267
tp2268
(S'VER:pres'
p2269
S'demeurer'
p2270
tp2271
tp2272
F-0.6544075702598158
tp2273
a(((S'NOM'
p2274
S'crat\xc3\xa8re'
p2275
tp2276
(S'ADJ'
p2277
S'semblable'
p2278
tp2279
tp2280
F-0.6544075702598158
tp2281
a(((S'NOM'
p2282
S'c\xc3\xb4ne'
p2283
tp2284
(S'VER:pper'
p2285
S'recouvrir'
p2286
tp2287
tp2288
F-0.6768203168372967
tp2289
a(((S'NOM'
p2290
S'basalte'
p2291
tp2292
(S'ADJ'
p2293
S'noir'
p2294
tp2295
tp2296
F-0.6826894262404325
tp2297
a((g1966
(S'VER:pres'
p2298
S'relever'
p2299
tp2300
tp2301
F-0.6902701948165026
tp2302
a(((S'VER:pres'
p2303
S'r\xc3\xa9cup\xc3\xa9rer'
p2304
tp2305
(S'NOM'
p2306
S'crat\xc3\xa8re'
p2307
tp2308
tp2309
F-0.6993881755946406
tp2310
a(((S'NOM'
p2311
S'crat\xc3\xa8re'
p2312
tp2313
(S'VER:pres'
p2314
S'd\xc3\xa9finir'
p2315
tp2316
tp2317
F-0.7251501340699947
tp2318
a(((S'NOM'
p2319
S'crat\xc3\xa8re'
p2320
tp2321
(S'ADJ'
p2322
S'fertile'
p2323
tp2324
tp2325
F-0.7251501340699947
tp2326
a(((S'NOM'
p2327
S'crat\xc3\xa8re'
p2328
tp2329
(S'VER:pres'
p2330
S'renfermer'
p2331
tp2332
tp2333
F-0.7251501340699947
tp2334
a(((S'VER:pper'
p2335
S'former'
p2336
tp2337
(S'NOM'
p2338
S'd\xc3\xa9bris'
p2339
tp2340
tp2341
F-0.7443818276164379
tp2342
a(((S'VER:pres'
p2343
S'appeler'
p2344
tp2345
(S'NOM'
p2346
S'basalte'
p2347
tp2348
tp2349
F-0.7624204915632884
tp2350
a(((S'NOM'
p2351
S'basalte'
p2352
tp2353
(S'VER:pper'
p2354
S'appeler'
p2355
tp2356
tp2357
F-0.7693400444512825
tp2358
a(((S'ADJ'
p2359
S'hydrothermal'
p2360
tp2361
(S'NOM'
p2362
S'crat\xc3\xa8re'
p2363
tp2364
tp2365
F-0.771536145030011
tp2366
a(((S'NOM'
p2367
S'crat\xc3\xa8re'
p2368
tp2369
(S'VER:pper'
p2370
S'd\xc3\xa9verser'
p2371
tp2372
tp2373
F-0.7922176295241049
tp2374
a(((S'VER:pres'
p2375
S'\xc3\xa9difier'
p2376
tp2377
(S'NOM'
p2378
S'crat\xc3\xa8re'
p2379
tp2380
tp2381
F-0.8061789615562618
tp2382
a(((S'ADJ'
p2383
S'impressionnant'
p2384
tp2385
(S'NOM'
p2386
S'crat\xc3\xa8re'
p2387
tp2388
tp2389
F-0.8061789615562618
tp2390
a(((S'VER:pper'
p2391
S'couler'
p2392
tp2393
(S'NOM'
p2394
S'c\xc3\xb4ne'
p2395
tp2396
tp2397
F-0.806991352068233
tp2398
a(((S'VER:pres'
p2399
S'montrer'
p2400
tp2401
(S'NOM'
p2402
S'c\xc3\xb4ne'
p2403
tp2404
tp2405
F-0.8325169893635797
tp2406
a(((S'NOM'
p2407
S'd\xc3\xa9bris'
p2408
tp2409
(S'ADJ'
p2410
S'chaud'
p2411
tp2412
tp2413
F-0.849486861024031
tp2414
a(((S'ADJ'
p2415
S'superbe'
p2416
tp2417
g1019
tp2418
F-0.8729016873257905
tp2419
a(((S'NOM'
p2420
S'crat\xc3\xa8re'
p2421
tp2422
(S'ADJ'
p2423
S'pr\xc3\xaat'
p2424
tp2425
tp2426
F-0.8868935435704856
tp2427
a(((S'NOM'
p2428
S'crat\xc3\xa8re'
p2429
tp2430
(S'VER:pper'
p2431
S'envahir'
p2432
tp2433
tp2434
F-0.9170537633905725
tp2435
a(((S'NOM'
p2436
S'crat\xc3\xa8re'
p2437
tp2438
(S'VER:pres'
p2439
S'fermer'
p2440
tp2441
tp2442
F-0.9170537633905725
tp2443
a(((S'NOM'
p2444
S'crat\xc3\xa8re'
p2445
tp2446
(S'ADJ'
p2447
S'africain'
p2448
tp2449
tp2450
F-0.9170537633905725
tp2451
a(((S'NOM'
p2452
S'crat\xc3\xa8re'
p2453
tp2454
(S'ADJ'
p2455
S'double'
p2456
tp2457
tp2458
F-0.9170537633905725
tp2459
a((g342
(S'VER:pper'
p2460
S'parcourir'
p2461
tp2462
tp2463
F-0.9284022469468538
tp2464
a(((S'VER:pres'
p2465
S'approcher'
p2466
tp2467
(S'NOM'
p2468
S'crat\xc3\xa8re'
p2469
tp2470
tp2471
F-0.9673177299311954
tp2472
a(((S'NOM'
p2473
S'crat\xc3\xa8re'
p2474
tp2475
(S'ADJ'
p2476
S'puissant'
p2477
tp2478
tp2479
F-0.9755036126974871
tp2480
a(((S'VER:pper'
p2481
S'explorer'
p2482
tp2483
(S'NOM'
p2484
S'crat\xc3\xa8re'
p2485
tp2486
tp2487
F-0.9974459001544601
tp2488
a(((S'VER:pres'
p2489
S'publier'
p2490
tp2491
(S'NOM'
p2492
S'crat\xc3\xa8re'
p2493
tp2494
tp2495
F-0.9974459001544601
tp2496
a(((S'ADJ'
p2497
S'magmatique'
p2498
tp2499
g963
tp2500
F-1.0064763084193369
tp2501
a(((S'VER:pper'
p2502
S'installer'
p2503
tp2504
(S'NOM'
p2505
S'crat\xc3\xa8re'
p2506
tp2507
tp2508
F-1.0189891417428667
tp2509
a(((S'VER:pper'
p2510
S'\xc3\xa9jecter'
p2511
tp2512
(S'NOM'
p2513
S'crat\xc3\xa8re'
p2514
tp2515
tp2516
F-1.0269618833118084
tp2517
a(((S'ADJ'
p2518
S'immense'
p2519
tp2520
(S'NOM'
p2521
S'crat\xc3\xa8re'
p2522
tp2523
tp2524
F-1.0405161734163086
tp2525
a(((S'NOM'
p2526
S'crat\xc3\xa8re'
p2527
tp2528
(S'ADJ'
p2529
S'actuel'
p2530
tp2531
tp2532
F-1.0544756830931077
tp2533
a(((S'VER:ppre'
p2534
S'ouvrer|ouvrir'
p2535
tp2536
(S'NOM'
p2537
S'crat\xc3\xa8re'
p2538
tp2539
tp2540
F-1.055897213174452
tp2541
a(((S'ADJ'
p2542
S'sommital'
p2543
tp2544
(S'NOM'
p2545
S'crat\xc3\xa8re'
p2546
tp2547
tp2548
F-1.055897213174452
tp2549
a(((S'VER:pper'
p2550
S'd\xc3\xa9velopper'
p2551
tp2552
(S'NAM'
p2553
S'crat\xc3\xa8re'
p2554
tp2555
tp2556
F-1.055897213174452
tp2557
a(((S'VER:pres'
p2558
S'ouvrer|ouvrir'
p2559
tp2560
(S'NOM'
p2561
S'crat\xc3\xa8re'
p2562
tp2563
tp2564
F-1.055897213174452
tp2565
a(((S'ADJ'
p2566
S'ancien'
p2567
tp2568
(S'NOM'
p2569
S'crat\xc3\xa8re'
p2570
tp2571
tp2572
F-1.0571378806721672
tp2573
a(((S'ADJ'
p2574
S'p\xc3\xa9l\xc3\xa9en'
p2575
tp2576
(S'NOM'
p2577
S'crat\xc3\xa8re'
p2578
tp2579
tp2580
F-1.0842809715171622
tp2581
a(((S'NOM'
p2582
S'crat\xc3\xa8re'
p2583
tp2584
(S'VER:pres'
p2585
S'exploser'
p2586
tp2587
tp2588
F-1.100582328726109
tp2589
a(((S'VER:pres'
p2590
S'\xc3\xa9chapper'
p2591
tp2592
(S'NOM'
p2593
S'crat\xc3\xa8re'
p2594
tp2595
tp2596
F-1.10160246737765
tp2597
a(((S'NOM'
p2598
S'crat\xc3\xa8re'
p2599
tp2600
(S'ADJ'
p2601
S'auvergnat'
p2602
tp2603
tp2604
F-1.1121213707728321
tp2605
a(((S'NOM'
p2606
S'crat\xc3\xa8re'
p2607
tp2608
(S'VER:pres'
p2609
S'risquer'
p2610
tp2611
tp2612
F-1.1121213707728321
tp2613
a(((S'ADJ'
p2614
S'phr\xc3\xa9atique'
p2615
tp2616
g2276
tp2617
F-1.1121400370604249
tp2618
a(((S'VER:pres'
p2619
S'd\xc3\xa9gager'
p2620
tp2621
(S'NOM'
p2622
S'crat\xc3\xa8re'
p2623
tp2624
tp2625
F-1.1121400370604249
tp2626
a(((S'ADJ'
p2627
S'secondaire'
p2628
tp2629
(S'NOM'
p2630
S'crat\xc3\xa8re'
p2631
tp2632
tp2633
F-1.1121400370604249
tp2634
a(((S'VER:pper'
p2635
S'constituer'
p2636
tp2637
(S'NOM'
p2638
S'basalte'
p2639
tp2640
tp2641
F-1.1358831655074593
tp2642
a(((S'NOM'
p2643
S'crat\xc3\xa8re'
p2644
tp2645
(S'VER:pres'
p2646
S'rejeter'
p2647
tp2648
tp2649
F-1.1380170780291565
tp2650
a(((S'NOM'
p2651
S'crat\xc3\xa8re'
p2652
tp2653
(S'VER:pres'
p2654
S'abriter'
p2655
tp2656
tp2657
F-1.1380170780291565
tp2658
a((g1588
(S'NOM'
p2659
S'crat\xc3\xa8re'
p2660
tp2661
tp2662
F-1.1394993036399428
tp2663
a(((S'VER:pres'
p2664
S'\xc3\xa9loigner'
p2665
tp2666
(S'NOM'
p2667
S'crat\xc3\xa8re'
p2668
tp2669
tp2670
F-1.1394993036399428
tp2671
a(((S'ADJ'
p2672
S'\xc3\xa9norme'
p2673
tp2674
(S'NOM'
p2675
S'c\xc3\xb4ne'
p2676
tp2677
tp2678
F-1.1414648368910205
tp2679
a(((S'NOM'
p2680
S'c\xc3\xb4ne'
p2681
tp2682
(S'ADJ'
p2683
S'\xc3\xa9norme'
p2684
tp2685
tp2686
F-1.1417357389118967
tp2687
a(((S'NOM'
p2688
S'basalte'
p2689
tp2690
(S'VER:pres'
p2691
S'atteindre'
p2692
tp2693
tp2694
F-1.159847403050736
tp2695
a(((S'ADJ'
p2696
S'\xc3\xa9ruptif'
p2697
tp2698
(S'NOM'
p2699
S'c\xc3\xb4ne'
p2700
tp2701
tp2702
F-1.161716927043135
tp2703
a((g2563
(S'ADJ'
p2704
S'simple'
p2705
tp2706
tp2707
F-1.1634864912178062
tp2708
a(((S'NOM'
p2709
S'crat\xc3\xa8re'
p2710
tp2711
(S'VER:pper'
p2712
S'retomber'
p2713
tp2714
tp2715
F-1.1697682255358148
tp2716
a(((S'NOM'
p2717
S'crat\xc3\xa8re'
p2718
tp2719
(S'VER:pper'
p2720
S'creuser'
p2721
tp2722
tp2723
F-1.188548012745702
tp2724
a(((S'ADJ'
p2725
S'noir'
p2726
tp2727
(S'NOM'
p2728
S'c\xc3\xb4ne'
p2729
tp2730
tp2731
F-1.2079696573131598
tp2732
a(((S'NOM'
p2733
S'crat\xc3\xa8re'
p2734
tp2735
(S'VER:pres'
p2736
S'jeter'
p2737
tp2738
tp2739
F-1.2375150475168055
tp2740
a(((S'NOM'
p2741
S'crat\xc3\xa8re'
p2742
tp2743
(S'VER:pper'
p2744
S'jeter'
p2745
tp2746
tp2747
F-1.2375150475168055
tp2748
a(((S'NOM'
p2749
S'crat\xc3\xa8re'
p2750
tp2751
(S'VER:pper'
p2752
S'alimenter'
p2753
tp2754
tp2755
F-1.2375150475168055
tp2756
a(((S'VER:pper'
p2757
S'creuser'
p2758
tp2759
(S'NOM'
p2760
S'crat\xc3\xa8re'
p2761
tp2762
tp2763
F-1.2443769203301147
tp2764
a((g2237
(S'VER:pres'
p2765
S'avancer'
p2766
tp2767
tp2768
F-1.2614517250566522
tp2769
a(((S'ADJ'
p2770
S'nord-ouest'
p2771
tp2772
(S'NOM'
p2773
S'crat\xc3\xa8re'
p2774
tp2775
tp2776
F-1.2695533744817418
tp2777
a(((S'VER:pres'
p2778
S'signifier'
p2779
tp2780
(S'NOM'
p2781
S'crat\xc3\xa8re'
p2782
tp2783
tp2784
F-1.2695533744817418
tp2785
a((g467
(S'VER:pres'
p2786
S'former'
p2787
tp2788
tp2789
F-1.2838746668454435
tp2790
a(((S'VER:pper'
p2791
S'jeter'
p2792
tp2793
(S'NOM'
p2794
S'crat\xc3\xa8re'
p2795
tp2796
tp2797
F-1.2943470316698742
tp2798
a(((S'NOM'
p2799
S'c\xc3\xb4ne'
p2800
tp2801
(S'VER:pper'
p2802
S'appeler'
p2803
tp2804
tp2805
F-1.3054852501277323
tp2806
a(((S'VER:pper'
p2807
S'trouver'
p2808
tp2809
(S'NOM'
p2810
S'basalte'
p2811
tp2812
tp2813
F-1.315190426073853
tp2814
a(((S'NOM'
p2815
S'crat\xc3\xa8re'
p2816
tp2817
(S'VER:pres'
p2818
S'r\xc3\xa9sulter'
p2819
tp2820
tp2821
F-1.32316499405521
tp2822
a(((S'NOM'
p2823
S'basalte'
p2824
tp2825
(S'VER:pres'
p2826
S'trouver'
p2827
tp2828
tp2829
F-1.3361845584721388
tp2830
a(((S'ADJ'
p2831
S'vaste'
p2832
tp2833
(S'NOM'
p2834
S'crat\xc3\xa8re'
p2835
tp2836
tp2837
F-1.336339803067809
tp2838
a((g1054
(S'VER:pper'
p2839
S'voir'
p2840
tp2841
tp2842
F-1.347858143399286
tp2843
a(((S'NOM'
p2844
S'crat\xc3\xa8re'
p2845
tp2846
(S'VER:ppre'
p2847
S'marquer'
p2848
tp2849
tp2850
F-1.3762088352490651
tp2851
a(((S'VER:pper'
p2852
S'rep\xc3\xa9rer'
p2853
tp2854
(S'NOM'
p2855
S'crat\xc3\xa8re'
p2856
tp2857
tp2858
F-1.3899860169664775
tp2859
a((g2783
(S'ADJ'
p2860
S'vert'
p2861
tp2862
tp2863
F-1.393674694763006
tp2864
a(((S'NOM'
p2865
S'basalte'
p2866
tp2867
(S'VER:pper'
p2868
S'venir'
p2869
tp2870
tp2871
F-1.4089075876371167
tp2872
a(((S'ADJ'
p2873
S'strombolien'
p2874
tp2875
(S'NOM'
p2876
S'crat\xc3\xa8re'
p2877
tp2878
tp2879
F-1.4130774800847972
tp2880
a((g2142
(S'ADJ'
p2881
S'sud-est'
p2882
tp2883
tp2884
F-1.4200305748288087
tp2885
a(((S'NOM'
p2886
S'crat\xc3\xa8re'
p2887
tp2888
(S'VER:pper'
p2889
S'occuper'
p2890
tp2891
tp2892
F-1.4244287936892852
tp2893
a(((S'VER:pper'
p2894
S'former'
p2895
tp2896
(S'NOM'
p2897
S'basalte'
p2898
tp2899
tp2900
F-1.4352349007135992
tp2901
a(((S'ADJ'
p2902
S'int\xc3\xa9rieur'
p2903
tp2904
g865
tp2905
F-1.4548351475149495
tp2906
a(((S'VER:pper'
p2907
S'prot\xc3\xa9ger'
p2908
tp2909
(S'NOM'
p2910
S'crat\xc3\xa8re'
p2911
tp2912
tp2913
F-1.4583600413881599
tp2914
a(((S'NOM'
p2915
S'basalte'
p2916
tp2917
(S'VER:pres'
p2918
S'former'
p2919
tp2920
tp2921
F-1.4607618057072929
tp2922
a(((S'ADJ'
p2923
S'nombreux'
p2924
tp2925
(S'NOM'
p2926
S'c\xc3\xb4ne'
p2927
tp2928
tp2929
F-1.4886091744179015
tp2930
a(((S'NOM'
p2931
S'crat\xc3\xa8re'
p2932
tp2933
(S'VER:ppre'
p2934
S'remplir'
p2935
tp2936
tp2937
F-1.5045398961769427
tp2938
a(((S'NOM'
p2939
S'scorie'
p2940
tp2941
(S'ADJ'
p2942
S'volcanique'
p2943
tp2944
tp2945
F-1.5068209666374623
tp2946
a(((S'NOM'
p2947
S'crat\xc3\xa8re'
p2948
tp2949
(S'VER:ppre'
p2950
S'correspondre'
p2951
tp2952
tp2953
F-1.5453595276287817
tp2954
a(((S'NOM'
p2955
S'crat\xc3\xa8re'
p2956
tp2957
(S'VER:pres'
p2958
S'dominer'
p2959
tp2960
tp2961
F-1.5453595276287817
tp2962
a(((S'VER:pres'
p2963
S's\xc3\xa9parer'
p2964
tp2965
(S'NOM'
p2966
S'crat\xc3\xa8re'
p2967
tp2968
tp2969
F-1.5456029498533406
tp2970
a(((S'ADJ'
p2971
S'a\xc3\xa9rien'
p2972
tp2973
(S'NOM'
p2974
S'crat\xc3\xa8re'
p2975
tp2976
tp2977
F-1.5456029498533406
tp2978
a(((S'NOM'
p2979
S'c\xc3\xb4ne'
p2980
tp2981
(S'ADJ'
p2982
S'actif'
p2983
tp2984
tp2985
F-1.5557695984605386
tp2986
a(((S'NOM'
p2987
S'basalte'
p2988
tp2989
(S'ADJ'
p2990
S'chaud'
p2991
tp2992
tp2993
F-1.5570709166481953
tp2994
a(((S'NOM'
p2995
S'c\xc3\xb4ne'
p2996
tp2997
(S'ADJ'
p2998
S'ancien'
p2999
tp3000
tp3001
F-1.5612616035524989
tp3002
a(((S'VER:ppre'
p3003
S'dominer'
p3004
tp3005
(S'NOM'
p3006
S'crat\xc3\xa8re'
p3007
tp3008
tp3009
F-1.6084032804677886
tp3010
a(((S'NOM'
p3011
S'crat\xc3\xa8re'
p3012
tp3013
(S'ADJ'
p3014
S'issu'
p3015
tp3016
tp3017
F-1.6244125470748119
tp3018
a(((S'NOM'
p3019
S'crat\xc3\xa8re'
p3020
tp3021
(S'VER:pres'
p3022
S'retomber'
p3023
tp3024
tp3025
F-1.6436731954542882
tp3026
a(((S'VER:pres'
p3027
S'descendre'
p3028
tp3029
(S'NOM'
p3030
S'crat\xc3\xa8re'
p3031
tp3032
tp3033
F-1.6495130623543406
tp3034
a(((S'VER:pper'
p3035
S'descendre'
p3036
tp3037
(S'NOM'
p3038
S'crat\xc3\xa8re'
p3039
tp3040
tp3041
F-1.6495130623543406
tp3042
a(((S'NOM'
p3043
S'basalte'
p3044
tp3045
(S'ADJ'
p3046
S'nouveau'
p3047
tp3048
tp3049
F-1.6590554328441771
tp3050
a(((S'ADJ'
p3051
S'interne'
p3052
tp3053
(S'NOM'
p3054
S'crat\xc3\xa8re'
p3055
tp3056
tp3057
F-1.6691725079868074
tp3058
a(((S'VER:pres'
p3059
S'distinguer'
p3060
tp3061
(S'NOM'
p3062
S'crat\xc3\xa8re'
p3063
tp3064
tp3065
F-1.6691725079868074
tp3066
a((g557
(S'ADJ'
p3067
S'vaste'
p3068
tp3069
tp3070
F-1.669183916268917
tp3071
a(((S'ADJ'
p3072
S'issu'
p3073
tp3074
(S'NOM'
p3075
S'crat\xc3\xa8re'
p3076
tp3077
tp3078
F-1.6890080825780105
tp3079
a(((S'NOM'
p3080
S'crat\xc3\xa8re'
p3081
tp3082
(S'VER:pper'
p3083
S'\xc3\xa9tendre'
p3084
tp3085
tp3086
F-1.7188694645604667
tp3087
a(((S'NOM'
p3088
S'crat\xc3\xa8re'
p3089
tp3090
(S'ADJ'
p3091
S'g\xc3\xa9n\xc3\xa9ral'
p3092
tp3093
tp3094
F-1.7372314199126337
tp3095
a(((S'VER:pres'
p3096
S'jaillir'
p3097
tp3098
(S'NOM'
p3099
S'crat\xc3\xa8re'
p3100
tp3101
tp3102
F-1.74180211433341
tp3103
a(((S'NOM'
p3104
S'crat\xc3\xa8re'
p3105
tp3106
(S'VER:pper'
p3107
S'varier'
p3108
tp3109
tp3110
F-1.755427611103843
tp3111
a(((S'NOM'
p3112
S'crat\xc3\xa8re'
p3113
tp3114
(S'VER:pper'
p3115
S'durer'
p3116
tp3117
tp3118
F-1.7734622561048665
tp3119
a((g1211
(S'VER:pres'
p3120
S'r\xc3\xa9v\xc3\xa9ler'
p3121
tp3122
tp3123
F-1.7913394046951716
tp3124
a(((S'ADJ'
p3125
S'nord'
p3126
tp3127
(S'NOM'
p3128
S'c\xc3\xb4ne'
p3129
tp3130
tp3131
F-1.792717273559986
tp3132
a(((S'VER:pres'
p3133
S'r\xc3\xa9sulter'
p3134
tp3135
g2528
tp3136
F-1.795419600348608
tp3137
a(((S'NOM'
p3138
S'crat\xc3\xa8re'
p3139
tp3140
(S'VER:pper'
p3141
S'lorsqu'
p3142
tp3143
tp3144
F-1.8266366241446577
tp3145
a(((S'NOM'
p3146
S'crat\xc3\xa8re'
p3147
tp3148
(S'VER:pres'
p3149
S'projeter'
p3150
tp3151
tp3152
F-1.8408005214765517
tp3153
a(((S'NOM'
p3154
S'crat\xc3\xa8re'
p3155
tp3156
(S'ADJ'
p3157
S'r\xc3\xa9cent'
p3158
tp3159
tp3160
F-1.8572922782661465
tp3161
a(((S'NOM'
p3162
S'c\xc3\xb4ne'
p3163
tp3164
(S'ADJ'
p3165
S'aujourd'
p3166
tp3167
tp3168
F-1.8736273913552763
tp3169
a(((S'NOM'
p3170
S'crat\xc3\xa8re'
p3171
tp3172
(S'ADJ'
p3173
S'proche'
p3174
tp3175
tp3176
F-1.8955026126471028
tp3177
a(((S'NOM'
p3178
S'crat\xc3\xa8re'
p3179
tp3180
(S'VER:pres'
p3181
S'accumuler'
p3182
tp3183
tp3184
F-1.8955026126471028
tp3185
a(((S'NOM'
p3186
S'crat\xc3\xa8re'
p3187
tp3188
(S'VER:pper'
p3189
S'tuer'
p3190
tp3191
tp3192
F-1.9123782989204698
tp3193
a(((S'ADJ'
p3194
S'nouveau'
p3195
tp3196
(S'NOM'
p3197
S'c\xc3\xb4ne'
p3198
tp3199
tp3200
F-1.9192596971180105
tp3201
a(((S'VER:ppre'
p3202
S'occuper'
p3203
tp3204
(S'NOM'
p3205
S'crat\xc3\xa8re'
p3206
tp3207
tp3208
F-1.9304307578026851
tp3209
a(((S'VER:pres'
p3210
S'donner'
p3211
tp3212
g259
tp3213
F-1.9463233104115574
tp3214
a(((S'VER:ppre'
p3215
S'\xc3\xa9chapper'
p3216
tp3217
(S'NOM'
p3218
S'crat\xc3\xa8re'
p3219
tp3220
tp3221
F-1.9652072433076428
tp3222
a(((S'VER:pper'
p3223
S'accumuler'
p3224
tp3225
g2933
tp3226
F-1.9652072433076428
tp3227
a(((S'ADJ'
p3228
S'bas'
p3229
tp3230
(S'NOM'
p3231
S'crat\xc3\xa8re'
p3232
tp3233
tp3234
F-1.982387966402572
tp3235
a(((S'NOM'
p3236
S'crat\xc3\xa8re'
p3237
tp3238
(S'VER:pres'
p3239
S'descendre'
p3240
tp3241
tp3242
F-1.9948599817236856
tp3243
a((g1038
(S'ADJ'
p3244
S'plein'
p3245
tp3246
tp3247
F-2.0109957672239154
tp3248
a(((S'NOM'
p3249
S'crat\xc3\xa8re'
p3250
tp3251
(S'VER:pres'
p3252
S'augmenter'
p3253
tp3254
tp3255
F-2.074418589775604
tp3256
a(((S'VER:pres'
p3257
S'faire'
p3258
tp3259
(S'NOM'
p3260
S'd\xc3\xa9bris'
p3261
tp3262
tp3263
F-2.089091465050499
tp3264
a(((S'VER:pper'
p3265
S'faire'
p3266
tp3267
(S'NOM'
p3268
S'd\xc3\xa9bris'
p3269
tp3270
tp3271
F-2.089091465050499
tp3272
a(((S'NOM'
p3273
S'c\xc3\xb4ne'
p3274
tp3275
(S'VER:pper'
p3276
S'former'
p3277
tp3278
tp3279
F-2.097495150536656
tp3280
a(((S'ADJ'
p3281
S'vieux'
p3282
tp3283
(S'NOM'
p3284
S'crat\xc3\xa8re'
p3285
tp3286
tp3287
F-2.115235155323755
tp3288
a(((S'NOM'
p3289
S'crat\xc3\xa8re'
p3290
tp3291
(S'VER:pper'
p3292
S'ouvrir'
p3293
tp3294
tp3295
F-2.120870856644326
tp3296
a(((S'NOM'
p3297
S'crat\xc3\xa8re'
p3298
tp3299
(S'VER:pper'
p3300
S'r\xc3\xa9veiller'
p3301
tp3302
tp3303
F-2.1361534919339418
tp3304
a(((S'VER:ppre'
p3305
S'jaillir'
p3306
tp3307
(S'NOM'
p3308
S'crat\xc3\xa8re'
p3309
tp3310
tp3311
F-2.1472644255990105
tp3312
a(((S'VER:pper'
p3313
S'jaillir'
p3314
tp3315
(S'NOM'
p3316
S'crat\xc3\xa8re'
p3317
tp3318
tp3319
F-2.1472644255990105
tp3320
a(((S'NOM'
p3321
S'crat\xc3\xa8re'
p3322
tp3323
(S'VER:pres'
p3324
S'na\xc3\xaetre'
p3325
tp3326
tp3327
F-2.1664279191914764
tp3328
a(((S'NOM'
p3329
S'crat\xc3\xa8re'
p3330
tp3331
(S'VER:pper'
p3332
S'lib\xc3\xa9rer'
p3333
tp3334
tp3335
F-2.1814232939247926
tp3336
a(((S'NOM'
p3337
S'crat\xc3\xa8re'
p3338
tp3339
(S'VER:pres'
p3340
S'lib\xc3\xa9rer'
p3341
tp3342
tp3343
F-2.1814232939247926
tp3344
a(((S'ADJ'
p3345
S'chaud'
p3346
tp3347
(S'NOM'
p3348
S'c\xc3\xb4ne'
p3349
tp3350
tp3351
F-2.1816707278467757
tp3352
a(((S'ADJ'
p3353
S'\xc3\xa9norme'
p3354
tp3355
g1003
tp3356
F-2.25176132296415
tp3357
a(((S'VER:pper'
p3358
S'lib\xc3\xa9rer'
p3359
tp3360
(S'NOM'
p3361
S'crat\xc3\xa8re'
p3362
tp3363
tp3364
F-2.25604062331638
tp3365
a(((S'NOM'
p3366
S'crat\xc3\xa8re'
p3367
tp3368
(S'ADJ'
p3369
S'large'
p3370
tp3371
tp3372
F-2.269514705700288
tp3373
a(((S'NOM'
p3374
S'crat\xc3\xa8re'
p3375
tp3376
(S'ADJ'
p3377
S'v\xc3\xa9ritable'
p3378
tp3379
tp3380
F-2.283897597552764
tp3381
a(((S'VER:pper'
p3382
S'projeter'
p3383
tp3384
(S'NOM'
p3385
S'crat\xc3\xa8re'
p3386
tp3387
tp3388
F-2.3011894824343027
tp3389
a(((S'ADJ'
p3390
S'r\xc3\xa9cent'
p3391
tp3392
(S'NOM'
p3393
S'crat\xc3\xa8re'
p3394
tp3395
tp3396
F-2.3160558511877305
tp3397
a(((S'NOM'
p3398
S'crat\xc3\xa8re'
p3399
tp3400
(S'VER:pres'
p3401
S'monter'
p3402
tp3403
tp3404
F-2.335122459464554
tp3405
a(((S'ADJ'
p3406
S'large'
p3407
tp3408
(S'NOM'
p3409
S'crat\xc3\xa8re'
p3410
tp3411
tp3412
F-2.3455231483707926
tp3413
a(((S'NOM'
p3414
S'crat\xc3\xa8re'
p3415
tp3416
(S'VER:pper'
p3417
S'recouvrir'
p3418
tp3419
tp3420
F-2.3546155237893878
tp3421
a(((S'NOM'
p3422
S'crat\xc3\xa8re'
p3423
tp3424
(S'VER:ppre'
p3425
S'exister'
p3426
tp3427
tp3428
F-2.3685288686950234
tp3429
a(((S'NOM'
p3430
S'c\xc3\xb4ne'
p3431
tp3432
(S'ADJ'
p3433
S'dernier'
p3434
tp3435
tp3436
F-2.369925360567476
tp3437
a(((S'NOM'
p3438
S'c\xc3\xb4ne'
p3439
tp3440
(S'ADJ'
p3441
S'haut'
p3442
tp3443
tp3444
F-2.369925360567476
tp3445
a(((S'NOM'
p3446
S'crat\xc3\xa8re'
p3447
tp3448
(S'ADJ'
p3449
S'central'
p3450
tp3451
tp3452
F-2.409830254245403
tp3453
a(((S'VER:pper'
p3454
S'monter'
p3455
tp3456
(S'NOM'
p3457
S'crat\xc3\xa8re'
p3458
tp3459
tp3460
F-2.4163863252753255
tp3461
a(((S'ADJ'
p3462
S'acide'
p3463
tp3464
(S'NOM'
p3465
S'crat\xc3\xa8re'
p3466
tp3467
tp3468
F-2.4600627302260563
tp3469
a(((S'NOM'
p3470
S'crat\xc3\xa8re'
p3471
tp3472
(S'VER:pres'
p3473
S'pr\xc3\xa9senter'
p3474
tp3475
tp3476
F-2.5037820112979357
tp3477
a(((S'NOM'
p3478
S'c\xc3\xb4ne'
p3479
tp3480
(S'ADJ'
p3481
S'petit'
p3482
tp3483
tp3484
F-2.5062256954509747
tp3485
a(((S'VER:ppre'
p3486
S'sortir'
p3487
tp3488
g3180
tp3489
F-2.5154797175599053
tp3490
a(((S'VER:pres'
p3491
S'sortir'
p3492
tp3493
(S'NOM'
p3494
S'crat\xc3\xa8re'
p3495
tp3496
tp3497
F-2.5154797175599053
tp3498
a(((S'NOM'
p3499
S'crat\xc3\xa8re'
p3500
tp3501
(S'ADJ'
p3502
S'ouest'
p3503
tp3504
tp3505
F-2.516942261529997
tp3506
a(((S'NOM'
p3507
S'crat\xc3\xa8re'
p3508
tp3509
(S'VER:pper'
p3510
S'\xc3\xa9lever'
p3511
tp3512
tp3513
F-2.543076100063126
tp3514
a((g2661
(S'VER:pres'
p3515
S'\xc3\xa9lever'
p3516
tp3517
tp3518
F-2.543076100063126
tp3519
a(((S'NOM'
p3520
S'crat\xc3\xa8re'
p3521
tp3522
(S'VER:pres'
p3523
S'montrer'
p3524
tp3525
tp3526
F-2.5818232791684936
tp3527
a(((S'VER:pper'
p3528
S'contenir'
p3529
tp3530
(S'NOM'
p3531
S'crat\xc3\xa8re'
p3532
tp3533
tp3534
F-2.5904797758095723
tp3535
a(((S'ADJ'
p3536
S'ouest'
p3537
tp3538
(S'NOM'
p3539
S'crat\xc3\xa8re'
p3540
tp3541
tp3542
F-2.596494275559513
tp3543
a(((S'VER:pper'
p3544
S'\xc3\xa9mettre'
p3545
tp3546
(S'NOM'
p3547
S'crat\xc3\xa8re'
p3548
tp3549
tp3550
F-2.6009748957955092
tp3551
a(((S'ADJ'
p3552
S'gigantesque'
p3553
tp3554
(S'NOM'
p3555
S'crat\xc3\xa8re'
p3556
tp3557
tp3558
F-2.6163499400277432
tp3559
a(((S'VER:pper'
p3560
S'couler'
p3561
tp3562
g2711
tp3563
F-2.622968416685657
tp3564
a(((S'ADJ'
p3565
S'sup\xc3\xa9rieur'
p3566
tp3567
(S'NOM'
p3568
S'crat\xc3\xa8re'
p3569
tp3570
tp3571
F-2.622968416685657
tp3572
a(((S'ADJ'
p3573
S'nombreux'
p3574
tp3575
g1261
tp3576
F-2.690564945583172
tp3577
a(((S'VER:pres'
p3578
S'monter'
p3579
tp3580
(S'NOM'
p3581
S'crat\xc3\xa8re'
p3582
tp3583
tp3584
F-2.7516778005871974
tp3585
a((g565
(S'VER:pres'
p3586
S'laisser'
p3587
tp3588
tp3589
F-2.7680945350866075
tp3590
a(((S'NOM'
p3591
S'crat\xc3\xa8re'
p3592
tp3593
(S'VER:pres'
p3594
S'contenir'
p3595
tp3596
tp3597
F-2.8276814053004484
tp3598
a(((S'VER:pper'
p3599
S'laisser'
p3600
tp3601
(S'NOM'
p3602
S'crat\xc3\xa8re'
p3603
tp3604
tp3605
F-2.8506204352879734
tp3606
a(((S'NOM'
p3607
S'crat\xc3\xa8re'
p3608
tp3609
(S'VER:pres'
p3610
S'appara\xc3\xaetre'
p3611
tp3612
tp3613
F-2.8511963930875868
tp3614
a(((S'ADJ'
p3615
S'\xc3\xa9ruptif'
p3616
tp3617
(S'NOM'
p3618
S'crat\xc3\xa8re'
p3619
tp3620
tp3621
F-2.8870919525364207
tp3622
a(((S'NOM'
p3623
S'crat\xc3\xa8re'
p3624
tp3625
(S'VER:pres'
p3626
S'expliquer'
p3627
tp3628
tp3629
F-2.897701346313873
tp3630
a(((S'NOM'
p3631
S'crat\xc3\xa8re'
p3632
tp3633
(S'VER:pper'
p3634
S'observer'
p3635
tp3636
tp3637
F-2.999918226695744
tp3638
a(((S'NOM'
p3639
S'crat\xc3\xa8re'
p3640
tp3641
(S'VER:pres'
p3642
S'\xc3\xa9mettre'
p3643
tp3644
tp3645
F-3.0717824166687517
tp3646
a(((S'VER:pper'
p3647
S'faire'
p3648
tp3649
(S'NOM'
p3650
S'basalte'
p3651
tp3652
tp3653
F-3.0758208488175782
tp3654
a(((S'VER:pres'
p3655
S'arriver'
p3656
tp3657
(S'NOM'
p3658
S'crat\xc3\xa8re'
p3659
tp3660
tp3661
F-3.1514427602523964
tp3662
a(((S'NOM'
p3663
S'crat\xc3\xa8re'
p3664
tp3665
(S'VER:pper'
p3666
S'provoquer'
p3667
tp3668
tp3669
F-3.1528760641708202
tp3670
a(((S'NOM'
p3671
S'crat\xc3\xa8re'
p3672
tp3673
(S'ADJ'
p3674
S'actif'
p3675
tp3676
tp3677
F-3.165031103261767
tp3678
a(((S'ADJ'
p3679
S'noir'
p3680
tp3681
(S'NOM'
p3682
S'crat\xc3\xa8re'
p3683
tp3684
tp3685
F-3.259951635420211
tp3686
a(((S'ADJ'
p3687
S'grand'
p3688
tp3689
g1232
tp3690
F-3.357321256535409
tp3691
a(((S'NOM'
p3692
S'crat\xc3\xa8re'
p3693
tp3694
(S'ADJ'
p3695
S'nombreux'
p3696
tp3697
tp3698
F-3.382547079843683
tp3699
a(((S'NOM'
p3700
S'crat\xc3\xa8re'
p3701
tp3702
(S'VER:pper'
p3703
S'devenir'
p3704
tp3705
tp3706
F-3.4597763834724424
tp3707
a(((S'NOM'
p3708
S'crat\xc3\xa8re'
p3709
tp3710
(S'VER:pper'
p3711
S'passer'
p3712
tp3713
tp3714
F-3.4597763834724424
tp3715
a((g1280
(S'VER:pres'
p3716
S'devenir'
p3717
tp3718
tp3719
F-3.4597763834724424
tp3720
a(((S'NOM'
p3721
S'basalte'
p3722
tp3723
(S'VER:pres'
p3724
S'pouvoir'
p3725
tp3726
tp3727
F-3.478895730073801
tp3728
a(((S'NOM'
p3729
S'crat\xc3\xa8re'
p3730
tp3731
(S'ADJ'
p3732
S'terrestre'
p3733
tp3734
tp3735
F-3.69777800103766
tp3736
a(((S'NOM'
p3737
S'crat\xc3\xa8re'
p3738
tp3739
(S'ADJ'
p3740
S'ancien'
p3741
tp3742
tp3743
F-3.75286501647457
tp3744
a(((S'ADJ'
p3745
S'terrestre'
p3746
tp3747
(S'NOM'
p3748
S'crat\xc3\xa8re'
p3749
tp3750
tp3751
F-3.7843914647843393
tp3752
a(((S'VER:pres'
p3753
S'produire'
p3754
tp3755
(S'NOM'
p3756
S'crat\xc3\xa8re'
p3757
tp3758
tp3759
F-3.839320932011389
tp3760
a(((S'NOM'
p3761
S'crat\xc3\xa8re'
p3762
tp3763
(S'VER:pres'
p3764
S'falloir'
p3765
tp3766
tp3767
F-3.8779498052552293
tp3768
a(((S'ADJ'
p3769
S'nord'
p3770
tp3771
g1981
tp3772
F-4.0227782266366745
tp3773
a(((S'NOM'
p3774
S'crat\xc3\xa8re'
p3775
tp3776
(S'VER:pres'
p3777
S'former'
p3778
tp3779
tp3780
F-4.048834179581513
tp3781
a(((S'NOM'
p3782
S'crat\xc3\xa8re'
p3783
tp3784
(S'VER:pres'
p3785
S'aujourd'
p3786
tp3787
tp3788
F-4.0595583561095685
tp3789
a(((S'NOM'
p3790
S'crat\xc3\xa8re'
p3791
tp3792
(S'VER:pper'
p3793
S'atteindre'
p3794
tp3795
tp3796
F-4.069290678717958
tp3797
a((g3363
(S'VER:pper'
p3798
S'situer'
p3799
tp3800
tp3801
F-4.069803707575845
tp3802
a(((S'NOM'
p3803
S'crat\xc3\xa8re'
p3804
tp3805
(S'ADJ'
p3806
S'important'
p3807
tp3808
tp3809
F-4.1199154087460235
tp3810
a(((S'NAM'
p3811
S'crat\xc3\xa8re'
p3812
tp3813
(S'ADJ'
p3814
S'nord'
p3815
tp3816
tp3817
F-4.169995092259144
tp3818
a(((S'ADJ'
p3819
S'petit'
p3820
tp3821
(S'NOM'
p3822
S'crat\xc3\xa8re'
p3823
tp3824
tp3825
F-4.172057074046758
tp3826
a(((S'ADJ'
p3827
S'important'
p3828
tp3829
(S'NOM'
p3830
S'crat\xc3\xa8re'
p3831
tp3832
tp3833
F-4.2040123935677585
tp3834
a(((S'NOM'
p3835
S'crat\xc3\xa8re'
p3836
tp3837
(S'VER:pper'
p3838
S'former'
p3839
tp3840
tp3841
F-4.257457691099423
tp3842
a(((S'NOM'
p3843
S'crat\xc3\xa8re'
p3844
tp3845
(S'ADJ'
p3846
S'aujourd'
p3847
tp3848
tp3849
F-4.284833747590541
tp3850
a(((S'VER:pper'
p3851
S'hui'
p3852
tp3853
g3416
tp3854
F-4.37508685788253
tp3855
a(((S'NOM'
p3856
S'crat\xc3\xa8re'
p3857
tp3858
(S'VER:pres'
p3859
S'trouver'
p3860
tp3861
tp3862
F-4.420746524480825
tp3863
a(((S'NOM'
p3864
S'crat\xc3\xa8re'
p3865
tp3866
(S'VER:pres'
p3867
S'voir'
p3868
tp3869
tp3870
F-4.444353268236184
tp3871
a(((S'NOM'
p3872
S'crat\xc3\xa8re'
p3873
tp3874
(S'VER:pper'
p3875
S'donner'
p3876
tp3877
tp3878
F-4.444353268236184
tp3879
a(((S'VER:pres'
p3880
S'trouver'
p3881
tp3882
g1152
tp3883
F-4.501104444730924
tp3884
a(((S'VER:pper'
p3885
S'donner'
p3886
tp3887
(S'NOM'
p3888
S'crat\xc3\xa8re'
p3889
tp3890
tp3891
F-4.524345121787888
tp3892
a(((S'VER:pper'
p3893
S'former'
p3894
tp3895
(S'NOM'
p3896
S'crat\xc3\xa8re'
p3897
tp3898
tp3899
F-4.541839333355495
tp3900
a(((S'ADJ'
p3901
S'nouveau'
p3902
tp3903
(S'NOM'
p3904
S'crat\xc3\xa8re'
p3905
tp3906
tp3907
F-4.572465133148111
tp3908
a(((S'NOM'
p3909
S'crat\xc3\xa8re'
p3910
tp3911
(S'VER:pres'
p3912
S'permettre'
p3913
tp3914
tp3915
F-4.614251600401574
tp3916
a(((S'VER:pres'
p3917
S'former'
p3918
tp3919
g1619
tp3920
F-4.750547002415505
tp3921
a(((S'VER:pres'
p3922
S'situer'
p3923
tp3924
(S'NOM'
p3925
S'crat\xc3\xa8re'
p3926
tp3927
tp3928
F-4.945346048736976
tp3929
a(((S'ADJ'
p3930
S'chaud'
p3931
tp3932
(S'NOM'
p3933
S'crat\xc3\xa8re'
p3934
tp3935
tp3936
F-4.945346048736976
tp3937
a(((S'VER:pper'
p3938
S'situer'
p3939
tp3940
(S'NOM'
p3941
S'crat\xc3\xa8re'
p3942
tp3943
tp3944
F-4.945346048736976
tp3945
a(((S'NOM'
p3946
S'crat\xc3\xa8re'
p3947
tp3948
(S'ADJ'
p3949
S'dernier'
p3950
tp3951
tp3952
F-4.965886824213378
tp3953
a(((S'NOM'
p3954
S'crat\xc3\xa8re'
p3955
tp3956
(S'VER:pper'
p3957
S'devoir'
p3958
tp3959
tp3960
F-5.166962913249584
tp3961
a(((S'NOM'
p3962
S'crat\xc3\xa8re'
p3963
tp3964
(S'VER:pres'
p3965
S'devoir'
p3966
tp3967
tp3968
F-5.52644577267816
tp3969
a(((S'ADJ'
p3970
S'grand'
p3971
tp3972
(S'NOM'
p3973
S'crat\xc3\xa8re'
p3974
tp3975
tp3976
F-6.271770927595776
tp3977
a(((S'NOM'
p3978
S'crat\xc3\xa8re'
p3979
tp3980
(S'ADJ'
p3981
S'grand'
p3982
tp3983
tp3984
F-7.174325742986482
tp3985
a(((S'NOM'
p3986
S'crat\xc3\xa8re'
p3987
tp3988
(S'VER:pres'
p3989
S'faire'
p3990
tp3991
tp3992
F-8.53924664190314
tp3993
a(((S'NOM'
p3994
S'crat\xc3\xa8re'
p3995
tp3996
(S'VER:ppre'
p3997
S'faire'
p3998
tp3999
tp4000
F-8.660044969835308
tp4001
a(((S'NOM'
p4002
S'crat\xc3\xa8re'
p4003
tp4004
(S'VER:pper'
p4005
S'faire'
p4006
tp4007
tp4008
F-8.660044969835308
tp4009
a(((S'ADJ'
p4010
S'volcanique'
p4011
tp4012
(S'NOM'
p4013
S'crat\xc3\xa8re'
p4014
tp4015
tp4016
F-8.717923781769521
tp4017
a((g2507
(S'ADJ'
p4018
S'volcanique'
p4019
tp4020
tp4021
F-8.863673027014245
tp4022
a(((S'NOM'
p4023
S'crat\xc3\xa8re'
p4024
tp4025
(S'VER:pres'
p4026
S'pouvoir'
p4027
tp4028
tp4029
F-9.182823639292028
tp4030
a.