(dp0
S'eruption'
p1
(dp2
sS'scoria'
p3
(dp4
sS'gas'
p5
(dp6
sS'dome'
p7
(dp8
sS'lava'
p9
(dp10
sS'basalt'
p11
(dp12
S'alkalic'
p13
F2.809604711737549
sS'colossal'
p14
F1.8593367686205018
sS'sticky'
p15
F1.25064142592931
sS'cease'
p16
F1.1994844726053264
sS'crystalline'
p17
F1.8593367686205018
sS'cheesy'
p18
F8.163096641688998
sS'buoyant'
p19
F2.23532702161847
sS'cretaceous'
p20
F5.687282199962319
sS'exit'
p21
F2.3992097344961665
sS'underlie'
p22
F0.5943812348913464
sS'hardened'
p23
F1.5847858528996697
sS'shield-building'
p24
F1.759203608240041
sS'water-quenched'
p25
F8.163096641688998
sS'classify'
p26
F1.4368291111934182
sS'slow-moving'
p27
F2.094637850452885
sS'cindery'
p28
F2.811765012208548
sS'equivalent'
p29
F1.0489542947088972
sS'fluid'
p30
F1.7297911923463192
sS'dark-colored'
p31
F3.8991529978354675
sS'joint'
p32
F1.25064142592931
sS'tholeiitic'
p33
F3.8991529978354675
sS'subduct'
p34
F0.887446383123059
sS'inundate'
p35
F1.5879139737044532
sS'-oozed'
p36
F8.163756841204199
sS'cap'
p37
F0.5193791329837313
sS'prolonged'
p38
F1.2541067778032755
sS'dissolve'
p39
F0.9663137900993181
sS'abrupt'
p40
F1.8593367686205018
sS'gush'
p41
F2.237884084509565
sS'sedimentary'
p42
F0.9663137900993181
ssS'magma'
p43
(dp44
sS'debris'
p45
(dp46
S'magmatic'
p47
F2.4234447973040827
sS'hyalo-clastic'
p48
F6.562344847762323
sS'down'
p49
F2.668759429969575
sS'litter'
p50
F4.320690560682126
sS'woody'
p51
F6.562344847762323
sS'vaporize'
p52
F2.3715423868026293
sS'fine-grained'
p53
F1.2304245205828432
sS'gas-laden'
p54
F6.562344847762323
sS'chock-full'
p55
F6.562344847762323
sS'immense'
p56
F1.236225363849852
sS'coarse'
p57
F1.524378841114875
sS'chocolate-coloured'
p58
F6.562344847762323
sS'impound'
p59
F3.6148099014860144
sS'fragmented'
p60
F1.1498040086654542
sS'hurtle'
p61
F1.6513787748786803
sS'sucking'
p62
F6.562344847762323
sS'fling'
p63
F2.668759429969575
sS'hummocky'
p64
F2.138679288579473
sS'overtake'
p65
F3.055189594867038
sS'batter'
p66
F1.9472866259042534
sS'waterlogged'
p67
F4.533749215118935
sS'veil'
p68
F1.6513787748786803
sS'smash'
p69
F1.318656108985023
sS'gritty'
p70
F4.533749215118935
sS'pebble-size'
p71
F6.562344847762323
sS'smoulder'
p72
F1.646423379976177
sS'saturate'
p73
F1.6513787748786803
sS'cosmic'
p74
F2.138679288579473
sS'orbit'
p75
F1.1557883816199468
sS'barrel'
p76
F3.0582831112554283
ssS'fountain'
p77
(dp78
sS'cone'
p79
(dp80
S'300-foot'
p81
F5.840965384722124
sS'4,000ft'
p82
F5.842718177279538
sS'plummet'
p83
F2.0454755518348984
sS'steep-sided'
p84
F3.276704195199739
sS'enclose'
p85
F1.5035901867545198
sS'attain'
p86
F1.8308046658008865
sS'oval'
p87
F2.6673330298096802
sS'twinkle'
p88
F3.1811004627428483
sS'450-feet-high'
p89
F5.840965384722124
sS'inner'
p90
F2.1169993795368947
sS'thunderous'
p91
F2.6716791350741773
sS'monogenetic'
p92
F2.6716791350741773
sS'pleasing'
p93
F5.840965384722124
sS'dominant'
p94
F2.0454755518348984
sS'perfectvolcanic'
p95
F5.840965384722124
sS'composite'
p96
F2.705883437618736
sS'upstart'
p97
F5.840965384722124
sS'overlapping'
p98
F2.3102605421211644
sS'backlit'
p99
F5.840965384722124
sS'invisible'
p100
F1.8308046658008865
sS'littoral'
p101
F9.199536258830813
sS'prominent'
p102
F2.4497825524148658
sS'rootless'
p103
F3.772178546122569
sS'actual'
p104
F2.5808705797510854
sS'shaped'
p105
F2.3151679239464777
sS'scenic'
p106
F1.4969446170382519
sS'parasitic'
p107
F2.3102605421211644
sS'28-metre'
p108
F5.840965384722124
sS'symmetrical'
p109
F2.1169993795368947
sS'steepsided'
p110
F4.01085033684946
ssS'vesicle'
p111
(dp112
sS'tephra'
p113
(dp114
sS'cinder'
p115
(dp116
S'glassy'
p117
F2.006682376768087
sS'high'
p118
F-1.0228374554692283
sS'see'
p119
F-0.2990654689411158
sS'volcanic'
p120
F-1.8521858379769407
sS'incandescent'
p121
F3.229593057119043
sS'jagged'
p122
F2.6548849538737493
sS'rough'
p123
F2.2227992174960622
sS'abundant'
p124
F1.9132329827733425
sS'pulverise'
p125
F12.957593647240778
sS'hot'
p126
F-1.1144689331920254
sS'call'
p127
F-0.784874797572825
sS'include'
p128
F-0.4363147698230267
sS'red'
p129
F0.41528826191497314
sS'form'
p130
F-1.6105614095952066
sS'expose'
p131
F1.1059441989508343
sS'blacken'
p132
F3.4961464586086297
sS'fall'
p133
F-0.2713996715123826
sS'throw'
p134
F1.0137181204169123
sS'shoot'
p135
F1.2526673928376442
sS'spongy-looking'
p136
F12.957593647240778
sS'litter'
p137
F4.390707415290238
sS'common'
p138
F0.4818709447173452
sS'wind'
p139
F0.18399333961739658
ssS'crater'
p140
(dp141
S'obstruct'
p142
F3.647734357178145
sS'steepwalled'
p143
F3.641153225606696
sS'wrestle'
p144
F3.647734357178145
sS'pine-studded'
p145
F3.641153225606696
sS'15,724ft'
p146
F3.647734357178145
sS'sky-blue'
p147
F3.641153225606696
sS'flat-floored'
p148
F2.387304117550769
sS'amphitheater-like'
p149
F3.641153225606696
sS'fern-lined'
p150
F3.641153225606696
sS'six-mile-wide'
p151
F3.641153225606696
sS'cavernous'
p152
F2.387304117550769
sS'250-foot-wide'
p153
F3.641153225606696
sS'sunken'
p154
F2.387304117550769
sS'deliberate'
p155
F3.647734357178145
sS'horseshoe-shaped'
p156
F6.394983373161276
sS'enlarge'
p157
F2.0125440783207758
sS'crescent-shaped'
p158
F3.641153225606696
sS'convoluted'
p159
F2.398183221546457
sS'pocked'
p160
F2.387304117550769
sS'11-mile'
p161
F3.641153225606696
sS'ice-capped'
p162
F2.387304117550769
sS'fractious'
p163
F3.647734357178145
sS'overprint'
p164
F3.647734357178145
sS'ego.'
p165
F2.387304117550769
sS'amphitheater-shaped'
p166
F3.641153225606696
sS'defunct'
p167
F3.641153225606696
sS'nonvolcanic'
p168
F5.149368274331532
sS'green-encircled'
p169
F3.641153225606696
sS'vapourizing'
p170
F3.641153225606696
sS'accelerated'
p171
F3.647734357178145
ssS'volcan'
p172
(dp173
s.