(dp0
S'eruption'
p1
(dp2
S'well-timed'
p3
F1.3040997491037711
sS'deep-water'
p4
F1.3040997491037711
sS'longer-lasting'
p5
F1.3040997491037711
sS'4,459-foot'
p6
F1.371875308038828
sS'abort'
p7
F1.371875308038828
sS'continue.'
p8
F1.371875308038828
sS'dismissive'
p9
F1.371875308038828
sS'000-year-old'
p10
F1.3040997491037711
sS'calamitous'
p11
F1.3040997491037711
sS'testify'
p12
F1.3040997491037711
sS'water-related'
p13
F1.8442755518699037
sS'lowermost'
p14
F1.3040997491037711
sS'47th'
p15
F1.3040997491037711
sS'volcanian'
p16
F1.3040997491037711
sS'largest-known'
p17
F1.3040997491037711
sS'low-volume'
p18
F2.2587670235855573
sS'cataclysmic'
p19
F2.8122840054707656
sS'twenty-first'
p20
F1.371875308038828
sS'475bc'
p21
F1.940088730885557
sS'well-publicize'
p22
F1.3040997491037711
sS'had.'
p23
F1.371875308038828
sS'galvanise'
p24
F1.371875308038828
sS'vapourizing'
p25
F1.371875308038828
sS'subglacial'
p26
F1.3473470387506874
sS'well-recorded'
p27
F1.3040997491037711
sS'fountainlike'
p28
F1.3040997491037711
sS'extruded'
p29
F1.3040997491037711
sS'nurture'
p30
F1.3040997491037711
sS'hydrovolcanic'
p31
F1.4520126804012925
sS'unexpected.'
p32
F1.371875308038828
ssS'scoria'
p33
(dp34
S'terrestrial'
p35
F5.919111952819773
sS'lie'
p36
F0.5478258138661246
sS'result'
p37
F0.021866223869414506
sS'boil'
p38
F1.6390715305241363
sS'erode'
p39
F1.863733673167323
sS'parasitic'
p40
F7.059262875994905
sS'good'
p41
F0.19639759101636142
sS'vesicular'
p42
F5.51507672161981
sS'half-melted'
p43
F16.033978566273824
sS'inactive'
p44
F3.914946965971767
sS'call'
p45
F-0.34392039912661443
sS'lunar'
p46
F2.3092238586373397
sS'active'
p47
F-0.6377813705969636
sS'dominate'
p48
F2.444412950856744
sS'40-m-high'
p49
F16.033978566273824
sS'common'
p50
F0.9329916057380715
ssS'gas'
p51
(dp52
S'seismological'
p53
F1.7822160823672224
sS'associated'
p54
F2.6315192942168557
sS'seep'
p55
F1.5498143475506017
sS'surgical'
p56
F1.7822160823672224
sS'nonmagmatic'
p57
F3.6197930914073853
sS'subordinate'
p58
F2.371170124008622
sS'cumbersome'
p59
F3.6197930914073853
sS'chock'
p60
F3.6197930914073853
sS'sulfur-rich'
p61
F2.520434154763171
sS'poisonous'
p62
F5.170484420965323
sS'please'
p63
F3.6197930914073853
sS'rock-'
p64
F3.626479438077593
sS'superheat'
p65
F1.7787581662835241
sS'dare'
p66
F1.4269428855603343
sS'toxic'
p67
F1.8677623627080262
sS'defuse'
p68
F3.626479438077593
sS'830c'
p69
F3.626479438077593
sS'exsolved'
p70
F3.6197930914073853
sS'industrial-style'
p71
F3.6197930914073853
sS'infuse'
p72
F4.038797722082315
sS'steam;'
p73
F2.3822236985814857
sS'expand'
p74
F1.861064129253124
sS'pressurize'
p75
F1.7822160823672224
sS'semi-molten'
p76
F1.7963917854045595
sS'ash-laden'
p77
F2.8801583035924856
sS'greatest'
p78
F1.4269428855603343
sS'unsorted'
p79
F2.3822236985814857
sS'climate-changing'
p80
F3.6197930914073853
sS'liberate'
p81
F1.4269428855603343
sS'dissolve'
p82
F3.1452207085313715
ssS'dome'
p83
(dp84
S'resurgent'
p85
F1.126132955115528
sS'stubby'
p86
F5.779142304695596
sS'tumble'
p87
F0.5671699789777289
sS'ever-growing'
p88
F5.777333371678285
sS'consistent'
p89
F0.7485876538347712
sS'prehistoric'
p90
F0.4680431191438936
sS'steep-sided'
p91
F0.5671699789777289
sS'flatten'
p92
F0.2583557274532566
sS'southwestern'
p93
F0.8046875305322764
sS'jagged'
p94
F0.6308092671206621
sS'flat-topped'
p95
F3.9645788332232867
sS'renewed'
p96
F0.9514218399541043
sS'pel\\e9ean'
p97
F5.777333371678285
sS'elliptical'
p98
F2.0104073932148427
sS'inflate'
p99
F0.9514218399541043
sS'unprecedented'
p100
F0.6877975911109733
sS'circular'
p101
F0.09870799162823607
sS'composite'
p102
F3.4391240502310905
sS'squat'
p103
F2.0159872213506738
sS'scour'
p104
F1.3487259811230456
sS'variable'
p105
F0.6877975911109733
sS'plug'
p106
F0.5194333741039681
sS'drape'
p107
F2.0159872213506738
sS'profound'
p108
F3.1385851469538273
sS'conceal'
p109
F3.142396305371127
sS'involved'
p110
F5.777333371678285
sS'ruptured'
p111
F5.777333371678285
sS'herald'
p112
F1.8028492934564297
sS'venusian'
p113
F2.2785731723723126
sS'unleash'
p114
F0.5162793146112656
ssS'lava'
p115
(dp116
S'lick'
p117
F1.6989400173022036
sS'frothlike'
p118
F1.6554537314465694
sS'invasive'
p119
F1.6989400173022036
sS'ultramafic'
p120
F1.754292985159208
sS'dacitic-to-rhyolitic'
p121
F2.341165118892886
sS'treacle-like'
p122
F1.6554537314465694
sS'cursed'
p123
F1.6554537314465694
sS'100-yard-wide'
p124
F1.6989400173022036
sS'1,472\\b0f/800\\b0c'
p125
F1.6554537314465694
sS'ropey'
p126
F1.6554537314465694
sS'red-hot'
p127
F1.7214425936146378
sS'home-brewed'
p128
F1.6554537314465694
sS'high-standing'
p129
F1.6989400173022036
sS'basaltic'
p130
F2.395716928513333
sS'hardened'
p131
F3.9002209945576345
sS'seven-kilometre-long'
p132
F1.6989400173022036
sS'pasty'
p133
F2.789086049356794
sS'outpour'
p134
F1.6554537314465694
sS'1200-degree'
p135
F1.6554537314465694
sS'de-gased'
p136
F1.6989400173022036
sS'solidified'
p137
F1.6554537314465694
sS'clastogenic'
p138
F1.6554537314465694
sS'reoccupied'
p139
F1.6989400173022036
sS'fragmentized'
p140
F1.6989400173022036
sS'fountained'
p141
F1.6989400173022036
sS'10,000-foot-high'
p142
F1.6989400173022036
sS'~27'
p143
F1.6989400173022036
sS'cascading'
p144
F1.6989400173022036
sS'wormlike'
p145
F1.6554537314465694
sS'mound-like'
p146
F1.6554537314465694
ssS'basalt'
p147
(dp148
S'alkalic'
p149
F2.809604711737549
sS'colossal'
p150
F1.8593367686205018
sS'sticky'
p151
F1.25064142592931
sS'cease'
p152
F1.1994844726053264
sS'crystalline'
p153
F1.8593367686205018
sS'cheesy'
p154
F8.163096641688998
sS'buoyant'
p155
F2.23532702161847
sS'cretaceous'
p156
F5.687282199962319
sS'exit'
p157
F2.3992097344961665
sS'sedimentary'
p158
F0.9663137900993181
sS'underlie'
p159
F0.5943812348913464
sS'hardened'
p160
F1.5847858528996697
sS'shield-building'
p161
F1.759203608240041
sS'water-quenched'
p162
F8.163096641688998
sS'classify'
p163
F1.4368291111934182
sS'slow-moving'
p164
F2.094637850452885
sS'cindery'
p165
F2.811765012208548
sS'equivalent'
p166
F1.0489542947088972
sS'fluid'
p167
F1.7297911923463192
sS'dark-colored'
p168
F3.8991529978354675
sS'joint'
p169
F1.25064142592931
sS'tholeiitic'
p170
F3.8991529978354675
sS'subduct'
p171
F0.887446383123059
sS'inundate'
p172
F1.5879139737044532
sS'-oozed'
p173
F8.163756841204199
sS'cap'
p174
F0.5193791329837313
sS'prolonged'
p175
F1.2541067778032755
sS'abrupt'
p176
F1.8593367686205018
sS'gush'
p177
F2.237884084509565
sS'dissolve'
p178
F0.9663137900993181
ssS'magma'
p179
(dp180
S'fast-flowing'
p181
F2.807041215437528
sS'intrusion--suggested'
p182
F2.807041215437528
sS'pertaining'
p183
F1.747203127132911
sS'pp.36-37'
p184
F2.807041215437528
sS'silica-poor'
p185
F2.8200459510558664
sS'phreatomagmatic'
p186
F1.768752186413652
sS'deprive'
p187
F1.747203127132911
sS'siliceous'
p188
F1.747203127132911
sS'upward-moving'
p189
F2.807041215437528
sS'intermediate-to-felsic'
p190
F2.807041215437528
sS'de-gassed'
p191
F1.747203127132911
sS'crucia'
p192
F2.8200459510558664
sS'summit-fed'
p193
F2.807041215437528
sS'gas-filled'
p194
F1.768752186413652
sS'inject'
p195
F3.188180551149817
sS'basaltic-to-andesitic'
p196
F2.807041215437528
sS'cooled-off'
p197
F2.807041215437528
sS'gas--resonating'
p198
F2.8200459510558664
sS'runny'
p199
F2.102527163845475
sS'ascending'
p200
F4.042500394743551
sS'fluid--molten'
p201
F2.807041215437528
sS'subterranean'
p202
F3.3702546810925855
sS'supersonic'
p203
F1.747203127132911
sS'gassy'
p204
F2.807041215437528
sS'miles-deep'
p205
F2.807041215437528
sS'less-fluid'
p206
F2.807041215437528
sS'gas-charged'
p207
F3.465403561355884
sS'shallow-level'
p208
F4.861938004077694
sS'super-cooled'
p209
F2.807041215437528
sS'silica-rich'
p210
F3.1468761239912366
ssS'debris'
p211
(dp212
S'magmatic'
p213
F2.4234447973040827
sS'hyalo-clastic'
p214
F6.562344847762323
sS'down'
p215
F2.668759429969575
sS'litter'
p216
F4.320690560682126
sS'woody'
p217
F6.562344847762323
sS'vaporize'
p218
F2.3715423868026293
sS'fine-grained'
p219
F1.2304245205828432
sS'gas-laden'
p220
F6.562344847762323
sS'chock-full'
p221
F6.562344847762323
sS'immense'
p222
F1.236225363849852
sS'coarse'
p223
F1.524378841114875
sS'chocolate-coloured'
p224
F6.562344847762323
sS'impound'
p225
F3.6148099014860144
sS'fragmented'
p226
F1.1498040086654542
sS'hurtle'
p227
F1.6513787748786803
sS'sucking'
p228
F6.562344847762323
sS'fling'
p229
F2.668759429969575
sS'hummocky'
p230
F2.138679288579473
sS'overtake'
p231
F3.055189594867038
sS'batter'
p232
F1.9472866259042534
sS'waterlogged'
p233
F4.533749215118935
sS'veil'
p234
F1.6513787748786803
sS'smash'
p235
F1.318656108985023
sS'gritty'
p236
F4.533749215118935
sS'pebble-size'
p237
F6.562344847762323
sS'smoulder'
p238
F1.646423379976177
sS'saturate'
p239
F1.6513787748786803
sS'cosmic'
p240
F2.138679288579473
sS'orbit'
p241
F1.1557883816199468
sS'barrel'
p242
F3.0582831112554283
ssS'fountain'
p243
(dp244
S'feed'
p245
F0.43694505401784284
sS'discontinuous'
p246
F4.973830181581271
sS'350-meter-high'
p247
F10.239266000885952
sS'incandescent'
p248
F0.8200951373519384
sS'carry'
p249
F-0.10541015846422885
sS'red-hot'
p250
F1.9492303773744015
sS'glowing'
p251
F0.9389012264378879
sS'fiery'
p252
F1.1738396425280466
sS'adjacent'
p253
F1.0498260688932697
sS'squirt'
p254
F7.171522315643836
sS'issue'
p255
F0.4996250887726835
sS'municipal'
p256
F4.973830181581271
sS'belch'
p257
F1.3959857592797258
sS'fluid'
p258
F-0.10541015846422885
sS'dramatic'
p259
F0.7744762267561222
sS'break out'
p260
F2.962557235853999
sS'spurt'
p261
F2.6471640696570007
sS'accumulate'
p262
F1.1412418727645
sS'dense'
p263
F0.3526547012864327
sS'strong'
p264
F0.15657881616231523
sS'100-metre'
p265
F10.239266000885952
sS'shoot'
p266
F0.7324774709948126
sS'brilliant'
p267
F2.516354021015759
sS'light'
p268
F0.8715767208116855
sS'spout'
p269
F6.600539208095454
sS'surge'
p270
F0.38026204530733465
sS'renew'
p271
F7.172073181853463
sS'observe'
p272
F0.4380370374636842
sS'common'
p273
F0.012713104881939103
sS'tall'
p274
F0.8200951373519384
ssS'cone'
p275
(dp276
S'300-foot'
p277
F5.840965384722124
sS'4,000ft'
p278
F5.842718177279538
sS'plummet'
p279
F2.0454755518348984
sS'steep-sided'
p280
F3.276704195199739
sS'enclose'
p281
F1.5035901867545198
sS'attain'
p282
F1.8308046658008865
sS'oval'
p283
F2.6673330298096802
sS'water-saturated'
p284
F1.4969446170382519
sS'twinkle'
p285
F3.1811004627428483
sS'450-feet-high'
p286
F5.840965384722124
sS'inner'
p287
F2.1169993795368947
sS'thunderous'
p288
F2.6716791350741773
sS'monogenetic'
p289
F2.6716791350741773
sS'pleasing'
p290
F5.840965384722124
sS'dominant'
p291
F2.0454755518348984
sS'perfectvolcanic'
p292
F5.840965384722124
sS'composite'
p293
F2.705883437618736
sS'upstart'
p294
F5.840965384722124
sS'overlapping'
p295
F2.3102605421211644
sS'backlit'
p296
F5.840965384722124
sS'invisible'
p297
F1.8308046658008865
sS'littoral'
p298
F9.199536258830813
sS'prominent'
p299
F2.4497825524148658
sS'rootless'
p300
F3.772178546122569
sS'actual'
p301
F2.5808705797510854
sS'shaped'
p302
F2.3151679239464777
sS'parasitic'
p303
F2.3102605421211644
sS'28-metre'
p304
F5.840965384722124
sS'symmetrical'
p305
F2.1169993795368947
sS'steepsided'
p306
F4.01085033684946
ssS'vesicle'
p307
(dp308
S'large'
p309
F0.2721824475693548
sS'occupy'
p310
F5.919262714851606
sS'call'
p311
F0.7243569490436951
sS'close'
p312
F1.3394932374799593
sS'abundant'
p313
F4.681839898771408
sS'open'
p314
F1.9975603368336043
ssS'tephra'
p315
(dp316
S'useful'
p317
F1.6381968387746522
sS'fall'
p318
F-0.11410151710887056
sS'general'
p319
F0.5068051203604429
sS'crumbly'
p320
F4.308322282177764
sS'carry'
p321
F-0.1460160851546952
sS'fill'
p322
F-0.15360957026371855
sS'derive'
p323
F0.8960527523483829
sS'windborne'
p324
F7.022501499403582
sS'airborne'
p325
F1.8931840965892346
sS'unconsolidated'
p326
F4.309298424349779
sS'coarse'
p327
F2.7252014691499413
sS'classify'
p328
F1.9683719279879026
sS'define'
p329
F1.6961078286231244
sS'brown'
p330
F0.5745746214941728
sS'smudge'
p331
F7.023087508204905
sS'downwind'
p332
F1.4825701621068619
sS'lay'
p333
F1.7558726909340068
sS'hurl'
p334
F0.8463561391614058
sS'date'
p335
F0.11552737056833078
sS'bury'
p336
F-0.1797717601402222
sS'glow'
p337
F1.2313685491605801
sS'so-called'
p338
F1.6961078286231244
sS'remote'
p339
F1.0637312320932468
sS'dangerous'
p340
F-0.09271909947534375
sS'cap'
p341
F0.9486078208087114
sS'voluminous'
p342
F1.8214170415018451
sS'common'
p343
F-0.02818707834508413
sS'release'
p344
F0.020969566339509468
sS'tall'
p345
F0.7765412682148862
sS'climb'
p346
F0.19601386424061873
ssS'cinder'
p347
(dp348
S'glassy'
p349
F2.006682376768087
sS'high'
p350
F-1.0228374554692283
sS'see'
p351
F-0.2990654689411158
sS'volcanic'
p352
F-1.8521858379769407
sS'incandescent'
p353
F3.229593057119043
sS'jagged'
p354
F2.6548849538737493
sS'rough'
p355
F2.2227992174960622
sS'abundant'
p356
F1.9132329827733425
sS'pulverise'
p357
F12.957593647240778
sS'hot'
p358
F-1.1144689331920254
sS'call'
p359
F-0.784874797572825
sS'include'
p360
F-0.4363147698230267
sS'red'
p361
F0.41528826191497314
sS'form'
p362
F-1.6105614095952066
sS'expose'
p363
F1.1059441989508343
sS'blacken'
p364
F3.4961464586086297
sS'fall'
p365
F-0.2713996715123826
sS'throw'
p366
F1.0137181204169123
sS'shoot'
p367
F1.2526673928376442
sS'spongy-looking'
p368
F12.957593647240778
sS'litter'
p369
F4.390707415290238
sS'common'
p370
F0.4818709447173452
sS'wind'
p371
F0.18399333961739658
ssS'crater'
p372
(dp373
S'obstruct'
p374
F3.647734357178145
sS'steepwalled'
p375
F3.641153225606696
sS'wrestle'
p376
F3.647734357178145
sS'pine-studded'
p377
F3.641153225606696
sS'15,724ft'
p378
F3.647734357178145
sS'sky-blue'
p379
F3.641153225606696
sS'flat-floored'
p380
F2.387304117550769
sS'amphitheater-like'
p381
F3.641153225606696
sS'fern-lined'
p382
F3.641153225606696
sS'six-mile-wide'
p383
F3.641153225606696
sS'cavernous'
p384
F2.387304117550769
sS'250-foot-wide'
p385
F3.641153225606696
sS'sunken'
p386
F2.387304117550769
sS'deliberate'
p387
F3.647734357178145
sS'horseshoe-shaped'
p388
F6.394983373161277
sS'enlarge'
p389
F2.0125440783207758
sS'crescent-shaped'
p390
F3.641153225606696
sS'convoluted'
p391
F2.398183221546457
sS'pocked'
p392
F2.387304117550769
sS'11-mile'
p393
F3.641153225606696
sS'ice-capped'
p394
F2.387304117550769
sS'fractious'
p395
F3.647734357178145
sS'overprint'
p396
F3.647734357178145
sS'ego.'
p397
F2.387304117550769
sS'amphitheater-shaped'
p398
F3.641153225606696
sS'defunct'
p399
F3.641153225606696
sS'nonvolcanic'
p400
F5.149368274331532
sS'green-encircled'
p401
F3.641153225606696
sg25
F3.641153225606696
sS'accelerated'
p402
F3.647734357178145
ssS'volcan'
p403
(dp404
S'devastate'
p405
F2.267571084189714
sS'get'
p406
F0.8334589767444359
sS'fake'
p407
F7.059262875994905
sS'large'
p408
F-0.8005044870678161
sS'destroy'
p409
F0.2938724930591039
sS'undersea'
p410
F3.0577701739921173
sS'active'
p411
F0.8255118378031238
sS'survive'
p412
F1.494641882006332
sS'include'
p413
F0.9870360293333522
sS'come'
p414
F-0.3660209707846681
sS'threaten'
p415
F1.2282489417892097
sS'nice'
p416
F6.418783741373631
ss.