(dp0
S'basalte'
p1
(dp2
S'parfum'
p3
F2.6443261882726077
sS'portugal'
p4
F2.247451425003324
sS'p\xc3\xa9rennit\xc3\xa9'
p5
F4.332334207242817
sS'grotte'
p6
F1.632281255848829
sS'phonolite'
p7
F3.2423219866899466
sS'gravier'
p8
F5.214502938191179
sS'arabesque'
p9
F5.394841564441321
sS'mat\xc3\xa9riau'
p10
F2.0919722292864864
sS'nappage'
p11
F7.756976772818343
sS'lemptegy'
p12
F3.68721038811216
sS'clocher'
p13
F2.906476120643966
sS'm\xc3\xa9sostase'
p14
F4.331246756141901
sS'promontoire'
p15
F5.394841564441321
sS'arte'
p16
F3.240913149159241
sS'barre'
p17
F2.0900469513750264
sS'ocre'
p18
F2.245609149522538
sS'affleurement'
p19
F2.642676486784741
sS'noi'
p20
F7.757541289159512
sS'strate'
p21
F2.4269128428454487
sS'\xc3\xa9clatement'
p22
F5.395711695022989
sS'scorie'
p23
F1.5711695972671342
sS'mesa'
p24
F7.757541289159512
sS'tuf'
p25
F1.6300888858692832
sS'coirons'
p26
F4.332334207242817
sS'rhyolite'
p27
F3.1757709150438846
sS'granule'
p28
F4.331246756141901
sS'antrim'
p29
F7.757541289159512
sS'colonne'
p30
F1.7602346545542016
sS'coussin'
p31
F1.95633426737734
sS'couloir'
p32
F2.245609149522538
ssS't\xc3\xa9phra'
p33
(dp34
sS'gaz'
p35
(dp36
S'surplus'
p37
F2.188368506103791
sS'analyseur'
p38
F4.282488452960822
sS'pourvoyeur'
p39
F3.028176625441684
sS'indon\xc3\xa9sie;'
p40
F3.028176625441684
sS'produits'
p41
F2.2936671492528458
sS'effusiv'
p42
F3.028176625441684
sS'p\xc3\xa9trole'
p43
F4.426192224934062
sS'cachot'
p44
F2.2936671492528458
sS'recharge'
p45
F1.922616806484198
sS'd\xc3\xa9tendre'
p46
F3.035974522264393
sS'lib\xc3\xa9ration'
p47
F1.9933044569368865
sS'amasse'
p48
F3.035974522264393
sS'<#mon-7-82>'
p49
F3.035974522264393
sS'dissolution'
p50
F3.31812863878102
sS'richesse'
p51
F2.9527655878254397
sS'\xc3\xa9manation'
p52
F2.188368506103791
sS'saturation'
p53
F2.9661844609674013
sS'd\xc3\xa9riv\xc3\xa9'
p54
F1.922616806484198
sS'mini-lune'
p55
F1.9347483569116228
sS'profondeu'
p56
F3.028176625441684
sS'masque'
p57
F4.040262240961022
sS'[m\xc3\xa9thane'
p58
F3.028176625441684
sS'\xc3\xa9chappement'
p59
F3.028176625441684
sS'jc'
p60
F4.282488452960822
sS'inhalation'
p61
F1.922616806484198
sS'ampoule'
p62
F1.4065922781571987
sS'subalterne'
p63
F3.035974522264393
sS'emissions'
p64
F3.028176625441684
sS'dange'
p65
F3.028176625441684
sS'exhalaison'
p66
F1.922616806484198
ssS'fontaine'
p67
(dp68
S'feu'
p69
F0.1740770296042652
sS'\xc3\xa9bullition'
p70
F4.001570394891106
sS'vaucluse'
p71
F24.497089483506898
sS'photo'
p72
F0.28992636898965224
sS'cameroun'
p73
F1.7133386569996842
sS'gouffre'
p74
F4.001462545545412
sS'fresque'
p75
F4.746408145962145
sS'formation'
p76
F0.760504658829813
sS'surface'
p77
F-0.5939023903439432
sS'volcan'
p78
F-2.43636647545938
sS'coul\xc3\xa9e'
p79
F1.2102498632479237
sS'magma'
p80
F0.07250298427526986
sS'fonctionnement'
p81
F3.3971634953945795
sS'soufri\xc3\xa8re'
p82
F0.9556398357579422
sS'exemple'
p83
F0.49411127142943073
sS'caldera'
p84
F1.9758091027970275
sS'fin'
p85
F0.11224383538541037
sS'hauteur'
p86
F1.0312244427102601
sS'villa'
p87
F4.001462545545412
ssS'lave'
p88
(dp89
S'grognement'
p90
F1.8437401578111752
sS'lorque'
p91
F1.8437401578111752
sS'gicl\xc3\xa9e'
p92
F1.8437401578111752
sS'oreiller'
p93
F1.9069838845499396
sS'puuoo'
p94
F1.3364611749395632
sS'approximation'
p95
F1.8437401578111752
sS'kazumura'
p96
F1.8686887280019242
sS'spatter-cone'
p97
F1.8686887280019242
sS'175\xc2\xb0c'
p98
F1.0142695794787886
sS'coul\xc3\xa9e'
p99
F8.149274255353033
sS'nuee'
p100
F1.0142695794787886
sS'trachyand\xc3\xa9site'
p101
F1.8437401578111752
sS'd\xc3\xa9clenche'
p102
F1.8686887280019242
sS'coulees'
p103
F1.8437401578111752
sS'associations'
p104
F1.8437401578111752
sS'lobe'
p105
F1.0260394333030967
sS'trachy-andesite'
p106
F1.8437401578111752
sS'coul\xc3\x89e'
p107
F1.8437401578111752
sS'carbonite'
p108
F1.8437401578111752
sg59
F1.8437401578111752
sS'pratiquant'
p109
F1.8686887280019242
sS'bubon'
p110
F1.8437401578111752
sS'100\xc2\xb0c'
p111
F1.434304235799733
sS'pinacle'
p112
F1.8437401578111752
sS'demi-\xc3\xa9chec'
p113
F1.8686887280019242
sS'legend\xc3\xa9e'
p114
F1.8437401578111752
sS'd\xc3\xb4me'
p115
F4.118090795491876
sS'deregle'
p116
F1.8686887280019242
sS'coussin'
p117
F2.725185794469891
sS'chateau'
p118
F1.8686887280019242
ssS'cendre'
p119
(dp120
S'strie'
p121
F3.0665279228693376
sS'salve'
p122
F1.4173821012635386
sS'bariolure'
p123
F3.074078238362683
sS'obstruction'
p124
F4.336725377917614
sS'carbonatite'
p125
F1.4173821012635386
sS'sadiman'
p126
F1.9638926066803244
sS'\xc2\xa1c'
p127
F1.5197158445077261
sS'd\xc3\xa9bris'
p128
F2.2182911613982363
sS'nicaraguayennes'
p129
F3.0665279228693376
sS'km\xc2\xb3'
p130
F1.9521470741417801
sS'lapillis'
p131
F2.2591531605902038
sS'ponce'
p132
F3.8613265840174265
sS'pluie'
p133
F1.5435953662995319
sS'cyclo-pousse'
p134
F3.074078238362683
sS'nuage'
p135
F3.1910017389419636
sS'volute'
p136
F2.0108715931601484
sS'pilulier'
p137
F3.0665279228693376
sS'linceul'
p138
F2.0044809906717718
sS'panache'
p139
F4.590107109696318
sS'lapillisqui'
p140
F3.074078238362683
sS'chiapas'
p141
F1.9521470741417801
sS'matrice'
p142
F2.3325456710655548
sS'scorie'
p143
F3.137612703755831
sS'picon'
p144
F3.0665279228693376
sS'retomb\xc3\xa9e'
p145
F7.010494064368172
sS'18km'
p146
F1.9638926066803244
sS'chichonal'
p147
F1.9521470741417801
sS'chute'
p148
F2.0039132496469847
sS'lac-crat\xc3\xa8re'
p149
F1.4321856334059084
sS'poids'
p150
F1.3259340206607224
ssS'magma'
p151
(dp152
g54
F2.152243300823287
sS'\xc3\xa9pimagma'
p153
F3.3154301591884265
sS'goutte'
p154
F1.3752108707079649
sS'ascension'
p155
F3.2936995910859173
sS'succ\xc3\xa9dan\xc3\xa9'
p156
F3.3154301591884265
sS'viscosit\xc3\xa9'
p157
F3.3757136342582044
sS'r\xc3\xa9servoir'
p158
F5.642065610397076
sS'j.-c.s'
p159
F1.596857571571658
sS'roches'
p160
F2.152243300823287
sS'provenance'
p161
F2.487229082431664
sS'apport'
p162
F1.9671432200235521
sS'cheminee'
p163
F2.152243300823287
sS'dispute'
p164
F1.596857571571658
sS'transporteur'
p165
F3.674990718871678
sS'hypomagma'
p166
F3.3154301591884265
sS'remont\xc3\xa9e'
p167
F3.790038626426372
sg56
F3.3215962321787122
sS'simili'
p168
F3.3154301591884265
sS'ressort'
p169
F2.152243300823287
sS'exsolution'
p170
F3.3154301591884265
sS'probl\xc3\xa9matique'
p171
F1.596857571571658
sS'injection'
p172
F4.689007408180477
sS'rhyolitique'
p173
F3.3215962321787122
sS'kimberlitique'
p174
F1.5657698657218686
sS'pouss\xc3\xa9e'
p175
F1.6842824609815414
sS'\xc3\xa9volution'
p176
F1.2730617097015362
sS'km3'
p177
F2.522238105256793
sS'micro-gouttelettes'
p178
F2.142655484871859
sS'mont\xc3\xa9e'
p179
F6.447800541432341
sS'solidification'
p180
F2.966093227580455
ssS'scorie'
p181
(dp182
S'projection'
p183
F0.6801186559391533
sS'tas'
p184
F4.418237571216171
sS'second'
p185
F0.6124352705391733
sS'basalte'
p186
F1.5711695972671342
sS'moraine'
p187
F3.8420284168650243
sS'surtsey'
p188
F1.9354012600746033
sS'c\xc3\xb4ne'
p189
F2.7390932716321106
sS'\xc3\xa9mission'
p190
F0.22395975265978413
sS'c\xc5\x93ur'
p191
F0.39864631002079315
sg131
F3.6194524598379867
sS'santorin'
p192
F0.9136467184834994
sS'd\xc3\xa9sert'
p193
F1.3623114743693618
sS'\xc3\xa9jection'
p194
F3.426396238174982
sS'vidange'
p195
F5.301181635059336
sS'fragment'
p196
F4.207165531896711
sS'barrage'
p197
F4.976887044599601
sS'amas'
p198
F3.256508500568065
sS'signaler'
p199
F1.8370950344585615
sS'sill'
p200
F6.938006240008076
sS'bombe'
p201
F1.3397415859084083
sS'd\xc3\xa9truire'
p202
F0.1086166531825079
sS'arch\xc3\xa9ologue'
p203
F2.971702190715864
sS'cendres'
p204
F10.784440642294621
sS'c\xc3\xb4ne de cendre'
p205
F4.418237571216171
sS'monceau'
p206
F8.554747075435438
sS'strato-volcan'
p207
F2.231240052341039
sS'bulle de gaz'
p208
F2.456749378473046
sS'relief'
p209
F0.949299122160259
sS'cendre'
p210
F3.137612703755831
sS'accumulation'
p211
F1.7052145893530575
ssS'c\xc3\xb4ne'
p212
(dp213
S'crevasse'
p214
F0.7787495091416743
sS'puuoo'
p215
F1.338354281012494
sS'fugendake'
p216
F3.311569796281919
sS'fuego'
p217
F1.0610853140857883
sS'br\xc3\xa8che'
p218
F0.8406473630420797
sS'paricutin'
p219
F1.2390201870476527
sS'jardin'
p220
F0.5661460330790293
sS'arri\xc3\xa8re-plan'
p221
F1.338354281012494
sS'km\xc2\xb2'
p222
F1.2345756397083736
sS'panorama'
p223
F1.5876886750019787
sS'ext\xc3\xa9rieur'
p224
F0.35504013932493134
sS'fjord'
p225
F2.1430735106993404
sS'tolbachik'
p226
F2.146290213205922
sS'croissance'
p227
F0.31800403044559833
sS'multitude'
p228
F1.2345756397083736
sS'beaut\xc3\xa9'
p229
F0.15181339621599407
sS'fuji-san'
p230
F6.060054178292423
sS'strato-volcans'
p231
F1.7413174626546937
sS'scorie'
p232
F2.7390932716321106
sS'ruapehu'
p233
F0.9120692830870806
sS'\xc3\xa9dification'
p234
F1.5876886750019787
sS'argile'
p235
F0.9120692830870806
sS'\xc3\xa9difier'
p236
F0.18282689259672813
sS'somma'
p237
F2.4201232503226473
sS'phl\xc3\xa9gr\xc3\xa9ens'
p238
F1.9228236010135575
sS'caillou'
p239
F1.1411769335698045
sS'vi.19'
p240
F6.060054178292423
sS'bouchon'
p241
F0.7840093781836064
sS'portion'
p242
F1.1411769335698045
sS'succession'
p243
F0.5661460330790293
ssS'd\xc3\xb4me'
p244
(dp245
S'am\xc3\xa9riques'
p246
F2.4715359964992847
sS'sarcoui'
p247
F2.47504698029713
sS'\xc3\xa9croulement'
p248
F3.495279726142591
sS'chapelle'
p249
F2.130721763233919
sS'cure'
p250
F2.957017923427291
sS'galette'
p251
F2.130721763233919
sS'suc'
p252
F2.9600290773642093
sS'hugendake'
p253
F3.747905346518572
sS'lave'
p254
F4.118090795491876
sS'chopine'
p255
F2.4715359964992847
sS'touareg'
p256
F5.478971860806513
sS'\xc3\xa9rection'
p257
F2.4715359964992847
sS'ilamane'
p258
F2.9600290773642093
sS'rep\xc3\xa9rage'
p259
F3.747905346518572
sS'\xc3\xa9corce-cro\xc3\xbbte'
p260
F5.480519668675473
sS'465m'
p261
F5.480519668675473
sS'ota'
p262
F2.957017923427291
sS'croissance'
p263
F3.3315089795172623
sS'sur\xc3\xa9l\xc3\xa9vation'
p264
F5.478971860806513
sS'pariou;'
p265
F5.478971860806513
sS'puy'
p266
F7.651032524803134
sS'puy-de'
p267
F5.478971860806513
sS'santiaguito'
p268
F2.47504698029713
sS'jos\xc3\xa9'
p269
F2.47504698029713
sS'koryaksky'
p270
F5.480519668675473
sS'corresp'
p271
F2.9600290773642093
sS'ranch'
p272
F5.478971860806513
sS'aiguille'
p273
F2.1347793971183244
sS'surrection'
p274
F5.478971860806513
sS'chaine'
p275
F3.747905346518572
ssS'\xc3\xa9ruption'
p276
(dp277
S'stromboli;'
p278
F1.5005572060188963
sS'citerne'
p279
F1.5005572060188963
sg42
F1.5380329530751888
sS'fr\xc3\xa9gate'
p280
F1.5380329530751888
sS'tremble'
p281
F1.5380329530751888
sS'laviques'
p282
F1.5380329530751888
sS'observant'
p283
F1.5005572060188963
sS'<#mon-7-185>'
p284
F1.5380329530751888
sS'flash'
p285
F1.5380329530751888
sS':apr\xc3\xa8s'
p286
F1.5005572060188963
sS'gros|grosse'
p287
F1.5005572060188963
sS'face-\xc3\xa0-face'
p288
F1.5380329530751888
sS'<#geo-15-9>'
p289
F1.5380329530751888
sS'achavinsky'
p290
F1.5380329530751888
sS'ometepe'
p291
F1.5380329530751888
sS'hawa\xc3\xafenne'
p292
F1.5380329530751888
sS'sheveluch'
p293
F1.5380329530751888
sS'<#geo-15-14>'
p294
F1.5380329530751888
sS'amn\xc3\xa9sie'
p295
F1.5005572060188963
sS'<#kra-4-37>'
p296
F1.5005572060188963
sS'pr\xc3\xa9diction'
p297
F1.658728773581068
sS'sinila'
p298
F1.5380329530751888
sS'hale-bopp'
p299
F1.5005572060188963
sS'elf-norge'
p300
F1.5380329530751888
sS'<#mon-7-23>'
p301
F1.5380329530751888
sS'globalit\xc3\xa9'
p302
F1.5380329530751888
sS'titus'
p303
F1.5005572060188963
sS'associ\xc3\x89es'
p304
F1.5380329530751888
sS'remake'
p305
F1.5005572060188963
sS'nulla'
p306
F1.5380329530751888
ssS'd\xc3\xa9bris'
p307
(dp308
S'singapour'
p309
F5.136640175876143
sS'point'
p310
F-1.3274482012100592
sS'taille'
p311
F1.2821265314653443
sS'surface'
p312
F-1.5851065558757975
sS'd\xc3\xa9sagr\xc3\xa9ger'
p313
F5.9856528438111685
sS'avalanche'
p314
F2.1415890763622625
sS'poussi\xc3\xa8re'
p315
F0.18540583194667914
sS'jusqu'
p316
F-1.2711040931928783
sS'jet'
p317
F1.1172418624663913
sS'altitude'
p318
F-0.6197606805250157
sS'effet'
p319
F-1.0791233249674805
sS'cristaux'
p320
F0.5617082200879273
sS'roche'
p321
F3.4360948071138075
sS'\xc3\xa9peron'
p322
F5.137132769447661
sS'juin'
p323
F-0.5839622809391494
sS'bloc'
p324
F-0.28256825096673427
sS'couvrir'
p325
F0.4279152349667247
sS'abri'
p326
F1.4705061739830347
sS'\xc3\xa9jection'
p327
F2.8987478319299176
sS'explosion'
p328
F-1.1383017268904845
sS'gaz'
p329
F-1.3863053086181416
sS'dalle'
p330
F1.8932488672194592
sS'produit'
p331
F0.33470879176248286
sS'chute'
p332
F0.797784358442922
sS'atlantide'
p333
F1.1177861939897293
sS'flot'
p334
F0.95586334556375
sS'coul\xc3\xa9e'
p335
F-1.3863053086181416
sS'plante'
p336
F1.2436608469041206
sS'cendre'
p337
F2.2182911613982363
sS'b\xc3\xa9ton'
p338
F2.6142215766323202
ssS'crat\xc3\xa8re'
p339
(dp340
S'kawah'
p341
F2.2926514841328536
sS'parker'
p342
F2.877365214889691
sS'vall\xc3\xa8s'
p343
F2.877365214889691
sS'reinhard'
p344
F2.877365214889691
sS'adrar'
p345
F2.868416811741781
sS'chahal\xc3\xa9'
p346
F2.868416811741781
sS'hverfjall'
p347
F2.877365214889691
sS'viti'
p348
F4.069186071303314
sS'stigmate'
p349
F2.877365214889691
sS'unzen-dake'
p350
F2.877365214889691
sS'nyiragongo'
p351
F2.7399706167414313
sS'gouttes;'
p352
F2.877365214889691
sS'nuova'
p353
F3.1249874311147967
sS'rang\xc3\xa9e'
p354
F2.868416811741781
sS'kelut'
p355
F3.1414868016142523
sS'm\xc3\xa9decin-explorateur'
p356
F2.877365214889691
sS'd\xc3\xa9coupe'
p357
F2.868416811741781
sS'ljotipollur'
p358
F2.868416811741781
sS'ros\xc3\xa9e'
p359
F2.868416811741781
sS'kelud'
p360
F3.5799158063601326
sS'aouelloul'
p361
F2.877365214889691
sS'enclos;'
p362
F2.877365214889691
sS'bromo'
p363
F3.090373013024235
sS'etang'
p364
F3.625648071103105
sS'commerson'
p365
F2.877365214889691
sS'carmichael'
p366
F2.877365214889691
sS'ngorongoro'
p367
F2.2501399151662844
sS'couvre-chef'
p368
F2.877365214889691
sS'fondeur'
p369
F2.868416811741781
sS'<#sv-9-6>'
p370
F2.877365214889691
ssS'volcan'
p371
(dp372
S'naissent-ils'
p373
F0.9607142124087573
sS'ribambelle'
p374
F0.9607142124087573
sS'perce'
p375
F0.9607142124087573
sS'hoggar'
p376
F0.9607142124087573
sS'liber-minerva'
p377
F0.9607142124087573
sS'bard\xc3\xa0rbunga'
p378
F0.9607142124087573
sS'sauvegarde'
p379
F1.7080046619719254
sS'pollueur'
p380
F0.9607142124087573
sS'<#glo-17-5>'
p381
F0.9607142124087573
sS'herdhubreidh'
p382
F0.9607142124087573
sS'galungung'
p383
F0.9607142124087573
sS'alcedo'
p384
F0.9607142124087573
sS'd\xc3\xa9stabilisation'
p385
F0.9607142124087573
sS'sajama'
p386
F0.9607142124087573
sS'l\xc3\xa9opard'
p387
F0.9607142124087573
sS'lascar'
p388
F0.9607142124087573
sS'rn'
p389
F0.9607142124087573
sS'casitas'
p390
F2.534392799810089
sS'<#sv-9-7>'
p391
F0.9607142124087573
sS'sommi\xc3\xa8res'
p392
F0.9607142124087573
sg106
F0.9607142124087573
sS'popocatepelt'
p393
F0.9607142124087573
sS'oldeani'
p394
F0.9607142124087573
sS'must'
p395
F0.9607142124087573
sS'licancabur'
p396
F0.9607142124087573
sS'nabuyata'
p397
F1.6638934735822102
sS'scientifiqes'
p398
F0.9607142124087573
sS'lieux-dits'
p399
F0.9607142124087573
sS'snaefellsj\xc3\xb6kull'
p400
F0.9607142124087573
sS'c\xc3\xa2pre'
p401
F0.9607142124087573
ssS'v\xc3\xa9sicule'
p402
(dp403
S'niveau'
p404
F4.670145362023669
ss.