(dp0
S'basalte'
p1
(dp2
S'parfum'
p3
F3.3756697498825177
sS'portugal'
p4
F2.9079648557000297
sS'p\xc3\xa9rennit\xc3\xa9'
p5
F5.395702480303562
sS'grotte'
p6
F2.1930087674479783
sS'phonolite'
p7
F4.0868292805039905
sS'gravier'
p8
F6.533681602148464
sS'arabesque'
p9
F6.680927473890907
sS'mat\xc3\xa9riau'
p10
F2.725957500183003
sS'nappage'
p11
F9.552376797218347
sS'lemptegy'
p12
F4.620010566992964
sS'clocher'
p13
F3.68721038811216
sS'm\xc3\xa9sostase'
p14
F5.394841564441321
sS'promontoire'
p15
F6.680927473890907
sS'arte'
p16
F4.085699840749131
sS'barre'
p17
F2.724400173975349
sS'ocre'
p18
F2.906476120643966
sS'and\xc3\xa9site'
p19
F1.9995124526972994
sS'affleurement'
p20
F3.3743403748560246
sS'noi'
p21
F9.552790950561146
sS'strate'
p22
F3.1195949293317886
sS'\xc3\xa9clatement'
p23
F6.681604868589469
sS'mesa'
p24
F9.552790950561146
sS'tuf'
p25
F2.191230981986543
sS'coirons'
p26
F5.395702480303562
sS'rhyolite'
p27
F4.112280504281388
sS'granule'
p28
F5.394841564441321
sS'antrim'
p29
F9.552790950561146
sS'colonne'
p30
F2.591397528091177
sS'coussin'
p31
F2.567840592182381
sS'couloir'
p32
F2.906476120643966
ssS't\xc3\xa9phra'
p33
(dp34
sS'gaz'
p35
(dp36
S'analyseur'
p37
F5.4234643104814255
sS'dissolution'
p38
F4.282488452960822
sS'indon\xc3\xa9sie;'
p39
F3.834968391464639
sS'masque'
p40
F5.616208259444467
sS'produits'
p41
F3.091403863283332
sS'effusiv'
p42
F3.834968391464639
sS'p\xc3\xa9trole'
p43
F5.926005368033643
sS'recharge'
p44
F2.5332236143167544
sS'd\xc3\xa9tendre'
p45
F3.8406855319885094
sS'jet'
p46
F2.350519050063318
sS'amasse'
p47
F3.8406855319885094
sS'<#mon-7-82>'
p48
F3.8406855319885094
sS'extraction'
p49
F1.9675974619702061
sS'\xc3\xa9chappement'
p50
F3.834968391464639
sS'pourvoyeur'
p51
F3.834968391464639
sS'\xc3\xa9manation'
p52
F3.0793503366357653
sS'saturation'
p53
F3.966778106546433
sS'd\xc3\xa9riv\xc3\xa9'
p54
F2.5332236143167544
sS'mini-lune'
p55
F2.542669498606622
sS'profondeu'
p56
F3.834968391464639
sS'richesse'
p57
F4.194818293200427
sS'[m\xc3\xa9thane'
p58
F3.834968391464639
sS'lib\xc3\xa9ration'
p59
F2.8599290475618573
sS'jc'
p60
F5.4234643104814255
sS'inhalation'
p61
F2.5332236143167544
sS'ampoule'
p62
F1.9347265052025922
sS'subalterne'
p63
F3.8406855319885094
sS'emissions'
p64
F3.834968391464639
sS'dange'
p65
F3.834968391464639
sS'exhalaison'
p66
F2.5332236143167544
ssS'fontaine'
p67
(dp68
S'feu'
p69
F0.5898555282972954
sS'\xc3\xa9bullition'
p70
F4.997314021645237
sS'vaucluse'
p71
F30.05244298366403
sS'photo'
p72
F0.710541933773641
sS'cameroun'
p73
F2.2864301739311297
sS'gouffre'
p74
F4.997226772658749
sS'fresque'
p75
F5.895683607504872
sS'surface'
p76
F-0.18003867388344455
sS'volcan'
p77
F-2.1217657397556877
sS'coul\xc3\xa9e'
p78
F1.2662784160690916
sS'magma'
p79
F-0.24085888391368293
sS'fonctionnement'
p80
F4.272036411817211
sS'soufri\xc3\xa8re'
p81
F1.4280326862525023
sS'exemple'
p82
F0.9250687454460378
sS'formation'
p83
F1.2131903137779987
sS'fin'
p84
F0.526004941804034
sS'hauteur'
p85
F1.5120352768370688
sS'villa'
p86
F4.997226772658749
ssS'lave'
p87
(dp88
S'grognement'
p89
F2.447699957165322
sS'lorque'
p90
F2.447699957165322
sS'gicl\xc3\xa9e'
p91
F2.447699957165322
sS'oreiller'
p92
F2.6426616333922626
sS'approximation'
p93
F2.447699957165322
sS'kazumura'
p94
F2.4659488189764502
sS'spatter-cone'
p95
F2.4659488189764502
sS'coul\xc3\xa9e'
p96
F14.550615708315355
sS'trachyand\xc3\xa9site'
p97
F2.447699957165322
sS'd\xc3\xa9clenche'
p98
F2.4659488189764502
sS'coulees'
p99
F2.447699957165322
sS'coul\xc3\x89e'
p100
F2.447699957165322
sS'associations'
p101
F2.447699957165322
sS'filet'
p102
F1.7689955173658993
sS'lobe'
p103
F1.6805696534719061
sS'trachy-andesite'
p104
F2.447699957165322
sS'bubon'
p105
F2.447699957165322
sS'fusion'
p106
F2.014147055164884
sS'carbonite'
p107
F2.447699957165322
sS'pratiquant'
p108
F2.4659488189764502
sS'fragmentation'
p109
F1.7689955173658993
sS'100\xc2\xb0c'
p110
F2.1112753850385872
sS'pinacle'
p111
F2.447699957165322
sS'carbonatites'
p112
F1.6893453383358579
sS'demi-\xc3\xa9chec'
p113
F2.4659488189764502
sS'legend\xc3\xa9e'
p114
F2.447699957165322
sS'deregle'
p115
F2.4659488189764502
sS'aiguille'
p116
F2.0130978193737845
sS'coussin'
p117
F3.9259382391224795
sS'chateau'
p118
F2.4659488189764502
ssS'cendre'
p119
(dp120
S'strie'
p121
F3.8805464899309343
sS'projection'
p122
F2.0453355833979985
sS'salve'
p123
F1.9521470741417801
sS'bariolure'
p124
F3.8860823304661225
sS'obstruction'
p125
F5.487921475479636
sS'carbonatite'
p126
F1.9521470741417801
sS'\xc2\xa1c'
p127
F2.214342807015952
sS'nicaraguayennes'
p128
F3.8805464899309343
sS'km\xc2\xb3'
p129
F2.5674214274985294
sS'lapillis'
p130
F3.1500816407224645
sS'ponce'
p131
F5.5614787668647
sS'bloc'
p132
F2.093471299692197
sS'pluie'
p133
F3.362259773778229
sS'cyclo-pousse'
p134
F3.8860823304661225
sS'nuage'
p135
F5.158418376436527
sS'volute'
p136
F2.977500783532988
sS'pilulier'
p137
F3.8805464899309343
sS'linceul'
p138
F2.7607528679982614
sS'panache'
p139
F7.4690571645314465
sS'lapillisqui'
p140
F3.8860823304661225
sS'chiapas'
p141
F2.5674214274985294
sS'matrice'
p142
F3.1359065063829723
sS'picon'
p143
F3.8805464899309343
sS'retomb\xc3\xa9e'
p144
F9.345390935813551
sS'18km'
p145
F2.5765668722379655
sS'lapilli'
p146
F1.8905211072409904
sS'chichonal'
p147
F2.5674214274985294
sS'chute'
p148
F3.354459863055339
sS'lac-crat\xc3\xa8re'
p149
F1.9638709821390883
sS'poids'
p150
F2.31896685106411
ssS'magma'
p151
(dp152
g54
F2.7963658631884822
sS'\xc3\xa9pimagma'
p153
F4.177012057592638
sS'goutte'
p154
F2.0525485849101144
sS'ascension'
p155
F4.889714821055683
sS'succ\xc3\xa9dan\xc3\xa9'
p156
F4.177012057592638
sS'viscosit\xc3\xa9'
p157
F4.035707363431768
sS'r\xc3\xa9servoir'
p158
F7.898252624686256
sS'j.-c.s'
p159
F2.1522230521583308
sS'roches'
p160
F2.7963658631884822
sS'provenance'
p161
F3.500276565717393
sS'apport'
p162
F2.717362115034263
sS'cheminee'
p163
F2.7963658631884822
sS'dispute'
p164
F2.1522230521583308
sS'transporteur'
p165
F4.697405966382892
sS'hypomagma'
p166
F4.177012057592638
sS'remont\xc3\xa9e'
p167
F5.330793201539698
sg56
F4.1815339918298084
sS'simili'
p168
F4.177012057592638
sS'ressort'
p169
F2.7963658631884822
sS'exsolution'
p170
F4.177012057592638
sS'probl\xc3\xa9matique'
p171
F2.1522230521583308
sS'injection'
p172
F6.050951320103888
sS'rhyolitique'
p173
F4.1815339918298084
sS'kimberlitique'
p174
F2.258087196172891
sS'pouss\xc3\xa9e'
p175
F2.5138483526507254
sS'\xc3\xa9volution'
p176
F2.498073875975451
sS'km3'
p177
F3.852751071967913
sS'micro-gouttelettes'
p178
F2.7888999336387976
sS'mont\xc3\xa9e'
p179
F8.695292576507432
sS'solidification'
p180
F4.05259545294836
ssS'scorie'
p181
(dp182
S'projection'
p183
F1.1257810244955997
sS'basalte'
p184
F0.7919932806540472
sS'tas'
p185
F5.499499098125205
sS'second'
p186
F1.0528555884959694
sS'bulle de gaz'
p187
F3.154342009915549
sS'moraine'
p188
F4.80561071110574
sS'surtsey'
p189
F2.5436181424261144
sS'\xc3\xa9mission'
p190
F0.6398293956830515
sS'santorin'
p191
F1.381729570268136
sS'bloc'
p192
F0.4156451001257397
sS'd\xc3\xa9sert'
p193
F1.8847379091263083
sS'nom'
p194
F0.3558494605299454
sS'vidange'
p195
F6.567063300956823
sS'fragment'
p196
F5.407030533763714
sS'barrage'
p197
F6.248331495000271
sS'amas'
p198
F4.103984665915398
sS'signaler'
p199
F2.4295385446864755
sS'sill'
p200
F8.554964492269386
sS'bombe'
p201
F2.00784392690222
sS'd\xc3\xa9truire'
p202
F0.5211317616580186
sS'arch\xc3\xa9ologue'
p203
F3.76424417894509
sS'cendres'
p204
F13.282803057800471
sS'c\xc3\xb4ne de cendre'
p205
F5.499499098125205
sS'monceau'
p206
F10.524573080357586
sS'c\xc3\xb4ne'
p207
F1.4617358741612965
sS'auvergne'
p208
F0.3057302789119223
sS'relief'
p209
F1.4213499657979136
sS'cendre'
p210
F1.512097980510109
sS'champ'
p211
F0.5094520963801528
sS'accumulation'
p212
F2.277214717595619
ssS'c\xc3\xb4ne'
p213
(dp214
S'crevasse'
p215
F1.2345756397083736
sS'puuoo'
p216
F1.8586588244345563
sS'fugendake'
p217
F4.170466764040007
sS'br\xc3\xa8che'
p218
F1.3024730935995246
sS'paricutin'
p219
F1.7449189029932595
sS'jardin'
p220
F1.0038273545710628
sS'arri\xc3\xa8re-plan'
p221
F1.8586588244345563
sS'km\xc2\xb2'
p222
F1.7413174626546937
sS'panorama'
p223
F2.1430735106993404
sS'ext\xc3\xa9rieur'
p224
F0.7787495091416743
sS'fjord'
p225
F2.786841810404995
sS'tolbachik'
p226
F2.7894291724899074
sS'croissance'
p227
F0.7397006349682921
sS'multitude'
p228
F1.7413174626546937
sS'beaut\xc3\xa9'
p229
F0.5661460330790293
sS'fuji-san'
p230
F7.4882069247602
sS'strato-volcans'
p231
F2.3198737467098782
sS'scorie'
p232
F1.4617358741612965
sS'ruapehu'
p233
F1.3797260672000695
sS'\xc3\xa9dification'
p234
F2.1430735106993404
sS'formation'
p235
F0.5230785634493825
sS'argile'
p236
F1.3797260672000695
sS'\xc3\xa9difier'
p237
F0.5983245287781579
sS'somma'
p238
F3.1120313865457
sS'phl\xc3\xa9gr\xc3\xa9ens'
p239
F2.5300817587311575
sS'caillou'
p240
F1.6362899554126318
sS'vi.19'
p241
F7.4882069247602
sS'bouchon'
p242
F1.238847980542243
sS'portion'
p243
F1.6362899554126318
sS'succession'
p244
F1.0038273545710628
ssS'd\xc3\xb4me'
p245
(dp246
S'am\xc3\xa9riques'
p247
F3.1728545061004683
sS'sarcoui'
p248
F3.1756572743440183
sS'\xc3\xa9croulement'
p249
F4.48709387396387
sS'chapelle'
p250
F2.7726596886401014
sS'cure'
p251
F3.747905346518572
sS'suc'
p252
F3.7502901017294406
sS'hugendake'
p253
F4.693361829255605
sS'chaine'
p254
F4.693361829255605
sS'lake'
p255
F2.233070272972415
sS'haute-loire'
p256
F2.23682773542565
sS'chopine'
p257
F3.1728545061004683
sS'touareg'
p258
F6.783269421985742
sS'\xc3\xa9rection'
p259
F3.1728545061004683
sS'rep\xc3\xa9rage'
p260
F4.693361829255605
sS'\xc3\xa9corce-cro\xc3\xbbte'
p261
F6.784405279704153
sS'coupole'
p262
F2.0372789816902013
sS'465m'
p263
F6.784405279704153
sS'ota'
p264
F3.747905346518572
sS'croissance'
p265
F4.46614054594483
sS'sur\xc3\xa9l\xc3\xa9vation'
p266
F6.783269421985742
sS'pariou;'
p267
F6.783269421985742
sS'puy'
p268
F2.8812586114399577
sS'puy-de'
p269
F6.783269421985742
sS'santiaguito'
p270
F3.1756572743440183
sS'jos\xc3\xa9'
p271
F3.1756572743440183
sS'koryaksky'
p272
F6.784405279704153
sS'corresp'
p273
F3.7502901017294406
sS'ranch'
p274
F6.783269421985742
sS'aiguille'
p275
F3.105159726776982
sS'surrection'
p276
F6.783269421985742
ssS'\xc3\xa9ruption'
p277
(dp278
S'stromboli;'
p279
F2.057389012737097
sS'citerne'
p280
F2.057389012737097
sg42
F2.084762533530264
sS'fr\xc3\xa9gate'
p281
F2.084762533530264
sS'tremble'
p282
F2.084762533530264
sS'laviques'
p283
F2.084762533530264
sS'observant'
p284
F2.057389012737097
sS'<#mon-7-185>'
p285
F2.084762533530264
sS'flash'
p286
F2.084762533530264
sS':apr\xc3\xa8s'
p287
F2.057389012737097
sS'gros|grosse'
p288
F2.057389012737097
sS'face-\xc3\xa0-face'
p289
F2.084762533530264
sS'<#geo-15-9>'
p290
F2.084762533530264
sS'achavinsky'
p291
F2.084762533530264
sS'ometepe'
p292
F2.084762533530264
sS'hawa\xc3\xafenne'
p293
F2.084762533530264
sS'sheveluch'
p294
F2.084762533530264
sS'minuit;'
p295
F2.057389012737097
sS'<#geo-15-14>'
p296
F2.084762533530264
sS'<#kra-4-37>'
p297
F2.057389012737097
sS'pr\xc3\xa9diction'
p298
F2.612498158624205
sS'sinila'
p299
F2.084762533530264
sS'hale-bopp'
p300
F2.057389012737097
sS'elf-norge'
p301
F2.084762533530264
sS'<#mon-7-23>'
p302
F2.084762533530264
sS'globalit\xc3\xa9'
p303
F2.084762533530264
sS'titus'
p304
F2.057389012737097
sS'associ\xc3\x89es'
p305
F2.084762533530264
sS'remake'
p306
F2.057389012737097
sS'nulla'
p307
F2.084762533530264
ssS'd\xc3\xa9bris'
p308
(dp309
S'singapour'
p310
F6.367966860845406
sS'point'
p311
F-0.86135835823904
sS'taille'
p312
F1.9437486394238432
sS'surface'
p313
F-1.0964007206793622
sS'd\xc3\xa9sagr\xc3\xa9ger'
p314
F7.397489043021853
sS'avalanche'
p315
F2.9106080578131084
sS'volcan'
p316
F-3.6311040894128443
sS'poussi\xc3\xa8re'
p317
F0.5998282126297859
sS'jusqu'
p318
F-0.8102351547365493
sS'lave'
p319
F-2.3110736517288095
sS'effet'
p320
F-0.634525703318561
sS'cristaux'
p321
F0.9979154559657935
sS'roche'
p322
F5.10324146177861
sS'\xc3\xa9peron'
p323
F6.368359664397695
sS'juin'
p324
F-0.17013053919982007
sS'bloc'
p325
F0.12548167440855032
sS'couvrir'
p326
F0.8548169297742818
sS'abri'
p327
F2.0080360355799547
sS'atlantide'
p328
F1.6088778564091242
sS'explosion'
p329
F-0.6889493003972346
sS'gaz'
p330
F-1.3122921529781983
sS'dalle'
p331
F2.4946031394479227
sS'terre'
p332
F-1.5753856845105694
sS'produit'
p333
F0.7563835605523384
sS'flot'
p334
F1.4285961933448126
sS'coul\xc3\xa9e'
p335
F-1.3122921529781983
sS'plante'
p336
F1.7503611618858896
sS'cendre'
p337
F0.8998734315249225
sS'b\xc3\xa9ton'
p338
F3.340375564850877
ssS'crat\xc3\xa8re'
p339
(dp340
S'kawah'
p341
F2.46963098479442
sS'vall\xc3\xa8s'
p342
F3.6519909639766563
sS'reinhard'
p343
F3.6519909639766563
sS'adrar'
p344
F3.645431494992931
sS'chahal\xc3\xa9'
p345
F3.645431494992931
sS'hverfjall'
p346
F3.6519909639766563
sS'viti'
p347
F5.164676509898532
sS'stigmate'
p348
F3.6519909639766563
sS'unzen-dake'
p349
F3.6519909639766563
sS'bord'
p350
F3.26235510299838
sS'nyiragongo'
p351
F3.942723416917475
sS'gouttes;'
p352
F3.6519909639766563
sS'nuova'
p353
F4.05655395770422
sS'rang\xc3\xa9e'
p354
F3.645431494992931
sS'm\xc3\xa9decin-explorateur'
p355
F3.6519909639766563
sS'd\xc3\xa9coupe'
p356
F3.645431494992931
sS'puuoo'
p357
F2.6856457655638275
sS'ljotipollur'
p358
F3.645431494992931
sS'ros\xc3\xa9e'
p359
F3.645431494992931
sS'kelud'
p360
F4.6706534321323
sS'aouelloul'
p361
F3.6519909639766563
sS'enclos;'
p362
F3.6519909639766563
sS'bromo'
p363
F4.263994820032499
sS'etang'
p364
F4.802529396270071
sS'commerson'
p365
F3.6519909639766563
sS'carmichael'
p366
F3.6519909639766563
sS'ngorongoro'
p367
F3.1398637899279422
sS'couvre-chef'
p368
F3.6519909639766563
sS'fondeur'
p369
F3.645431494992931
sS'<#sv-9-6>'
p370
F3.6519909639766563
ssS'volcan'
p371
(dp372
S'ribambelle'
p373
F1.4334403028110603
sS'perce'
p374
F1.4334403028110603
sS'hoggar'
p375
F1.4334403028110603
sS'liber-minerva'
p376
F1.4334403028110603
sS'bard\xc3\xa0rbunga'
p377
F1.4334403028110603
sS'sauvegarde'
p378
F2.883706228725073
sS'<#glo-17-5>'
p379
F1.4334403028110603
sS'herdhubreidh'
p380
F1.4334403028110603
sS'galungung'
p381
F1.4334403028110603
sS'coseguina'
p382
F1.4334403028110603
sS'alcedo'
p383
F1.4334403028110603
sS'd\xc3\xa9stabilisation'
p384
F1.4334403028110603
sS'sajama'
p385
F1.4334403028110603
sS'l\xc3\xa9opard'
p386
F1.4334403028110603
sS'lascar'
p387
F1.4334403028110603
sS'rn'
p388
F1.4334403028110603
sS'casitas'
p389
F3.9164678341068795
sS'<#sv-9-7>'
p390
F1.4334403028110603
sS'sommi\xc3\xa8res'
p391
F1.4334403028110603
sg104
F1.4334403028110603
sS'certains'
p392
F1.7577493929565806
sS'popocatepelt'
p393
F1.4334403028110603
sS'must'
p394
F1.4334403028110603
sS'licancabur'
p395
F1.4334403028110603
sS'nabuyata'
p396
F2.482699709498081
sS'scientifiqes'
p397
F1.4334403028110603
sS'agung'
p398
F2.2259641862496724
sS'lieux-dits'
p399
F1.4334403028110603
sS'snaefellsj\xc3\xb6kull'
p400
F1.4334403028110603
sS'c\xc3\xa2pre'
p401
F1.4334403028110603
ssS'v\xc3\xa9sicule'
p402
(dp403
S'niveau'
p404
F5.803483598608109
ss.