(lp0
(((S'VVZ'
p1
S'effuse'
p2
tp3
(S'NNS'
p4
S'fountain'
p5
tp6
tp7
F10.86830090578715
tp8
a(((S'NNS'
p9
S'gas'
p10
tp11
(S'VVP'
p12
S'exsolve'
p13
tp14
tp15
F3.7227328148138463
tp16
a(((S'NN'
p17
S'gas'
p18
tp19
g3
tp20
F3.670425085698912
tp21
a(((S'NN'
p22
S'tephra'
p23
tp24
(S'VVP'
p25
S'accumulate'
p26
tp27
tp28
F3.402026945324929
tp29
a(((S'NN'
p30
S'scoria'
p31
tp32
(S'VVZ'
p33
S'refer'
p34
tp35
tp36
F2.3833962735820498
tp37
a(((S'VVZ'
p38
S'suppress'
p39
tp40
(S'NN'
p41
S'gas'
p42
tp43
tp44
F2.2327591566931146
tp45
a(((S'NNS'
p46
S'fountain'
p47
tp48
(S'VVP'
p49
S'spray'
p50
tp51
tp52
F1.835952643921167
tp53
a(((S'VVZ'
p54
S'spray'
p55
tp56
(S'NN'
p57
S'fountain'
p58
tp59
tp60
F1.8330290917388192
tp61
a(((S'NN'
p62
S'dome'
p63
tp64
(S'VVZ'
p65
S'sidle'
p66
tp67
tp68
F1.8029565612578402
tp69
a(((S'NN'
p70
S'cinder'
p71
tp72
g35
tp73
F1.6500670970299687
tp74
a(((S'NN'
p75
S'tephra'
p76
tp77
(S'VVZ'
p78
S'accumulate'
p79
tp80
tp81
F1.5971902204369606
tp82
a(((S'VVP'
p83
S'rework'
p84
tp85
(S'NN'
p86
S'debris'
p87
tp88
tp89
F1.5834980915890617
tp90
a(((S'VVZ'
p91
S'gets.'
p92
tp93
(S'NN'
p94
S'gas'
p95
tp96
tp97
F1.5787991404540587
tp98
a(((S'NN'
p99
S'magma'
p100
tp101
g40
tp102
F1.5295749355811323
tp103
a(((S'VVP'
p104
S'exsolve'
p105
tp106
(S'NNS'
p107
S'magma'
p108
tp109
tp110
F1.4867112151840545
tp111
a(((S'NN'
p112
S'dome'
p113
tp114
(S'VVZ'
p115
S'enlarge'
p116
tp117
tp118
F1.3577896429124916
tp119
a(((S'VVP'
p120
S'contain'
p121
tp122
(S'NNS'
p123
S'vesicle'
p124
tp125
tp126
F1.3428884072128717
tp127
a(((S'VVZ'
p128
S'contain'
p129
tp130
(S'NNS'
p131
S'vesicle'
p132
tp133
tp134
F1.3428884072128717
tp135
a(((S'VVP'
p136
S'spout'
p137
tp138
(S'NNS'
p139
S'fountain'
p140
tp141
tp142
F1.2961473008807372
tp143
a(((S'NN'
p144
S'debris'
p145
tp146
(S'VVZ'
p147
S'steepen'
p148
tp149
tp150
F1.2364942676040527
tp151
a(((S'NNS'
p152
S'vesicle'
p153
tp154
(S'VVP'
p155
S'tend'
p156
tp157
tp158
F1.0816387688628586
tp159
a(((S'NN'
p160
S'magma'
p161
tp162
(S'VVZ'
p163
S'relinquish'
p164
tp165
tp166
F1.0816015672402148
tp167
a(((S'VVP'
p168
S'goes--just'
p169
tp170
(S'NN'
p171
S'magma'
p172
tp173
tp174
F1.0512635819227374
tp175
a(((S'NNS'
p176
S'fountain'
p177
tp178
(S'VVP'
p179
S'spurt'
p180
tp181
tp182
F0.967585750302017
tp183
a(((S'NN'
p184
S'debris'
p185
tp186
(S'VVP'
p187
S'clown'
p188
tp189
tp190
F0.7819218699666635
tp191
a(((S'VVZ'
p192
S'flare'
p193
tp194
(S'NN'
p195
S'crater'
p196
tp197
tp198
F0.7752735590397415
tp199
a(((S'NN'
p200
S'magma'
p201
tp202
(S'VVZ'
p203
S'exert'
p204
tp205
tp206
F0.6413754113460365
tp207
a(((S'VVZ'
p208
S'tear'
p209
tp210
(S'JJ'
p211
S'volcan'
p212
tp213
tp214
F0.5728928407014702
tp215
a(((S'VVZ'
p216
S'describe'
p217
tp218
(S'NN'
p219
S'tephra'
p220
tp221
tp222
F0.5222655820066827
tp223
a(((S'NN'
p224
S'dome'
p225
tp226
(S'VVP'
p227
S'differ'
p228
tp229
tp230
F0.5214256052278781
tp231
a(((S'NNS'
p232
S'cone'
p233
tp234
(S'VVZ'
p235
S'encircle'
p236
tp237
tp238
F0.39004800953531993
tp239
a(((S'NN'
p240
S'gas'
p241
tp242
(S'VVP'
p243
S'originated'
p244
tp245
tp246
F0.3642003191580489
tp247
a(((S'NN'
p248
S'gas'
p249
tp250
(S'VVZ'
p251
S'dissipate'
p252
tp253
tp254
F0.3642003191580489
tp255
a(((S'NNS'
p256
S'gas'
p257
tp258
(S'VVP'
p259
S'corrode'
p260
tp261
tp262
F0.3642003191580489
tp263
a(((S'VVZ'
p264
S'conquer'
p265
tp266
(S'NN'
p267
S'crater'
p268
tp269
tp270
F0.34678050237027447
tp271
a(((S'VVP'
p272
S'originated'
p273
tp274
(S'NNS'
p275
S'gas'
p276
tp277
tp278
F0.3359176922292423
tp279
a(((S'VVZ'
p280
S'specialise'
p281
tp282
(S'NN'
p283
S'gas'
p284
tp285
tp286
F0.3359176922292423
tp287
a(((S'NN'
p288
S'lava'
p289
tp290
(S'VVZ'
p291
S'whichattracts'
p292
tp293
tp294
F0.28988536017020183
tp295
a(((S'VVP'
p296
S'strengthen'
p297
tp298
(S'NN'
p299
S'cone'
p300
tp301
tp302
F0.24270449256254772
tp303
a(((S'NNS'
p304
S'fountain'
p305
tp306
(S'VVZ'
p307
S'pose'
p308
tp309
tp310
F0.14411939714271738
tp311
a(((S'NN'
p312
S'basalt'
p313
tp314
(S'VVP'
p315
S'accumulate'
p316
tp317
tp318
F0.11877988208600122
tp319
a(((S'NN'
p320
S'cinder'
p321
tp322
(S'VVZ'
p323
S'sit'
p324
tp325
tp326
F0.11712287337768498
tp327
a(((S'VVP'
p328
S'switch'
p329
tp330
(S'NN'
p331
S'dome'
p332
tp333
tp334
F0.10242889800541595
tp335
a(((S'NN'
p336
S'gas'
p337
tp338
(S'VVZ'
p339
S'bite'
p340
tp341
tp342
F0.07448506294593847
tp343
a(((S'NNS'
p344
S'gas'
p345
tp346
(S'VVP'
p347
S'fizz'
p348
tp349
tp350
F0.07448506294593847
tp351
a(((S'VVZ'
p352
S'nestle'
p353
tp354
(S'NN'
p355
S'crater'
p356
tp357
tp358
F0.052440258307944417
tp359
a(((S'NN'
p360
S'eruption'
p361
tp362
(S'VVP'
p363
S'notify'
p364
tp365
tp366
F0.02942789907102604
tp367
a(((S'NN'
p368
S'eruption'
p369
tp370
(S'VVZ'
p371
S'fast-forwards'
p372
tp373
tp374
F0.02942789907102604
tp375
a(((S'NNS'
p376
S'eruption'
p377
tp378
(S'VVP'
p379
S'repel'
p380
tp381
tp382
F0.02942789907102604
tp383
a(((S'NNS'
p384
S'gas'
p385
tp386
(S'VVZ'
p387
S'diminish'
p388
tp389
tp390
F-0.06162659364934101
tp391
a(((S'NN'
p392
S'gas'
p393
tp394
(S'VVZ'
p395
S'overwhelm'
p396
tp397
tp398
F-0.06162659364934101
tp399
a(((S'NNS'
p400
S'magma'
p401
tp402
(S'VVP'
p403
S'impede'
p404
tp405
tp406
F-0.0639386150198581
tp407
a(((S'NN'
p408
S'magma'
p409
tp410
(S'VVZ'
p411
S'disintegrate'
p412
tp413
tp414
F-0.0639386150198581
tp415
a((g389
(S'NNS'
p416
S'gas'
p417
tp418
tp419
F-0.1106019751076409
tp420
a(((S'NN'
p421
S'scoria'
p422
tp423
(S'VVP'
p424
S'appear'
p425
tp426
tp427
F-0.1122643622830339
tp428
a(((S'VVZ'
p429
S'omit'
p430
tp431
(S'NN'
p432
S'magma'
p433
tp434
tp435
F-0.11916104728566598
tp436
a(((g251
g252
tp437
(S'NN'
p438
S'magma'
p439
tp440
tp441
F-0.11916104728566598
tp442
a(((S'VVZ'
p443
S'do.'
p444
tp445
(S'NN'
p446
S'eruption'
p447
tp448
tp449
F-0.13092394298514806
tp450
a(((S'NNS'
p451
S'cone'
p452
tp453
(S'VVP'
p454
S'comprise'
p455
tp456
tp457
F-0.15187511758557845
tp458
a(((S'VVZ'
p459
S'honor'
p460
tp461
(S'NN'
p462
S'crater'
p463
tp464
tp465
F-0.17480703622653337
tp466
a(((S'NN'
p467
S'dome'
p468
tp469
(S'VVZ'
p470
S'seal'
p471
tp472
tp473
F-0.253217548507586
tp474
a(((S'NN'
p475
S'cinder'
p476
tp477
(g128
g129
tp478
tp479
F-0.2734505697929041
tp480
a(((S'NN'
p481
S'magma'
p482
tp483
(S'VVZ'
p484
S'clog'
p485
tp486
tp487
F-0.3093412390478667
tp488
a(((S'NN'
p489
S'magma'
p490
tp491
(S'VVZ'
p492
S'toss'
p493
tp494
tp495
F-0.3093412390478667
tp496
a(((S'NN'
p497
S'crater'
p498
tp499
(S'VVP'
p500
S'bathe'
p501
tp502
tp503
F-0.3222842588872297
tp504
a(((S'VVZ'
p505
S'yield'
p506
tp507
(S'NN'
p508
S'dome'
p509
tp510
tp511
F-0.3443047181255843
tp512
a(((S'VVZ'
p513
S'beat'
p514
tp515
(S'NN'
p516
S'crater'
p517
tp518
tp519
F-0.36196981478438717
tp520
a(((S'VVZ'
p521
S'examine'
p522
tp523
(S'NN'
p524
S'basalt'
p525
tp526
tp527
F-0.36686729334680024
tp528
a(((S'VVZ'
p529
S'spill'
p530
tp531
(S'NN'
p532
S'basalt'
p533
tp534
tp535
F-0.40272976933370863
tp536
a(((S'VVZ'
p537
S'empty'
p538
tp539
(S'NN'
p540
S'magma'
p541
tp542
tp543
F-0.403378048643259
tp544
a(((S'NN'
p545
S'lava'
p546
tp547
(S'VVZ'
p548
S'adhere'
p549
tp550
tp551
F-0.4071018488948829
tp552
a(((S'NN'
p553
S'lava'
p554
tp555
(S'VVZ'
p556
S'volatilize'
p557
tp558
tp559
F-0.4071018488948829
tp560
a(((S'VVZ'
p561
S'drive'
p562
tp563
(S'NN'
p564
S'volcan'
p565
tp566
tp567
F-0.4102720612400903
tp568
a(((S'NN'
p569
S'cone'
p570
tp571
(S'VVZ'
p572
S'loom'
p573
tp574
tp575
F-0.44327937867535605
tp576
a(((S'NNS'
p577
S'cinder'
p578
tp579
(S'VVZ'
p580
S'flood'
p581
tp582
tp583
F-0.4577253050812212
tp584
a(((S'NN'
p585
S'dome'
p586
tp587
(S'VVZ'
p588
S'loom'
p589
tp590
tp591
F-0.464503784693093
tp592
a(((S'VVZ'
p593
S'intrude'
p594
tp595
(S'NP'
p596
S'dome'
p597
tp598
tp599
F-0.4816232715581241
tp600
a(((S'NN'
p601
S'gas'
p602
tp603
(S'VVZ'
p604
S'clog'
p605
tp606
tp607
F-0.49015906630144135
tp608
a(((S'NNS'
p609
S'cone'
p610
tp611
(S'VVP'
p612
S'represent'
p613
tp614
tp615
F-0.49254052143546817
tp616
a(((g315
g316
tp617
(S'NN'
p618
S'debris'
p619
tp620
tp621
F-0.4950174863344128
tp622
a(((S'VVZ'
p623
S'yell'
p624
tp625
(S'NN'
p626
S'crater'
p627
tp628
tp629
F-0.52249894965333
tp630
a(((S'VVZ'
p631
S'roam'
p632
tp633
(S'NN'
p634
S'crater'
p635
tp636
tp637
F-0.52249894965333
tp638
a(((S'VVZ'
p639
S'shoe'
p640
tp641
(S'NP'
p642
S'crater'
p643
tp644
tp645
F-0.52249894965333
tp646
a(((S'NNS'
p647
S'fountain'
p648
tp649
(S'VVP'
p650
S'shoot'
p651
tp652
tp653
F-0.5422766353752267
tp654
a(((S'VVP'
p655
S'lave'
p656
tp657
(S'NN'
p658
S'lava'
p659
tp660
tp661
F-0.5576770362358064
tp662
a(((S'VVZ'
p663
S'undermine'
p664
tp665
(S'NN'
p666
S'lava'
p667
tp668
tp669
F-0.5576770362358064
tp670
a(((S'VVZ'
p671
S'wrinkle'
p672
tp673
(S'NN'
p674
S'lava'
p675
tp676
tp677
F-0.5576770362358064
tp678
a(((S'NNS'
p679
S'crater'
p680
tp681
(S'VVP'
p682
S'emanate'
p683
tp684
tp685
F-0.6181953483934498
tp686
a(((S'VVP'
p687
S'solidify'
p688
tp689
(S'NNS'
p690
S'cinder'
p691
tp692
tp693
F-0.6312759771907689
tp694
a(((S'NN'
p695
S'tephra'
p696
tp697
g309
tp698
F-0.6432468979144278
tp699
a(((S'VVP'
p700
S'envision'
p701
tp702
(S'NN'
p703
S'magma'
p704
tp705
tp706
F-0.6547428669514392
tp707
a(((S'VVP'
p708
S'suspect'
p709
tp710
(S'NN'
p711
S'dome'
p712
tp713
tp714
F-0.661595351285015
tp715
a(((S'VVP'
p716
S'emanate'
p717
tp718
(S'NN'
p719
S'crater'
p720
tp721
tp722
F-0.6640309722695764
tp723
a(((S'NNS'
p724
S'eruption'
p725
tp726
(S'VVZ'
p727
S'elude'
p728
tp729
tp730
F-0.6760546226382638
tp731
a(((S'NNS'
p732
S'eruption'
p733
tp734
(S'VVP'
p735
S'foul'
p736
tp737
tp738
F-0.6760546226382638
tp739
a(((S'NN'
p740
S'dome'
p741
tp742
(S'VVZ'
p743
S'resume'
p744
tp745
tp746
F-0.6973125527501468
tp747
a(((S'VVZ'
p748
S'insulate'
p749
tp750
(S'NN'
p751
S'lava'
p752
tp753
tp754
F-0.7038877460868348
tp755
a(((S'NNS'
p756
S'crater'
p757
tp758
(S'VVZ'
p759
S'imply'
p760
tp761
tp762
F-0.742711404842045
tp763
a(((S'NN'
p764
S'dome'
p765
tp766
(S'VVZ'
p767
S'shear'
p768
tp769
tp770
F-0.7492878015950732
tp771
a((g397
(S'NN'
p772
S'magma'
p773
tp774
tp775
F-0.766423610506908
tp776
a(((S'VVZ'
p777
S'reside'
p778
tp779
(S'NN'
p780
S'crater'
p781
tp782
tp783
F-0.7913080487341804
tp784
a(((S'NNS'
p785
S'gas'
p786
tp787
(S'VVP'
p788
S'react'
p789
tp790
tp791
F-0.7948171695308008
tp792
a((g122
(S'NNS'
p793
S'cinder'
p794
tp795
tp796
F-0.7995470256056227
tp797
a(((S'NNS'
p798
S'cinder'
p799
tp800
(g120
g121
tp801
tp802
F-0.8094022156888451
tp803
a(((S'NN'
p804
S'basalt'
p805
tp806
(S'VVZ'
p807
S'ooze'
p808
tp809
tp810
F-0.8335509921559832
tp811
a(((S'NNS'
p812
S'gas'
p813
tp814
(S'VVZ'
p815
S'wane'
p816
tp817
tp818
F-0.867433952751121
tp819
a(((S'NN'
p820
S'cone'
p821
tp822
(S'VVZ'
p823
S'float'
p824
tp825
tp826
F-0.8713198184785457
tp827
a(((S'VVP'
p828
S'hover'
p829
tp830
(S'VVZ'
p831
S'crater'
p832
tp833
tp834
F-0.9074741016300975
tp835
a(((S'VVP'
p836
S'qualify'
p837
tp838
(S'NNS'
p839
S'eruption'
p840
tp841
tp842
F-0.9122500231608112
tp843
a(((S'VVZ'
p844
S'aliv'
p845
tp846
(S'NN'
p847
S'eruption'
p848
tp849
tp850
F-0.9122500231608112
tp851
a(((S'VVZ'
p852
S'squeeze'
p853
tp854
(S'NN'
p855
S'dome'
p856
tp857
tp858
F-0.9143504839848876
tp859
a(((S'VVP'
p860
S'end'
p861
tp862
(S'NN'
p863
S'volcan'
p864
tp865
tp866
F-0.9149566550434082
tp867
a(((S'NN'
p868
S'magma'
p869
tp870
(S'VVZ'
p871
S'initiate'
p872
tp873
tp874
F-0.9434479340490336
tp875
a(((S'NN'
p876
S'magma'
p877
tp878
(S'VVP'
p879
S'interact'
p880
tp881
tp882
F-0.9434479340490336
tp883
a(((g489
g490
tp884
(S'VVZ'
p885
S'churn'
p886
tp887
tp888
F-0.9493192698326701
tp889
a(((S'NN'
p890
S'basalt'
p891
tp892
(S'VVP'
p893
S'consist'
p894
tp895
tp896
F-0.9519084537103331
tp897
a(((S'VVZ'
p898
S'vary'
p899
tp900
(S'NN'
p901
S'basalt'
p902
tp903
tp904
F-0.9823115855987178
tp905
a(((S'NN'
p906
S'crater'
p907
tp908
(S'VVZ'
p909
S'exceed'
p910
tp911
tp912
F-0.9954785038389814
tp913
a(((S'VVP'
p914
S'hook'
p915
tp916
(S'NN'
p917
S'lava'
p918
tp919
tp920
F-1.0189729386827284
tp921
a(((S'VVP'
p922
S'denote'
p923
tp924
(S'NN'
p925
S'lava'
p926
tp927
tp928
F-1.0189729386827284
tp929
a(((S'NN'
p930
S'basalt'
p931
tp932
(S'VVZ'
p933
S'enter'
p934
tp935
tp936
F-1.056341602657963
tp937
a(((S'NNS'
p938
S'basalt'
p939
tp940
g935
tp941
F-1.056341602657963
tp942
a(((S'VVZ'
p943
S'wear'
p944
tp945
(S'NN'
p946
S'cone'
p947
tp948
tp949
F-1.0636279454344721
tp950
a(((S'NN'
p951
S'gas'
p952
tp953
(S'VVZ'
p954
S'leak'
p955
tp956
tp957
F-1.070249170362358
tp958
a(((S'VVP'
p959
S'arise'
p960
tp961
(S'NN'
p962
S'magma'
p963
tp964
tp965
F-1.072453963429551
tp966
a(((S'NN'
p967
S'cone'
p968
tp969
(S'VVZ'
p970
S'disappear'
p971
tp972
tp973
F-1.0824592857063204
tp974
a(((S'NN'
p975
S'magma'
p976
tp977
(S'VVZ'
p978
S'equal'
p979
tp980
tp981
F-1.0934057542475115
tp982
a(((S'NNS'
p983
S'eruption'
p984
tp985
(S'VVP'
p986
S'invade'
p987
tp988
tp989
F-1.1210376987203663
tp990
a(((S'VVP'
p991
S'lift'
p992
tp993
(S'NN'
p994
S'dome'
p995
tp996
tp997
F-1.1280882697412054
tp998
a(((S'NNS'
p999
S'dome'
p1000
tp1001
(S'VVP'
p1002
S'cave'
p1003
tp1004
tp1005
F-1.1325566464653372
tp1006
a(((S'NN'
p1007
S'tephra'
p1008
tp1009
(S'VVZ'
p1010
S'mean'
p1011
tp1012
tp1013
F-1.136022269696605
tp1014
a(((S'NN'
p1015
S'cinder'
p1016
tp1017
(S'VVP'
p1018
S'break'
p1019
tp1020
tp1021
F-1.1375257917914854
tp1022
a(((S'NN'
p1023
S'debris'
p1024
tp1025
(S'VVZ'
p1026
S'roll'
p1027
tp1028
tp1029
F-1.1391560550296547
tp1030
a(((S'NP'
p1031
S'crater'
p1032
tp1033
(S'VVP'
p1034
S'overlook'
p1035
tp1036
tp1037
F-1.1501854105476967
tp1038
a(((S'NN'
p1039
S'volcan'
p1040
tp1041
(S'VVP'
p1042
S'continue'
p1043
tp1044
tp1045
F-1.1516707348040733
tp1046
a(((S'NN'
p1047
S'lava'
p1048
tp1049
(S'VVZ'
p1050
S'favor'
p1051
tp1052
tp1053
F-1.1536041233773944
tp1054
a(((S'NN'
p1055
S'lava'
p1056
tp1057
(S'VVP'
p1058
S'furnish'
p1059
tp1060
tp1061
F-1.1536041233773944
tp1062
a(((S'NNS'
p1063
S'cone'
p1064
tp1065
(S'VVP'
p1066
S'dot'
p1067
tp1068
tp1069
F-1.1591170607398902
tp1070
a(((S'NN'
p1071
S'gas'
p1072
tp1073
(S'VVP'
p1074
S'consume'
p1075
tp1076
tp1077
F-1.1620176449185269
tp1078
a(((S'VVZ'
p1079
S'reckon'
p1080
tp1081
(S'NN'
p1082
S'magma'
p1083
tp1084
tp1085
F-1.1845928021723813
tp1086
a(((S'NP'
p1087
S'crater'
p1088
tp1089
(S'VVZ'
p1090
S'occupy'
p1091
tp1092
tp1093
F-1.2119983151748592
tp1094
a(((S'NNS'
p1095
S'basalt'
p1096
tp1097
(S'VVZ'
p1098
S'describe'
p1099
tp1100
tp1101
F-1.2181510263440432
tp1102
a(((S'NN'
p1103
S'lava'
p1104
tp1105
(S'VVP'
p1106
S'insulate'
p1107
tp1108
tp1109
F-1.2234140567647287
tp1110
a(((S'NN'
p1111
S'magma'
p1112
tp1113
(S'VVZ'
p1114
S'incorporate'
p1115
tp1116
tp1117
F-1.2297219967194248
tp1118
a(((S'VVP'
p1119
S'gush'
p1120
tp1121
(S'NN'
p1122
S'lava'
p1123
tp1124
tp1125
F-1.2470037625138766
tp1126
a(((S'VVZ'
p1127
S'state'
p1128
tp1129
(S'NNS'
p1130
S'fountain'
p1131
tp1132
tp1133
F-1.2505266951361846
tp1134
a(((S'NN'
p1135
S'cone'
p1136
tp1137
(S'VVZ'
p1138
S'consist'
p1139
tp1140
tp1141
F-1.2667616558982706
tp1142
a(((S'NNS'
p1143
S'eruption'
p1144
tp1145
(S'VVZ'
p1146
S'warrant'
p1147
tp1148
tp1149
F-1.296181801372331
tp1150
a(((S'VVP'
p1151
S'emit'
p1152
tp1153
(S'NN'
p1154
S'debris'
p1155
tp1156
tp1157
F-1.3010118365973435
tp1158
a(((S'VVZ'
p1159
S'brave'
p1160
tp1161
(S'NN'
p1162
S'gas'
p1163
tp1164
tp1165
F-1.3099871127052212
tp1166
a(((S'VVP'
p1167
S'discharge'
p1168
tp1169
(S'NNS'
p1170
S'gas'
p1171
tp1172
tp1173
F-1.3099871127052212
tp1174
a(((S'VVZ'
p1175
S'consist'
p1176
tp1177
(S'NN'
p1178
S'dome'
p1179
tp1180
tp1181
F-1.3254114177853797
tp1182
a(((S'VVZ'
p1183
S'imply'
p1184
tp1185
g977
tp1186
F-1.326454232831925
tp1187
a(((S'VVP'
p1188
S'reside'
p1189
tp1190
(S'NN'
p1191
S'magma'
p1192
tp1193
tp1194
F-1.326454232831925
tp1195
a(((S'NN'
p1196
S'magma'
p1197
tp1198
(S'VVZ'
p1199
S'inflate'
p1200
tp1201
tp1202
F-1.3349910631331612
tp1203
a(((S'NN'
p1204
S'magma'
p1205
tp1206
(S'VVZ'
p1207
S'swallow'
p1208
tp1209
tp1210
F-1.3552798239090804
tp1211
a(((S'VVP'
p1212
S'throw'
p1213
tp1214
(S'NN'
p1215
S'debris'
p1216
tp1217
tp1218
F-1.3577384897930411
tp1219
a(((S'VVP'
p1220
S'culminate'
p1221
tp1222
(S'NN'
p1223
S'lava'
p1224
tp1225
tp1226
F-1.3705756873018968
tp1227
a(((S'VVZ'
p1228
S'can.'
p1229
tp1230
(S'NN'
p1231
S'lava'
p1232
tp1233
tp1234
F-1.3705756873018968
tp1235
a(((S'VVP'
p1236
S'live'
p1237
tp1238
(S'NN'
p1239
S'volcan'
p1240
tp1241
tp1242
F-1.3899071659991515
tp1243
a(((S'NNS'
p1244
S'gas'
p1245
tp1246
(S'VVP'
p1247
S'swirl'
p1248
tp1249
tp1250
F-1.409195209899216
tp1251
a((g274
(S'NNS'
p1252
S'eruption'
p1253
tp1254
tp1255
F-1.41410907599824
tp1256
a((g282
(S'NN'
p1257
S'eruption'
p1258
tp1259
tp1260
F-1.41410907599824
tp1261
a(((S'VVZ'
p1262
S'denote'
p1263
tp1264
(S'NN'
p1265
S'eruption'
p1266
tp1267
tp1268
F-1.41410907599824
tp1269
a(((S'NN'
p1270
S'lava'
p1271
tp1272
(S'VVZ'
p1273
S'grade'
p1274
tp1275
tp1276
F-1.419041500354971
tp1277
a(((S'NN'
p1278
S'magma'
p1279
tp1280
(S'VVZ'
p1281
S'migrate'
p1282
tp1283
tp1284
F-1.4438411020967794
tp1285
a(((S'NN'
p1286
S'basalt'
p1287
tp1288
(S'VVP'
p1289
S'tend'
p1290
tp1291
tp1292
F-1.451472745089873
tp1293
a(((S'VVZ'
p1294
S'inflate'
p1295
tp1296
(S'NN'
p1297
S'magma'
p1298
tp1299
tp1300
F-1.4548131199889487
tp1301
a(((g815
g816
tp1302
(S'NN'
p1303
S'magma'
p1304
tp1305
tp1306
F-1.4572379401063473
tp1307
a(((S'NN'
p1308
S'magma'
p1309
tp1310
(S'VVZ'
p1311
S'deflate'
p1312
tp1313
tp1314
F-1.4721092000482752
tp1315
a(((S'NN'
p1316
S'magma'
p1317
tp1318
(S'VVZ'
p1319
S'encourage'
p1320
tp1321
tp1322
F-1.4721092000482752
tp1323
a(((S'VVP'
p1324
S'display'
p1325
tp1326
(S'NN'
p1327
S'cone'
p1328
tp1329
tp1330
F-1.4889564253370775
tp1331
a(((S'NN'
p1332
S'dome'
p1333
tp1334
(S'VVZ'
p1335
S'represent'
p1336
tp1337
tp1338
F-1.521742972161822
tp1339
a((g1108
(S'NN'
p1340
S'lava'
p1341
tp1342
tp1343
F-1.5268203988563909
tp1344
a(((S'NN'
p1345
S'basalt'
p1346
tp1347
(S'VVZ'
p1348
S'spread'
p1349
tp1350
tp1351
F-1.551412375706632
tp1352
a(((S'NNS'
p1353
S'gas'
p1354
tp1355
(S'VVP'
p1356
S'propel'
p1357
tp1358
tp1359
F-1.5560415268136174
tp1360
a(((S'VVP'
p1361
S'ripple'
p1362
tp1363
(S'NN'
p1364
S'magma'
p1365
tp1366
tp1367
F-1.5790207212553637
tp1368
a(((S'NN'
p1369
S'basalt'
p1370
tp1371
(S'VVZ'
p1372
S'hit'
p1373
tp1374
tp1375
F-1.594982292633288
tp1376
a(((S'VVZ'
p1377
S'settle'
p1378
tp1379
(g820
g821
tp1380
tp1381
F-1.6100584725669855
tp1382
a((g1241
(S'VVP'
p1383
S'make'
p1384
tp1385
tp1386
F-1.6101002296950735
tp1387
a(((S'VVZ'
p1388
S'coat'
p1389
tp1390
(S'NN'
p1391
S'crater'
p1392
tp1393
tp1394
F-1.611207039056881
tp1395
a(((S'NNS'
p1396
S'gas'
p1397
tp1398
(S'VVP'
p1399
S'argue'
p1400
tp1401
tp1402
F-1.6252423580941835
tp1403
a(((S'NN'
p1404
S'gas'
p1405
tp1406
(S'VVZ'
p1407
S'seep'
p1408
tp1409
tp1410
F-1.6252423580941835
tp1411
a(((S'NN'
p1412
S'lava'
p1413
tp1414
(S'VVZ'
p1415
S'quench'
p1416
tp1417
tp1418
F-1.6489237735142301
tp1419
a(((S'NN'
p1420
S'lava'
p1421
tp1422
(S'VVP'
p1423
S'drape'
p1424
tp1425
tp1426
F-1.6489237735142301
tp1427
a(((S'VVZ'
p1428
S'portray'
p1429
tp1430
(S'NN'
p1431
S'lava'
p1432
tp1433
tp1434
F-1.662467279741582
tp1435
a(((S'VVP'
p1436
S'hypothesize'
p1437
tp1438
(S'NN'
p1439
S'lava'
p1440
tp1441
tp1442
F-1.662467279741582
tp1443
a(((S'VVP'
p1444
S'fall'
p1445
tp1446
g692
tp1447
F-1.6654757470623938
tp1448
a(((S'NN'
p1449
S'cone'
p1450
tp1451
(S'VVP'
p1452
S'exist'
p1453
tp1454
tp1455
F-1.6707086266923878
tp1456
a(((S'NN'
p1457
S'gas'
p1458
tp1459
(S'VVZ'
p1460
S'put'
p1461
tp1462
tp1463
F-1.692000432241557
tp1464
a(((S'NN'
p1465
S'tephra'
p1466
tp1467
(S'VVP'
p1468
S'map'
p1469
tp1470
tp1471
F-1.7038007060869358
tp1472
a(((S'VVP'
p1473
S'start'
p1474
tp1475
(S'NNS'
p1476
S'fountain'
p1477
tp1478
tp1479
F-1.7049405259575872
tp1480
a(((S'NNS'
p1481
S'cone'
p1482
tp1483
(S'VVP'
p1484
S'reflect'
p1485
tp1486
tp1487
F-1.7256229595798758
tp1488
a(((S'NN'
p1489
S'cone'
p1490
tp1491
(S'VVZ'
p1492
S'raise'
p1493
tp1494
tp1495
F-1.7256229595798758
tp1496
a(((S'VVZ'
p1497
S'mix'
p1498
tp1499
(S'NN'
p1500
S'debris'
p1501
tp1502
tp1503
F-1.7418914415288071
tp1504
a((g464
(S'VVZ'
p1505
S'paint'
p1506
tp1507
tp1508
F-1.742931440777758
tp1509
a(((S'NN'
p1510
S'crater'
p1511
tp1512
(S'VVZ'
p1513
S'overflow'
p1514
tp1515
tp1516
F-1.742931440777758
tp1517
a(((S'VVZ'
p1518
S'occupy'
p1519
tp1520
(S'NN'
p1521
S'crater'
p1522
tp1523
tp1524
F-1.750236236814903
tp1525
a(((S'VVP'
p1526
S'look'
p1527
tp1528
(S'NNS'
p1529
S'cinder'
p1530
tp1531
tp1532
F-1.7635974317122662
tp1533
a(((S'VVP'
p1534
S'travel'
p1535
tp1536
(S'NNS'
p1537
S'fountain'
p1538
tp1539
tp1540
F-1.76710677764973
tp1541
a(((S'NN'
p1542
S'magma'
p1543
tp1544
(S'VVZ'
p1545
S'ascend'
p1546
tp1547
tp1548
F-1.7833722839970685
tp1549
a(((S'VVZ'
p1550
S'tap'
p1551
tp1552
(S'NN'
p1553
S'magma'
p1554
tp1555
tp1556
F-1.8012989810744675
tp1557
a(((S'VVZ'
p1558
S'cite'
p1559
tp1560
(S'NN'
p1561
S'eruption'
p1562
tp1563
tp1564
F-1.8042505895586358
tp1565
a(((S'VVP'
p1566
S'correlate'
p1567
tp1568
(S'NNS'
p1569
S'eruption'
p1570
tp1571
tp1572
F-1.8042505895586358
tp1573
a(((S'VVP'
p1574
S'foretell'
p1575
tp1576
(S'NN'
p1577
S'eruption'
p1578
tp1579
tp1580
F-1.8042505895586358
tp1581
a((g1230
(S'NN'
p1582
S'eruption'
p1583
tp1584
tp1585
F-1.8042505895586358
tp1586
a(((S'VVZ'
p1587
S'presage'
p1588
tp1589
(S'NN'
p1590
S'eruption'
p1591
tp1592
tp1593
F-1.8042505895586358
tp1594
a(((S'VVZ'
p1595
S'point'
p1596
tp1597
(S'NN'
p1598
S'tephra'
p1599
tp1600
tp1601
F-1.8219067468955412
tp1602
a(((S'NN'
p1603
S'eruption'
p1604
tp1605
g817
tp1606
F-1.8338302678590135
tp1607
a(((S'NNS'
p1608
S'eruption'
p1609
tp1610
(S'VVP'
p1611
S'typify'
p1612
tp1613
tp1614
F-1.8407754387482627
tp1615
a(((S'VVZ'
p1616
S'explain'
p1617
tp1618
(S'NN'
p1619
S'basalt'
p1620
tp1621
tp1622
F-1.8590329540572335
tp1623
a(((S'VVP'
p1624
S'originate'
p1625
tp1626
(S'NNS'
p1627
S'crater'
p1628
tp1629
tp1630
F-1.8801779460724057
tp1631
a(((S'VVP'
p1632
S'inject'
p1633
tp1634
(S'NNS'
p1635
S'gas'
p1636
tp1637
tp1638
F-1.8952293215417864
tp1639
a(((S'VVP'
p1640
S'rip'
p1641
tp1642
(S'NN'
p1643
S'magma'
p1644
tp1645
tp1646
F-1.9038365588836645
tp1647
a(((S'VVZ'
p1648
S'pause'
p1649
tp1650
(S'NN'
p1651
S'magma'
p1652
tp1653
tp1654
F-1.9038365588836645
tp1655
a(((S'NN'
p1656
S'magma'
p1657
tp1658
(S'VVZ'
p1659
S'accumulate'
p1660
tp1661
tp1662
F-1.9048859963022093
tp1663
a(((S'VVZ'
p1664
S'thicken'
p1665
tp1666
(S'NN'
p1667
S'lava'
p1668
tp1669
tp1670
F-1.9161657381777184
tp1671
a(((S'NN'
p1672
S'gas'
p1673
tp1674
(S'VVP'
p1675
S'float'
p1676
tp1677
tp1678
F-1.9387053865055344
tp1679
a(((S'NN'
p1680
S'gas'
p1681
tp1682
(S'VVZ'
p1683
S'float'
p1684
tp1685
tp1686
F-1.9387053865055344
tp1687
a(((S'VVZ'
p1688
S'measure'
p1689
tp1690
(S'NN'
p1691
S'fountain'
p1692
tp1693
tp1694
F-1.955459005872285
tp1695
a(((S'NNS'
p1696
S'fountain'
p1697
tp1698
(S'VVP'
p1699
S'believe'
p1700
tp1701
tp1702
F-1.9640657690981518
tp1703
a(((S'NN'
p1704
S'magma'
p1705
tp1706
(S'VVP'
p1707
S'undergo'
p1708
tp1709
tp1710
F-1.9666531582340288
tp1711
a(((S'NN'
p1712
S'magma'
p1713
tp1714
(S'VVP'
p1715
S'intrude'
p1716
tp1717
tp1718
F-1.9666531582340288
tp1719
a(((S'NN'
p1720
S'magma'
p1721
tp1722
(S'VVZ'
p1723
S'intrude'
p1724
tp1725
tp1726
F-1.9666531582340288
tp1727
a(((S'NN'
p1728
S'gas'
p1729
tp1730
(S'VVP'
p1731
S'agree'
p1732
tp1733
tp1734
F-1.9961000341436528
tp1735
a(((S'NN'
p1736
S'dome'
p1737
tp1738
(S'VVZ'
p1739
S'push'
p1740
tp1741
tp1742
F-1.9999958408547605
tp1743
a(((S'VVP'
p1744
S'emit'
p1745
tp1746
(S'NNS'
p1747
S'gas'
p1748
tp1749
tp1750
F-2.0016611183464468
tp1751
a(((S'VVZ'
p1752
S'remember'
p1753
tp1754
(S'NN'
p1755
S'crater'
p1756
tp1757
tp1758
F-2.0025268861732513
tp1759
a(((S'NN'
p1760
S'tephra'
p1761
tp1762
(S'VVP'
p1763
S'contain'
p1764
tp1765
tp1766
F-2.004264511913632
tp1767
a(((S'VVP'
p1768
S'compare'
p1769
tp1770
(S'NN'
p1771
S'debris'
p1772
tp1773
tp1774
F-2.0074407702111565
tp1775
a(((S'VVP'
p1776
S'tend'
p1777
tp1778
(S'NNS'
p1779
S'dome'
p1780
tp1781
tp1782
F-2.0293603599081456
tp1783
a(((g1739
g1740
tp1784
(S'NN'
p1785
S'dome'
p1786
tp1787
tp1788
F-2.0293603599081456
tp1789
a(((S'NN'
p1790
S'tephra'
p1791
tp1792
(S'VVZ'
p1793
S'fragment'
p1794
tp1795
tp1796
F-2.029663479760755
tp1797
a(((S'NN'
p1798
S'tephra'
p1799
tp1800
(S'VVP'
p1801
S'cover'
p1802
tp1803
tp1804
F-2.0464435939133465
tp1805
a(((S'VVZ'
p1806
S'conclude'
p1807
tp1808
(S'NNS'
p1809
S'crater'
p1810
tp1811
tp1812
F-2.061219813444303
tp1813
a(((S'NN'
p1814
S'basalt'
p1815
tp1816
(S'VVZ'
p1817
S'fill'
p1818
tp1819
tp1820
F-2.071768211481903
tp1821
a(((S'VVZ'
p1822
S'behave'
p1823
tp1824
(S'NNS'
p1825
S'gas'
p1826
tp1827
tp1828
F-2.07697448475333
tp1829
a(((S'VVZ'
p1830
S'relieve'
p1831
tp1832
g870
tp1833
F-2.0952901734654934
tp1834
a(((S'NN'
p1835
S'cone'
p1836
tp1837
(S'VVZ'
p1838
S'signal'
p1839
tp1840
tp1841
F-2.096866309931239
tp1842
a(((S'NN'
p1843
S'gas'
p1844
tp1845
(S'VVP'
p1846
S'smell'
p1847
tp1848
tp1849
F-2.1066135052853654
tp1850
a(((S'VVZ'
p1851
S'contribute'
p1852
tp1853
(S'NN'
p1854
S'gas'
p1855
tp1856
tp1857
F-2.134402253203786
tp1858
a((g641
(S'NN'
p1859
S'lava'
p1860
tp1861
tp1862
F-2.1430082149803393
tp1863
a(((S'VVZ'
p1864
S'flatten'
p1865
tp1866
(S'NN'
p1867
S'crater'
p1868
tp1869
tp1870
F-2.1742281621646606
tp1871
a(((S'VVZ'
p1872
S'stress'
p1873
tp1874
(S'NN'
p1875
S'magma'
p1876
tp1877
tp1878
F-2.185243308571448
tp1879
a(((S'VVZ'
p1880
S'deform'
p1881
tp1882
(S'NN'
p1883
S'magma'
p1884
tp1885
tp1886
F-2.185243308571448
tp1887
a(((S'NN'
p1888
S'fountain'
p1889
tp1890
(S'VVZ'
p1891
S'do'
p1892
tp1893
tp1894
F-2.1906763161986627
tp1895
a(((S'VVZ'
p1896
S'show'
p1897
tp1898
(S'NN'
p1899
S'fountain'
p1900
tp1901
tp1902
F-2.192729901391308
tp1903
a(((S'NN'
p1904
S'crater'
p1905
tp1906
(S'VVZ'
p1907
S'tunnel'
p1908
tp1909
tp1910
F-2.196803835785844
tp1911
a(((S'VVP'
p1912
S'form'
p1913
tp1914
(S'NN'
p1915
S'scoria'
p1916
tp1917
tp1918
F-2.2134491081849186
tp1919
a(((S'NP'
p1920
S'magma'
p1921
tp1922
(S'VVZ'
p1923
S'pray'
p1924
tp1925
tp1926
F-2.2156541033901225
tp1927
a(((S'NN'
p1928
S'dome'
p1929
tp1930
(S'VVZ'
p1931
S'hold'
p1932
tp1933
tp1934
F-2.2225215570186494
tp1935
a(((S'NNS'
p1936
S'eruption'
p1937
tp1938
g486
tp1939
F-2.2243513133483934
tp1940
a(((S'NNS'
p1941
S'eruption'
p1942
tp1943
(S'VVP'
p1944
S'delineate'
p1945
tp1946
tp1947
F-2.2243513133483934
tp1948
a(((S'VVP'
p1949
S'locate'
p1950
tp1951
(S'NN'
p1952
S'debris'
p1953
tp1954
tp1955
F-2.226839475396617
tp1956
a(((S'NN'
p1957
S'crater'
p1958
tp1959
(S'VVZ'
p1960
S'prevent'
p1961
tp1962
tp1963
F-2.247623224550918
tp1964
a(((S'NN'
p1965
S'cone'
p1966
tp1967
g325
tp1968
F-2.2688267598472867
tp1969
a(((S'NN'
p1970
S'magma'
p1971
tp1972
(S'VVZ'
p1973
S'breach'
p1974
tp1975
tp1976
F-2.2930864538152664
tp1977
a(((S'NN'
p1978
S'magma'
p1979
tp1980
(S'VVZ'
p1981
S'tumble'
p1982
tp1983
tp1984
F-2.2930864538152664
tp1985
a(((S'NNS'
p1986
S'crater'
p1987
tp1988
(S'VVP'
p1989
S'dot'
p1990
tp1991
tp1992
F-2.297398707609
tp1993
a(((S'VVZ'
p1994
S'reach'
p1995
tp1996
g59
tp1997
F-2.3037227735086643
tp1998
a(((S'NN'
p1999
S'magma'
p2000
tp2001
(S'VVZ'
p2002
S'behave'
p2003
tp2004
tp2005
F-2.312816309245848
tp2006
a(((S'NNS'
p2007
S'fountain'
p2008
tp2009
(S'VVP'
p2010
S'reach'
p2011
tp2012
tp2013
F-2.3195000341980063
tp2014
a(((S'NN'
p2015
S'fountain'
p2016
tp2017
(S'VVP'
p2018
S'reach'
p2019
tp2020
tp2021
F-2.3195000341980063
tp2022
a(((S'VVZ'
p2023
S'suggest'
p2024
tp2025
(S'NN'
p2026
S'basalt'
p2027
tp2028
tp2029
F-2.3392004080231454
tp2030
a(((S'VVP'
p2031
S'suggest'
p2032
tp2033
(S'NN'
p2034
S'basalt'
p2035
tp2036
tp2037
F-2.3392004080231454
tp2038
a(((S'VVP'
p2039
S'suggest'
p2040
tp2041
(S'NNS'
p2042
S'basalt'
p2043
tp2044
tp2045
F-2.3392004080231454
tp2046
a(((S'NNS'
p2047
S'fountain'
p2048
tp2049
(S'VVP'
p2050
S'fall'
p2051
tp2052
tp2053
F-2.3410290143469847
tp2054
a(((S'NN'
p2055
S'crater'
p2056
tp2057
(S'VVZ'
p2058
S'refer'
p2059
tp2060
tp2061
F-2.346190277842203
tp2062
a((g718
(S'NN'
p2063
S'lava'
p2064
tp2065
tp2066
F-2.349753051625947
tp2067
a(((S'VVP'
p2068
S'produce'
p2069
tp2070
(g577
g578
tp2071
tp2072
F-2.3512135634286
tp2073
a(((S'NN'
p2074
S'magma'
p2075
tp2076
(S'VVZ'
p2077
S'influence'
p2078
tp2079
tp2080
F-2.3681516487002203
tp2081
a(((S'NN'
p2082
S'magma'
p2083
tp2084
(S'VVZ'
p2085
S'blob'
p2086
tp2087
tp2088
F-2.3681516487002203
tp2089
a(((S'NN'
p2090
S'lava'
p2091
tp2092
(S'VVZ'
p2093
S'break out'
p2094
tp2095
tp2096
F-2.372863328458951
tp2097
a(((S'NNS'
p2098
S'crater'
p2099
tp2100
(S'VVP'
p2101
S'interpret'
p2102
tp2103
tp2104
F-2.3940525398735995
tp2105
a(((S'VVZ'
p2106
S'travel'
p2107
tp2108
(S'NNS'
p2109
S'basalt'
p2110
tp2111
tp2112
F-2.4140469608486397
tp2113
a(((S'VVZ'
p2114
S'sound'
p2115
tp2116
(S'NN'
p2117
S'dome'
p2118
tp2119
tp2120
F-2.41725917369153
tp2121
a(((S'VVZ'
p2122
S'intersect'
p2123
tp2124
(S'NN'
p2125
S'eruption'
p2126
tp2127
tp2128
F-2.4196410785827838
tp2129
a(((S'VVZ'
p2130
S'squat'
p2131
tp2132
(S'NN'
p2133
S'eruption'
p2134
tp2135
tp2136
F-2.4196410785827838
tp2137
a(((S'VVZ'
p2138
S'drop'
p2139
tp2140
(S'NN'
p2141
S'cone'
p2142
tp2143
tp2144
F-2.424753734516091
tp2145
a(((S'NNS'
p2146
S'eruption'
p2147
tp2148
(S'VVP'
p2149
S'reckon'
p2150
tp2151
tp2152
F-2.4293236646489698
tp2153
a(((S'NN'
p2154
S'magma'
p2155
tp2156
(S'VVP'
p2157
S'define'
p2158
tp2159
tp2160
F-2.441048375493865
tp2161
a(((S'NN'
p2162
S'magma'
p2163
tp2164
(S'VVZ'
p2165
S'crystallize'
p2166
tp2167
tp2168
F-2.441048375493865
tp2169
a(((S'NNS'
p2170
S'eruption'
p2171
tp2172
g1121
tp2173
F-2.4756755088455686
tp2174
a(((S'NN'
p2175
S'gas'
p2176
tp2177
(g208
g209
tp2178
tp2179
F-2.487303230832439
tp2180
a(((S'NN'
p2181
S'magma'
p2182
tp2183
(S'VVZ'
p2184
S'exceed'
p2185
tp2186
tp2187
F-2.5119496135040795
tp2188
a(((S'NN'
p2189
S'lava'
p2190
tp2191
(S'VVZ'
p2192
S'ignite'
p2193
tp2194
tp2195
F-2.523655859251708
tp2196
a(((S'NN'
p2197
S'lava'
p2198
tp2199
(S'VVZ'
p2200
S'twist'
p2201
tp2202
tp2203
F-2.523655859251708
tp2204
a((g330
(S'NN'
p2205
S'lava'
p2206
tp2207
tp2208
F-2.540781246980502
tp2209
a((g138
(S'NN'
p2210
S'lava'
p2211
tp2212
tp2213
F-2.540781246980502
tp2214
a(((S'NNS'
p2215
S'cone'
p2216
tp2217
g1012
tp2218
F-2.5528511613228875
tp2219
a(((S'NN'
p2220
S'magma'
p2221
tp2222
(S'VVZ'
p2223
S'harden'
p2224
tp2225
tp2226
F-2.5810069931213264
tp2227
a(((S'NN'
p2228
S'magma'
p2229
tp2230
(S'VVZ'
p2231
S'float'
p2232
tp2233
tp2234
F-2.5810069931213264
tp2235
a(((S'NN'
p2236
S'magma'
p2237
tp2238
(S'VVP'
p2239
S'harden'
p2240
tp2241
tp2242
F-2.5810069931213264
tp2243
a(((S'NN'
p2244
S'lava'
p2245
tp2246
g51
tp2247
F-2.5858147757451966
tp2248
a(((S'NN'
p2249
S'magma'
p2250
tp2251
(S'VVZ'
p2252
S'spill'
p2253
tp2254
tp2255
F-2.5912936601112007
tp2256
a(((S'VVZ'
p2257
S'include'
p2258
tp2259
(S'NNS'
p2260
S'fountain'
p2261
tp2262
tp2263
F-2.595851870378658
tp2264
a(((S'NN'
p2265
S'tephra'
p2266
tp2267
(S'VVZ'
p2268
S'do'
p2269
tp2270
tp2271
F-2.606845578559987
tp2272
a(((S'NN'
p2273
S'lava'
p2274
tp2275
g229
tp2276
F-2.622956932270861
tp2277
a(((S'NNS'
p2278
S'gas'
p2279
tp2280
(S'VVP'
p2281
S'combine'
p2282
tp2283
tp2284
F-2.6379547711456355
tp2285
a(((S'VVP'
p2286
S'notice'
p2287
tp2288
(S'NN'
p2289
S'gas'
p2290
tp2291
tp2292
F-2.6447036484501902
tp2293
a(((S'VVP'
p2294
S'produce'
p2295
tp2296
(S'NN'
p2297
S'tephra'
p2298
tp2299
tp2300
F-2.647021412861857
tp2301
a(((S'NP'
p2302
S'magma'
p2303
tp2304
(S'VVP'
p2305
S'conclude'
p2306
tp2307
tp2308
F-2.6483542586908744
tp2309
a(((S'NN'
p2310
S'fountain'
p2311
tp2312
(S'VVZ'
p2313
S'build'
p2314
tp2315
tp2316
F-2.6517797149551727
tp2317
a(((S'NNS'
p2318
S'eruption'
p2319
tp2320
g961
tp2321
F-2.657865820191561
tp2322
a(((S'VVP'
p2323
S'want'
p2324
tp2325
(S'NN'
p2326
S'debris'
p2327
tp2328
tp2329
F-2.6585536206723717
tp2330
a(((S'VVZ'
p2331
S'exceed'
p2332
tp2333
(S'NN'
p2334
S'magma'
p2335
tp2336
tp2337
F-2.6654311410002043
tp2338
a(((S'NNS'
p2339
S'basalt'
p2340
tp2341
(S'VVP'
p2342
S'cover'
p2343
tp2344
tp2345
F-2.6684278498427676
tp2346
a(((S'NN'
p2347
S'basalt'
p2348
tp2349
(S'VVZ'
p2350
S'cover'
p2351
tp2352
tp2353
F-2.6684278498427676
tp2354
a(((S'NNS'
p2355
S'fountain'
p2356
tp2357
(S'VVP'
p2358
S'live'
p2359
tp2360
tp2361
F-2.6772962833348686
tp2362
a(((S'VVZ'
p2363
S'interact'
p2364
tp2365
(S'NNS'
p2366
S'eruption'
p2367
tp2368
tp2369
F-2.6782858939217977
tp2370
a(((S'VVP'
p2371
S'herald'
p2372
tp2373
(S'NN'
p2374
S'eruption'
p2375
tp2376
tp2377
F-2.6782858939217977
tp2378
a((g2365
(S'NN'
p2379
S'eruption'
p2380
tp2381
tp2382
F-2.6782858939217977
tp2383
a(((S'VVP'
p2384
S'typify'
p2385
tp2386
(S'NNS'
p2387
S'eruption'
p2388
tp2389
tp2390
F-2.6782858939217977
tp2391
a(((g484
g485
tp2392
(S'NNS'
p2393
S'eruption'
p2394
tp2395
tp2396
F-2.6782858939217977
tp2397
a(((S'VVP'
p2398
S'hurl'
p2399
tp2400
(S'NN'
p2401
S'crater'
p2402
tp2403
tp2404
F-2.703166697686901
tp2405
a(((S'VVP'
p2406
S'roll'
p2407
tp2408
(S'NN'
p2409
S'crater'
p2410
tp2411
tp2412
F-2.7173695962798132
tp2413
a(((g1007
g1008
tp2414
(S'VVP'
p2415
S'make'
p2416
tp2417
tp2418
F-2.7186714924703312
tp2419
a(((S'VVP'
p2420
S'carry'
p2421
tp2422
(S'NN'
p2423
S'debris'
p2424
tp2425
tp2426
F-2.731350706988037
tp2427
a(((S'VVZ'
p2428
S'decrease'
p2429
tp2430
(S'NN'
p2431
S'gas'
p2432
tp2433
tp2434
F-2.7358958228519454
tp2435
a(((S'VVZ'
p2436
S'erupt'
p2437
tp2438
(S'NN'
p2439
S'scoria'
p2440
tp2441
tp2442
F-2.7509926761049375
tp2443
a(((S'NN'
p2444
S'magma'
p2445
tp2446
(S'VVZ'
p2447
S'dissolve'
p2448
tp2449
tp2450
F-2.778380149318268
tp2451
a(((S'NN'
p2452
S'crater'
p2453
tp2454
(S'VVP'
p2455
S'let'
p2456
tp2457
tp2458
F-2.790026269170516
tp2459
a(((S'NN'
p2460
S'lava'
p2461
tp2462
(S'VVZ'
p2463
S'empty'
p2464
tp2465
tp2466
F-2.8020692937498772
tp2467
a(((g2305
g2306
tp2468
(S'NN'
p2469
S'magma'
p2470
tp2471
tp2472
F-2.8081230518665596
tp2473
a((g1824
(S'NN'
p2474
S'magma'
p2475
tp2476
tp2477
F-2.8081230518665596
tp2478
a(((S'VVP'
p2479
S'agree'
p2480
tp2481
(S'NN'
p2482
S'magma'
p2483
tp2484
tp2485
F-2.8081230518665596
tp2486
a(((S'VVZ'
p2487
S'wonder'
p2488
tp2489
(S'NNS'
p2490
S'gas'
p2491
tp2492
tp2493
F-2.8242566072540103
tp2494
a(((S'VVZ'
p2495
S'indicate'
p2496
tp2497
(S'NN'
p2498
S'debris'
p2499
tp2500
tp2501
F-2.830237205933334
tp2502
a(((S'NN'
p2503
S'magma'
p2504
tp2505
(S'VVZ'
p2506
S'operate'
p2507
tp2508
tp2509
F-2.8412593381250884
tp2510
a(((S'NN'
p2511
S'gas'
p2512
tp2513
(S'VVZ'
p2514
S'resemble'
p2515
tp2516
tp2517
F-2.8485666853754665
tp2518
a(((g211
g212
tp2519
(S'VVZ'
p2520
S'erupt'
p2521
tp2522
tp2523
F-2.8537960797656923
tp2524
a(((S'VVZ'
p2525
S'create'
p2526
tp2527
(S'NN'
p2528
S'basalt'
p2529
tp2530
tp2531
F-2.8595610940560743
tp2532
a(((S'VVP'
p2533
S'hike'
p2534
tp2535
(S'NNS'
p2536
S'crater'
p2537
tp2538
tp2539
F-2.890724346586898
tp2540
a(((S'NN'
p2541
S'magma'
p2542
tp2543
(S'VVP'
p2544
S'precede'
p2545
tp2546
tp2547
F-2.90585881508217
tp2548
a(((S'NN'
p2549
S'debris'
p2550
tp2551
(S'VVZ'
p2552
S'avalanche'
p2553
tp2554
tp2555
F-2.906346569446912
tp2556
a(((S'VVZ'
p2557
S'let'
p2558
tp2559
(S'NNS'
p2560
S'gas'
p2561
tp2562
tp2563
F-2.9100284457283547
tp2564
a(((S'NN'
p2565
S'crater'
p2566
tp2567
(S'VVP'
p2568
S'step'
p2569
tp2570
tp2571
F-2.91063904971373
tp2572
a(((S'VVP'
p2573
S'guess'
p2574
tp2575
(S'NN'
p2576
S'eruption'
p2577
tp2578
tp2579
F-2.9151434573494015
tp2580
a(((g2149
g2150
tp2581
(S'NNS'
p2582
S'eruption'
p2583
tp2584
tp2585
F-2.9151434573494015
tp2586
a(((S'NNS'
p2587
S'gas'
p2588
tp2589
(S'VVZ'
p2590
S'keep'
p2591
tp2592
tp2593
F-2.9287677683240996
tp2594
a(((S'NN'
p2595
S'lava'
p2596
tp2597
(S'VVZ'
p2598
S'dwarf'
p2599
tp2600
tp2601
F-2.931754957359962
tp2602
a(((S'NNS'
p2603
S'eruption'
p2604
tp2605
g1313
tp2606
F-2.963853540364551
tp2607
a(((S'NN'
p2608
S'eruption'
p2609
tp2610
(S'VVZ'
p2611
S'pale'
p2612
tp2613
tp2614
F-2.963853540364551
tp2615
a(((S'VVZ'
p2616
S'cool'
p2617
tp2618
(S'NN'
p2619
S'basalt'
p2620
tp2621
tp2622
F-2.9651751081775726
tp2623
a(((S'VVP'
p2624
S'make'
p2625
tp2626
(S'NN'
p2627
S'tephra'
p2628
tp2629
tp2630
F-2.988922245803862
tp2631
a(((S'NN'
p2632
S'eruption'
p2633
tp2634
(S'VVZ'
p2635
S'empty'
p2636
tp2637
tp2638
F-2.9921000708507584
tp2639
a(((g1170
g1171
tp2640
(S'VVP'
p2641
S'extrude'
p2642
tp2643
tp2644
F-3.0069236164604214
tp2645
a(((S'VVP'
p2646
S'rush'
p2647
tp2648
(S'NN'
p2649
S'magma'
p2650
tp2651
tp2652
F-3.009939000669159
tp2653
a(((S'NN'
p2654
S'cone'
p2655
tp2656
(S'VVZ'
p2657
S'run'
p2658
tp2659
tp2660
F-3.024795730544268
tp2661
a(((S'NN'
p2662
S'cone'
p2663
tp2664
(S'VVZ'
p2665
S'slide'
p2666
tp2667
tp2668
F-3.0416978677097863
tp2669
a(((S'NNS'
p2670
S'gas'
p2671
tp2672
(S'VVP'
p2673
S'collect'
p2674
tp2675
tp2676
F-3.0511544723264317
tp2677
a(((S'NN'
p2678
S'basalt'
p2679
tp2680
(S'VVZ'
p2681
S'reach'
p2682
tp2683
tp2684
F-3.0613480354922133
tp2685
a(((S'NN'
p2686
S'gas'
p2687
tp2688
(S'VVZ'
p2689
S'separate'
p2690
tp2691
tp2692
F-3.083182256260423
tp2693
a(((S'VVZ'
p2694
S'extrude'
p2695
tp2696
(S'NN'
p2697
S'crater'
p2698
tp2699
tp2700
F-3.094210665511313
tp2701
a(((S'VVP'
p2702
S'generate'
p2703
tp2704
(S'NN'
p2705
S'basalt'
p2706
tp2707
tp2708
F-3.1005598082866204
tp2709
a(((S'NN'
p2710
S'cone'
p2711
tp2712
(S'VVZ'
p2713
S'fill'
p2714
tp2715
tp2716
F-3.1214333268387278
tp2717
a(((S'NNS'
p2718
S'gas'
p2719
tp2720
(S'VVP'
p2721
S'emerge'
p2722
tp2723
tp2724
F-3.123153157465938
tp2725
a(((S'NN'
p2726
S'tephra'
p2727
tp2728
(S'VVZ'
p2729
S'leave'
p2730
tp2731
tp2732
F-3.1232320477400206
tp2733
a(((S'NN'
p2734
S'lava'
p2735
tp2736
g56
tp2737
F-3.130483376897677
tp2738
a(((S'VVZ'
p2739
S'imply'
p2740
tp2741
(S'NN'
p2742
S'eruption'
p2743
tp2744
tp2745
F-3.134821079779159
tp2746
a(((S'NNS'
p2747
S'crater'
p2748
tp2749
(S'VVP'
p2750
S'expose'
p2751
tp2752
tp2753
F-3.148145739241775
tp2754
a(((S'NNS'
p2755
S'cone'
p2756
tp2757
(S'VVP'
p2758
S'develop'
p2759
tp2760
tp2761
F-3.1838738770354906
tp2762
a(((S'NNS'
p2763
S'gas'
p2764
tp2765
(S'VVP'
p2766
S'shoot'
p2767
tp2768
tp2769
F-3.1942961636525196
tp2770
a(((S'VVP'
p2771
S'develop'
p2772
tp2773
(S'NN'
p2774
S'cone'
p2775
tp2776
tp2777
F-3.2120028363880384
tp2778
a(((S'NN'
p2779
S'basalt'
p2780
tp2781
(S'VVZ'
p2782
S'remain'
p2783
tp2784
tp2785
F-3.2374831115664238
tp2786
a(((g1928
g1929
tp2787
(S'VVZ'
p2788
S'suggest'
p2789
tp2790
tp2791
F-3.2409008952731706
tp2792
a(((S'VVP'
p2793
S'descend'
p2794
tp2795
(S'NN'
p2796
S'crater'
p2797
tp2798
tp2799
F-3.248073343586009
tp2800
a(((g2318
g2319
tp2801
(S'VVZ'
p2802
S'exert'
p2803
tp2804
tp2805
F-3.2735678513727575
tp2806
a(((S'NN'
p2807
S'crater'
p2808
tp2809
(S'VVP'
p2810
S'pose'
p2811
tp2812
tp2813
F-3.2820869883576305
tp2814
a(((g1356
g1357
tp2815
(S'NN'
p2816
S'lava'
p2817
tp2818
tp2819
F-3.3188964142465314
tp2820
a(((S'VVZ'
p2821
S'fail'
p2822
tp2823
(S'NN'
p2824
S'magma'
p2825
tp2826
tp2827
F-3.3198770234048416
tp2828
a(((S'VVZ'
p2829
S'monitor'
p2830
tp2831
(S'NN'
p2832
S'debris'
p2833
tp2834
tp2835
F-3.32924729574788
tp2836
a(((S'NN'
p2837
S'debris'
p2838
tp2839
(S'VVZ'
p2840
S'contain'
p2841
tp2842
tp2843
F-3.3770616638935747
tp2844
a(((S'NNS'
p2845
S'gas'
p2846
tp2847
(S'VVP'
p2848
S'compose'
p2849
tp2850
tp2851
F-3.3806585367354534
tp2852
a(((S'VVP'
p2853
S'send'
p2854
tp2855
(S'NN'
p2856
S'debris'
p2857
tp2858
tp2859
F-3.3996696214844473
tp2860
a(((S'VVP'
p2861
S'believe'
p2862
tp2863
(S'NN'
p2864
S'debris'
p2865
tp2866
tp2867
F-3.411268107802773
tp2868
a(((S'NN'
p2869
S'eruption'
p2870
tp2871
(S'VVZ'
p2872
S'yield'
p2873
tp2874
tp2875
F-3.4181839056907233
tp2876
a(((S'NNS'
p2877
S'eruption'
p2878
tp2879
(g1167
g1168
tp2880
tp2881
F-3.4181839056907233
tp2882
a((g1539
(S'VVP'
p2883
S'begin'
p2884
tp2885
tp2886
F-3.4309508795664385
tp2887
a(((S'VVZ'
p2888
S'require'
p2889
tp2890
(S'NN'
p2891
S'magma'
p2892
tp2893
tp2894
F-3.4362109462974493
tp2895
a(((S'NNS'
p2896
S'cone'
p2897
tp2898
g426
tp2899
F-3.4467200479943743
tp2900
a(((S'NN'
p2901
S'magma'
p2902
tp2903
(S'VVZ'
p2904
S'drain'
p2905
tp2906
tp2907
F-3.456379623123558
tp2908
a(((S'NN'
p2909
S'cone'
p2910
tp2911
(S'VVP'
p2912
S'suggest'
p2913
tp2914
tp2915
F-3.4660594009535286
tp2916
a(((S'VVP'
p2917
S'vanish'
p2918
tp2919
(S'NN'
p2920
S'lava'
p2921
tp2922
tp2923
F-3.4804628307391776
tp2924
a(((S'NNS'
p2925
S'dome'
p2926
tp2927
(S'VVP'
p2928
S'blow'
p2929
tp2930
tp2931
F-3.49310354258899
tp2932
a(((S'NN'
p2933
S'gas'
p2934
tp2935
(S'VVZ'
p2936
S'support'
p2937
tp2938
tp2939
F-3.5073527572472507
tp2940
a(((S'NN'
p2941
S'lava'
p2942
tp2943
(S'VVZ'
p2944
S'scorch'
p2945
tp2946
tp2947
F-3.5109714656592113
tp2948
a(((S'NN'
p2949
S'magma'
p2950
tp2951
(g898
g899
tp2952
tp2953
F-3.513187180394816
tp2954
a(((S'VVZ'
p2955
S'bloom'
p2956
tp2957
(S'NN'
p2958
S'eruption'
p2959
tp2960
tp2961
F-3.534571681884273
tp2962
a(((S'VVP'
p2963
S'pale'
p2964
tp2965
(S'NN'
p2966
S'eruption'
p2967
tp2968
tp2969
F-3.534571681884273
tp2970
a(((S'VVZ'
p2971
S'suggest'
p2972
tp2973
(S'NN'
p2974
S'dome'
p2975
tp2976
tp2977
F-3.535851138710055
tp2978
a((g2178
(S'NN'
p2979
S'magma'
p2980
tp2981
tp2982
F-3.5567854526119196
tp2983
a(((S'NN'
p2984
S'eruption'
p2985
tp2986
(S'VVZ'
p2987
S'ease'
p2988
tp2989
tp2990
F-3.5570575742319077
tp2991
a(((S'VVZ'
p2992
S'involve'
p2993
tp2994
(S'NNS'
p2995
S'gas'
p2996
tp2997
tp2998
F-3.5585065089190056
tp2999
a(((S'NN'
p3000
S'eruption'
p3001
tp3002
(S'VVZ'
p3003
S'inspire'
p3004
tp3005
tp3006
F-3.573851603067069
tp3007
a(((S'NN'
p3008
S'cone'
p3009
tp3010
(S'VVZ'
p3011
S'lie'
p3012
tp3013
tp3014
F-3.578635369832609
tp3015
a(((S'NN'
p3016
S'gas'
p3017
tp3018
(S'VVP'
p3019
S'burst'
p3020
tp3021
tp3022
F-3.5799179141090085
tp3023
a(((S'VVZ'
p3024
S'empty'
p3025
tp3026
(S'NN'
p3027
S'eruption'
p3028
tp3029
tp3030
F-3.6091469581943874
tp3031
a(((S'NN'
p3032
S'magma'
p3033
tp3034
(S'VVZ'
p3035
S'tear'
p3036
tp3037
tp3038
F-3.6118765637071033
tp3039
a(((S'NN'
p3040
S'magma'
p3041
tp3042
(S'VVZ'
p3043
S'depend'
p3044
tp3045
tp3046
F-3.6118765637071033
tp3047
a(((S'NN'
p3048
S'gas'
p3049
tp3050
(S'VVZ'
p3051
S'drift'
p3052
tp3053
tp3054
F-3.6121316773400434
tp3055
a(((S'NNS'
p3056
S'gas'
p3057
tp3058
(S'VVP'
p3059
S'expand'
p3060
tp3061
tp3062
F-3.6121316773400434
tp3063
a(((S'NN'
p3064
S'lava'
p3065
tp3066
(S'VVP'
p3067
S'breach'
p3068
tp3069
tp3070
F-3.615965819106006
tp3071
a(((S'NN'
p3072
S'lava'
p3073
tp3074
(S'VVZ'
p3075
S'find'
p3076
tp3077
tp3078
F-3.615965819106006
tp3079
a(((S'NN'
p3080
S'debris'
p3081
tp3082
(S'VVP'
p3083
S'destroy'
p3084
tp3085
tp3086
F-3.6501749428609838
tp3087
a(((S'NN'
p3088
S'debris'
p3089
tp3090
(S'VVZ'
p3091
S'move'
p3092
tp3093
tp3094
F-3.6501749428609838
tp3095
a(((S'NN'
p3096
S'gas'
p3097
tp3098
(S'VVZ'
p3099
S'explode'
p3100
tp3101
tp3102
F-3.651499350517977
tp3103
a(((S'VVP'
p3104
S'explore'
p3105
tp3106
(S'NN'
p3107
S'magma'
p3108
tp3109
tp3110
F-3.6580013726063414
tp3111
a(((S'VVP'
p3112
S'pull'
p3113
tp3114
(S'NN'
p3115
S'magma'
p3116
tp3117
tp3118
F-3.6646082003365406
tp3119
a(((S'NN'
p3120
S'cone'
p3121
tp3122
(S'VVZ'
p3123
S'appear'
p3124
tp3125
tp3126
F-3.7014574236107105
tp3127
a(((S'NNS'
p3128
S'cone'
p3129
tp3130
(S'VVZ'
p3131
S'appear'
p3132
tp3133
tp3134
F-3.7014574236107105
tp3135
a(((S'NN'
p3136
S'cone'
p3137
tp3138
(S'VVZ'
p3139
S'turn'
p3140
tp3141
tp3142
F-3.7014574236107105
tp3143
a(((S'NN'
p3144
S'magma'
p3145
tp3146
(S'VVZ'
p3147
S'plug'
p3148
tp3149
tp3150
F-3.702965432550987
tp3151
a(((S'NNS'
p3152
S'eruption'
p3153
tp3154
(S'VVP'
p3155
S'propel'
p3156
tp3157
tp3158
F-3.705806520790092
tp3159
a(((S'NN'
p3160
S'magma'
p3161
tp3162
(S'VVZ'
p3163
S'ooze'
p3164
tp3165
tp3166
F-3.7093012567519486
tp3167
a(((S'NN'
p3168
S'magma'
p3169
tp3170
(S'VVZ'
p3171
S'cave'
p3172
tp3173
tp3174
F-3.7093012567519486
tp3175
a((g3053
(S'NN'
p3176
S'crater'
p3177
tp3178
tp3179
F-3.714542542635775
tp3180
a(((S'NN'
p3181
S'lava'
p3182
tp3183
(S'VVZ'
p3184
S'blob'
p3185
tp3186
tp3187
F-3.7180609114496788
tp3188
a(((S'NN'
p3189
S'lava'
p3190
tp3191
(S'VVP'
p3192
S'lay'
p3193
tp3194
tp3195
F-3.7180609114496788
tp3196
a(((S'NN'
p3197
S'lava'
p3198
tp3199
(S'VVZ'
p3200
S'creep'
p3201
tp3202
tp3203
F-3.7180609114496788
tp3204
a(((S'NN'
p3205
S'lava'
p3206
tp3207
(S'VVP'
p3208
S'creep'
p3209
tp3210
tp3211
F-3.7180609114496788
tp3212
a(((S'VVZ'
p3213
S'owe'
p3214
tp3215
(S'NN'
p3216
S'eruption'
p3217
tp3218
tp3219
F-3.7187247681120144
tp3220
a(((S'VVZ'
p3221
S'guarantee'
p3222
tp3223
(S'NN'
p3224
S'eruption'
p3225
tp3226
tp3227
F-3.7187247681120144
tp3228
a(((S'VVP'
p3229
S'emerge'
p3230
tp3231
(S'NN'
p3232
S'crater'
p3233
tp3234
tp3235
F-3.7379772900623203
tp3236
a(((S'VVZ'
p3237
S'capture'
p3238
tp3239
(S'NN'
p3240
S'lava'
p3241
tp3242
tp3243
F-3.7428707698386985
tp3244
a(((S'NNS'
p3245
S'dome'
p3246
tp3247
(S'VVP'
p3248
S'appear'
p3249
tp3250
tp3251
F-3.7452191944716957
tp3252
a(((S'NN'
p3253
S'magma'
p3254
tp3255
(S'VVP'
p3256
S'vary'
p3257
tp3258
tp3259
F-3.7504488604768085
tp3260
a(((S'NN'
p3261
S'dome'
p3262
tp3263
(S'VVZ'
p3264
S'grow'
p3265
tp3266
tp3267
F-3.756809689444106
tp3268
a(((S'VVP'
p3269
S'represent'
p3270
tp3271
(S'NN'
p3272
S'magma'
p3273
tp3274
tp3275
F-3.764079366017859
tp3276
a(((g2074
g2075
tp3277
(S'VVZ'
p3278
S'control'
p3279
tp3280
tp3281
F-3.797371466345877
tp3282
a(((S'NN'
p3283
S'lava'
p3284
tp3285
(S'VVZ'
p3286
S'envelop'
p3287
tp3288
tp3289
F-3.8174833933893453
tp3290
a(((S'NN'
p3291
S'lava'
p3292
tp3293
(S'VVZ'
p3294
S'crystallize'
p3295
tp3296
tp3297
F-3.8174833933893453
tp3298
a(((S'NNS'
p3299
S'basalt'
p3300
tp3301
(S'VVP'
p3302
S'make'
p3303
tp3304
tp3305
F-3.8207743509806753
tp3306
a(((S'NNS'
p3307
S'gas'
p3308
tp3309
(S'VVP'
p3310
S'burst'
p3311
tp3312
tp3313
F-3.8263028925809075
tp3314
a(((S'NP'
p3315
S'magma'
p3316
tp3317
(S'VVZ'
p3318
S'extrude'
p3319
tp3320
tp3321
F-3.850950259839622
tp3322
a(((S'NN'
p3323
S'magma'
p3324
tp3325
g3320
tp3326
F-3.850950259839622
tp3327
a(((S'NN'
p3328
S'gas'
p3329
tp3330
(S'VVP'
p3331
S'expand'
p3332
tp3333
tp3334
F-3.8567997075476876
tp3335
a(((S'NN'
p3336
S'gas'
p3337
tp3338
(S'VVP'
p3339
S'pass'
p3340
tp3341
tp3342
F-3.8567997075476876
tp3343
a(((S'NN'
p3344
S'gas'
p3345
tp3346
(S'VVZ'
p3347
S'sweep'
p3348
tp3349
tp3350
F-3.8567997075476876
tp3351
a(((S'NP'
p3352
S'gas'
p3353
tp3354
(S'VVZ'
p3355
S'expand'
p3356
tp3357
tp3358
F-3.8567997075476876
tp3359
a(((S'NNS'
p3360
S'gas'
p3361
tp3362
(S'VVP'
p3363
S'drift'
p3364
tp3365
tp3366
F-3.8567997075476876
tp3367
a(((S'NNS'
p3368
S'gas'
p3369
tp3370
(S'VVP'
p3371
S'sweep'
p3372
tp3373
tp3374
F-3.8567997075476876
tp3375
a(((S'NN'
p3376
S'cone'
p3377
tp3378
(S'VVZ'
p3379
S'measure'
p3380
tp3381
tp3382
F-3.859546544104267
tp3383
a(((S'VVP'
p3384
S'emit'
p3385
tp3386
(S'NN'
p3387
S'magma'
p3388
tp3389
tp3390
F-3.8672912138316717
tp3391
a(((S'VVZ'
p3392
S'launch'
p3393
tp3394
(S'NN'
p3395
S'lava'
p3396
tp3397
tp3398
F-3.867518182759569
tp3399
a(((S'VVP'
p3400
S'coat'
p3401
tp3402
(S'NN'
p3403
S'lava'
p3404
tp3405
tp3406
F-3.867518182759569
tp3407
a(((S'VVZ'
p3408
S'peer'
p3409
tp3410
(S'NN'
p3411
S'lava'
p3412
tp3413
tp3414
F-3.867518182759569
tp3415
a(((S'VVZ'
p3416
S'feed'
p3417
tp3418
(S'NN'
p3419
S'gas'
p3420
tp3421
tp3422
F-3.8906625392992535
tp3423
a(((S'VVP'
p3424
S'observe'
p3425
tp3426
g3309
tp3427
F-3.8906625392992535
tp3428
a(((S'NN'
p3429
S'dome'
p3430
tp3431
(S'VVZ'
p3432
S'send'
p3433
tp3434
tp3435
F-3.8917011737763993
tp3436
a(((S'NN'
p3437
S'dome'
p3438
tp3439
(S'VVZ'
p3440
S'measure'
p3441
tp3442
tp3443
F-3.9047639900196764
tp3444
a(((S'VVP'
p3445
S'reveal'
p3446
tp3447
(S'NN'
p3448
S'gas'
p3449
tp3450
tp3451
F-3.922352636186798
tp3452
a(((S'VVP'
p3453
S'collect'
p3454
tp3455
(S'NNS'
p3456
S'gas'
p3457
tp3458
tp3459
F-3.922352636186798
tp3460
a(((S'NN'
p3461
S'debris'
p3462
tp3463
(S'VVP'
p3464
S'fall'
p3465
tp3466
tp3467
F-3.936533062351928
tp3468
a(((S'NN'
p3469
S'debris'
p3470
tp3471
(S'VVP'
p3472
S'generate'
p3473
tp3474
tp3475
F-3.9671806553812177
tp3476
a(((S'VVP'
p3477
S'build'
p3478
tp3479
(S'NN'
p3480
S'cone'
p3481
tp3482
tp3483
F-3.967685019054749
tp3484
a(((S'VVZ'
p3485
S'keep'
p3486
tp3487
(S'NN'
p3488
S'magma'
p3489
tp3490
tp3491
F-3.9678550664547174
tp3492
a(((S'NNS'
p3493
S'gas'
p3494
tp3495
(S'VVP'
p3496
S'affect'
p3497
tp3498
tp3499
F-3.9765341259879463
tp3500
a(((S'VVP'
p3501
S'suspect'
p3502
tp3503
(S'NN'
p3504
S'lava'
p3505
tp3506
tp3507
F-3.9883302409152783
tp3508
a(((S'VVP'
p3509
S'plunge'
p3510
tp3511
(S'NN'
p3512
S'lava'
p3513
tp3514
tp3515
F-3.9883302409152783
tp3516
a(((S'NN'
p3517
S'gas'
p3518
tp3519
(S'VVP'
p3520
S'face'
p3521
tp3522
tp3523
F-4.00592924010383
tp3524
a(((S'NN'
p3525
S'lava'
p3526
tp3527
(S'VVZ'
p3528
S'harden'
p3529
tp3530
tp3531
F-4.009082604209028
tp3532
a(((S'NN'
p3533
S'gas'
p3534
tp3535
(S'VVZ'
p3536
S'mean'
p3537
tp3538
tp3539
F-4.037832964560548
tp3540
a((g1169
(S'NNS'
p3541
S'eruption'
p3542
tp3543
tp3544
F-4.062484543156822
tp3545
a(((S'VVZ'
p3546
S'dwarf'
p3547
tp3548
(S'NNS'
p3549
S'eruption'
p3550
tp3551
tp3552
F-4.062484543156822
tp3553
a(((S'VVP'
p3554
S'pile up'
p3555
tp3556
(S'NN'
p3557
S'eruption'
p3558
tp3559
tp3560
F-4.062484543156822
tp3561
a(((S'VVP'
p3562
S'produce'
p3563
tp3564
(S'NN'
p3565
S'basalt'
p3566
tp3567
tp3568
F-4.063865687888028
tp3569
a(((S'VVP'
p3570
S'exist'
p3571
tp3572
(S'NN'
p3573
S'magma'
p3574
tp3575
tp3576
F-4.065962939389198
tp3577
a(((S'VVZ'
p3578
S'extrude'
p3579
tp3580
(S'NN'
p3581
S'magma'
p3582
tp3583
tp3584
F-4.065962939389198
tp3585
a(((S'VVP'
p3586
S'extrude'
p3587
tp3588
(S'NN'
p3589
S'magma'
p3590
tp3591
tp3592
F-4.065962939389198
tp3593
a(((S'NN'
p3594
S'cone'
p3595
tp3596
(S'VVP'
p3597
S'start'
p3598
tp3599
tp3600
F-4.0982487506910115
tp3601
a(((S'VVZ'
p3602
S'find'
p3603
tp3604
(S'NN'
p3605
S'lava'
p3606
tp3607
tp3608
F-4.105637022586045
tp3609
a(((S'NN'
p3610
S'gas'
p3611
tp3612
(S'VVZ'
p3613
S'threaten'
p3614
tp3615
tp3616
F-4.12149128919896
tp3617
a(((S'NNS'
p3618
S'cone'
p3619
tp3620
(S'VVP'
p3621
S'create'
p3622
tp3623
tp3624
F-4.158954391333143
tp3625
a(((S'VVZ'
p3626
S'separate'
p3627
tp3628
(S'NN'
p3629
S'magma'
p3630
tp3631
tp3632
F-4.161784871512619
tp3633
a(((S'VVP'
p3634
S'track'
p3635
tp3636
(S'NN'
p3637
S'magma'
p3638
tp3639
tp3640
F-4.161784871512619
tp3641
a(((S'VVZ'
p3642
S'reflect'
p3643
tp3644
(S'NN'
p3645
S'magma'
p3646
tp3647
tp3648
F-4.161784871512619
tp3649
a(((S'VVP'
p3650
S'reflect'
p3651
tp3652
(S'NN'
p3653
S'magma'
p3654
tp3655
tp3656
F-4.161784871512619
tp3657
a(((S'VVZ'
p3658
S'consist'
p3659
tp3660
(S'NN'
p3661
S'magma'
p3662
tp3663
tp3664
F-4.161784871512619
tp3665
a(((S'VVZ'
p3666
S'drop'
p3667
tp3668
(S'NNS'
p3669
S'gas'
p3670
tp3671
tp3672
F-4.167305669292919
tp3673
a(((g2511
g2512
tp3674
(S'VVZ'
p3675
S'bubble'
p3676
tp3677
tp3678
F-4.171967425576747
tp3679
a(((S'NNS'
p3680
S'gas'
p3681
tp3682
(S'VVZ'
p3683
S'determine'
p3684
tp3685
tp3686
F-4.17811870669312
tp3687
a(((S'NN'
p3688
S'dome'
p3689
tp3690
(S'VVZ'
p3691
S'create'
p3692
tp3693
tp3694
F-4.206962366653474
tp3695
a(((S'VVP'
p3696
S'vary'
p3697
tp3698
(S'NNS'
p3699
S'magma'
p3700
tp3701
tp3702
F-4.2088865751931
tp3703
a(((S'NN'
p3704
S'magma'
p3705
tp3706
(S'VVZ'
p3707
S'push'
p3708
tp3709
tp3710
F-4.212175704363647
tp3711
a(((S'VVZ'
p3712
S'overflow'
p3713
tp3714
(S'NN'
p3715
S'lava'
p3716
tp3717
tp3718
F-4.219724169845569
tp3719
a(((S'VVP'
p3720
S'exhibit'
p3721
tp3722
(S'NN'
p3723
S'eruption'
p3724
tp3725
tp3726
F-4.224035129823558
tp3727
a(((S'VVP'
p3728
S'enter'
p3729
tp3730
(S'NN'
p3731
S'crater'
p3732
tp3733
tp3734
F-4.229856810087548
tp3735
a(((S'VVP'
p3736
S'enter'
p3737
tp3738
(S'NNS'
p3739
S'crater'
p3740
tp3741
tp3742
F-4.229856810087548
tp3743
a(((S'NNS'
p3744
S'gas'
p3745
tp3746
(S'VVZ'
p3747
S'hold'
p3748
tp3749
tp3750
F-4.234017612706206
tp3751
a(((S'NN'
p3752
S'lava'
p3753
tp3754
g2254
tp3755
F-4.238224692209894
tp3756
a(((S'NN'
p3757
S'lava'
p3758
tp3759
(S'VVZ'
p3760
S'flatten'
p3761
tp3762
tp3763
F-4.2807225460792795
tp3764
a(((S'VVZ'
p3765
S'note'
p3766
tp3767
(S'NN'
p3768
S'crater'
p3769
tp3770
tp3771
F-4.2874175873838105
tp3772
a(((S'NNS'
p3773
S'eruption'
p3774
tp3775
g2079
tp3776
F-4.298660855786658
tp3777
a((g3138
(S'VVZ'
p3778
S'cool'
p3779
tp3780
tp3781
F-4.301420278095976
tp3782
a(((S'NN'
p3783
S'crater'
p3784
tp3785
(S'VVZ'
p3786
S'fill'
p3787
tp3788
tp3789
F-4.301487757342126
tp3790
a(((S'VVP'
p3791
S'remember'
p3792
tp3793
(S'NN'
p3794
S'lava'
p3795
tp3796
tp3797
F-4.307451864956873
tp3798
a(((S'VVZ'
p3799
S'note'
p3800
tp3801
(S'NNS'
p3802
S'gas'
p3803
tp3804
tp3805
F-4.313414763697523
tp3806
a(((S'VVZ'
p3807
S'climb'
p3808
tp3809
(S'NNS'
p3810
S'crater'
p3811
tp3812
tp3813
F-4.315912788087635
tp3814
a(((S'NN'
p3815
S'crater'
p3816
tp3817
(S'VVZ'
p3818
S'sit'
p3819
tp3820
tp3821
F-4.31930006330954
tp3822
a(((S'NN'
p3823
S'crater'
p3824
tp3825
(S'VVP'
p3826
S'sit'
p3827
tp3828
tp3829
F-4.31930006330954
tp3830
a(((S'NN'
p3831
S'dome'
p3832
tp3833
(S'VVZ'
p3834
S'generate'
p3835
tp3836
tp3837
F-4.32308994037561
tp3838
a(((S'VVP'
p3839
S'think'
p3840
tp3841
(S'NN'
p3842
S'cone'
p3843
tp3844
tp3845
F-4.330832068452627
tp3846
a(((S'VVP'
p3847
S'include'
p3848
tp3849
(S'NN'
p3850
S'debris'
p3851
tp3852
tp3853
F-4.331320767561537
tp3854
a(((S'NN'
p3855
S'magma'
p3856
tp3857
(S'VVZ'
p3858
S'boil'
p3859
tp3860
tp3861
F-4.331908053087802
tp3862
a(((S'VVZ'
p3863
S'hold'
p3864
tp3865
(S'NP'
p3866
S'crater'
p3867
tp3868
tp3869
F-4.344222776577725
tp3870
a(((S'VVZ'
p3871
S'begin'
p3872
tp3873
(S'NN'
p3874
S'basalt'
p3875
tp3876
tp3877
F-4.3461762939346595
tp3878
a(((S'NNS'
p3879
S'crater'
p3880
tp3881
(S'VVZ'
p3882
S'describe'
p3883
tp3884
tp3885
F-4.346191661568911
tp3886
a(((S'NN'
p3887
S'crater'
p3888
tp3889
(S'VVZ'
p3890
S'feel'
p3891
tp3892
tp3893
F-4.346191661568911
tp3894
a(((S'VVP'
p3895
S'hold'
p3896
tp3897
(S'NNS'
p3898
S'gas'
p3899
tp3900
tp3901
F-4.370503501661063
tp3902
a(((S'VVZ'
p3903
S'hold'
p3904
tp3905
(S'NNS'
p3906
S'gas'
p3907
tp3908
tp3909
F-4.370503501661063
tp3910
a(((S'NN'
p3911
S'magma'
p3912
tp3913
(S'VVZ'
p3914
S'contrast'
p3915
tp3916
tp3917
F-4.3730810554953585
tp3918
a(((S'NN'
p3919
S'magma'
p3920
tp3921
(S'VVP'
p3922
S'stretch'
p3923
tp3924
tp3925
F-4.3730810554953585
tp3926
a(((S'VVP'
p3927
S'plan'
p3928
tp3929
(S'NN'
p3930
S'crater'
p3931
tp3932
tp3933
F-4.400301162048124
tp3934
a(((S'NN'
p3935
S'magma'
p3936
tp3937
(S'VVZ'
p3938
S'collect'
p3939
tp3940
tp3941
F-4.402338856442628
tp3942
a((g3101
(S'NN'
p3943
S'crater'
p3944
tp3945
tp3946
F-4.403646838272358
tp3947
a(((g3144
g3145
tp3948
(S'VVZ'
p3949
S'emerge'
p3950
tp3951
tp3952
F-4.4045310479417
tp3953
a(((S'NNS'
p3954
S'eruption'
p3955
tp3956
(S'VVP'
p3957
S'inject'
p3958
tp3959
tp3960
F-4.410346473013835
tp3961
a(((S'NN'
p3962
S'magma'
p3963
tp3964
(S'VVZ'
p3965
S'supply'
p3966
tp3967
tp3968
F-4.413881013671143
tp3969
a(((S'NN'
p3970
S'cone'
p3971
tp3972
(S'VVZ'
p3973
S'continue'
p3974
tp3975
tp3976
F-4.428306228722635
tp3977
a(((S'VVZ'
p3978
S'spew out'
p3979
tp3980
(S'NN'
p3981
S'lava'
p3982
tp3983
tp3984
F-4.439205644150996
tp3985
a(((S'VVZ'
p3986
S'continue'
p3987
tp3988
(S'NN'
p3989
S'cone'
p3990
tp3991
tp3992
F-4.444176479554141
tp3993
a((g3951
(S'NN'
p3994
S'magma'
p3995
tp3996
tp3997
F-4.4446064670950935
tp3998
a(((S'NN'
p3999
S'magma'
p4000
tp4001
(S'VVP'
p4002
S'mix'
p4003
tp4004
tp4005
F-4.4543180294039155
tp4006
a(((S'NN'
p4007
S'dome'
p4008
tp4009
(S'VVZ'
p4010
S'continue'
p4011
tp4012
tp4013
F-4.478857147724304
tp4014
a(((S'NN'
p4015
S'magma'
p4016
tp4017
(S'VVP'
p4018
S'expand'
p4019
tp4020
tp4021
F-4.482226701584801
tp4022
a(((S'VVZ'
p4023
S'eject'
p4024
tp4025
(S'NNS'
p4026
S'gas'
p4027
tp4028
tp4029
F-4.482518674043935
tp4030
a(((S'NNS'
p4031
S'cone'
p4032
tp4033
(S'VVP'
p4034
S'generate'
p4035
tp4036
tp4037
F-4.484892980892314
tp4038
a(((S'NN'
p4039
S'gas'
p4040
tp4041
(S'VVP'
p4042
S'explode'
p4043
tp4044
tp4045
F-4.503507262418195
tp4046
a(((S'NN'
p4047
S'lava'
p4048
tp4049
(S'VVZ'
p4050
S'drain'
p4051
tp4052
tp4053
F-4.533929364818048
tp4054
a(((S'VVZ'
p4055
S'love'
p4056
tp4057
(S'NN'
p4058
S'lava'
p4059
tp4060
tp4061
F-4.545012059257591
tp4062
a(((S'VVZ'
p4063
S'harden'
p4064
tp4065
(S'NN'
p4066
S'lava'
p4067
tp4068
tp4069
F-4.545012059257591
tp4070
a(((S'NN'
p4071
S'magma'
p4072
tp4073
(g3416
g3417
tp4074
tp4075
F-4.563854447831878
tp4076
a(((S'NN'
p4077
S'cone'
p4078
tp4079
(S'VVZ'
p4080
S'do'
p4081
tp4082
tp4083
F-4.565679404719295
tp4084
a(((S'VVZ'
p4085
S'go'
p4086
tp4087
(S'NN'
p4088
S'cone'
p4089
tp4090
tp4091
F-4.575037163302802
tp4092
a(((S'NN'
p4093
S'magma'
p4094
tp4095
(S'VVP'
p4096
S'tend'
p4097
tp4098
tp4099
F-4.599623827677909
tp4100
a((g1214
(S'NN'
p4101
S'magma'
p4102
tp4103
tp4104
F-4.6106033136747495
tp4105
a(((S'VVZ'
p4106
S'involve'
p4107
tp4108
(S'NN'
p4109
S'magma'
p4110
tp4111
tp4112
F-4.61139237735987
tp4113
a(((S'VVP'
p4114
S'expose'
p4115
tp4116
(S'NN'
p4117
S'magma'
p4118
tp4119
tp4120
F-4.61139237735987
tp4121
a(((S'NN'
p4122
S'magma'
p4123
tp4124
(S'VVZ'
p4125
S'arrive'
p4126
tp4127
tp4128
F-4.612623728426661
tp4129
a(((S'NN'
p4130
S'magma'
p4131
tp4132
(S'VVZ'
p4133
S'solidify'
p4134
tp4135
tp4136
F-4.618345837599322
tp4137
a(((S'VVP'
p4138
S'allow'
p4139
tp4140
(S'NNS'
p4141
S'gas'
p4142
tp4143
tp4144
F-4.623101183833912
tp4145
a(((S'NN'
p4146
S'eruption'
p4147
tp4148
g825
tp4149
F-4.625756238238247
tp4150
a(((S'NN'
p4151
S'magma'
p4152
tp4153
(S'VVZ'
p4154
S'burst'
p4155
tp4156
tp4157
F-4.641556628211339
tp4158
a(((S'NN'
p4159
S'cone'
p4160
tp4161
(S'VVZ'
p4162
S'remain'
p4163
tp4164
tp4165
F-4.65087459918839
tp4166
a(((S'NNS'
p4167
S'cone'
p4168
tp4169
(S'VVP'
p4170
S'remain'
p4171
tp4172
tp4173
F-4.65087459918839
tp4174
a(((S'VVZ'
p4175
S'look'
p4176
tp4177
(S'NN'
p4178
S'cone'
p4179
tp4180
tp4181
F-4.651985619228078
tp4182
a(((S'VVZ'
p4183
S'show'
p4184
tp4185
(S'NN'
p4186
S'debris'
p4187
tp4188
tp4189
F-4.674619377380583
tp4190
a(((S'VVZ'
p4191
S'top'
p4192
tp4193
(S'NNS'
p4194
S'eruption'
p4195
tp4196
tp4197
F-4.675671689087374
tp4198
a(((S'NNS'
p4199
S'gas'
p4200
tp4201
(S'VVZ'
p4202
S'explain'
p4203
tp4204
tp4205
F-4.68329029410162
tp4206
a(((S'NNS'
p4207
S'gas'
p4208
tp4209
(S'VVP'
p4210
S'cascade'
p4211
tp4212
tp4213
F-4.68329029410162
tp4214
a(((g4002
g4003
tp4215
(S'NN'
p4216
S'magma'
p4217
tp4218
tp4219
F-4.696192188882653
tp4220
a(((S'NN'
p4221
S'lava'
p4222
tp4223
(S'VVZ'
p4224
S'serve'
p4225
tp4226
tp4227
F-4.699270702120298
tp4228
a(((S'NNS'
p4229
S'gas'
p4230
tp4231
(S'VVP'
p4232
S'drive'
p4233
tp4234
tp4235
F-4.70810942152204
tp4236
a(((S'VVZ'
p4237
S'remain'
p4238
tp4239
(S'NN'
p4240
S'dome'
p4241
tp4242
tp4243
F-4.716928147702417
tp4244
a(((S'VVZ'
p4245
S'show'
p4246
tp4247
(S'NN'
p4248
S'cone'
p4249
tp4250
tp4251
F-4.726800333730484
tp4252
a((g3226
(S'VVP'
p4253
S'agree'
p4254
tp4255
tp4256
F-4.729838285257042
tp4257
a(((S'NNS'
p4258
S'eruption'
p4259
tp4260
(S'VVZ'
p4261
S'conclude'
p4262
tp4263
tp4264
F-4.729838285257042
tp4265
a(((S'VVP'
p4266
S'blast'
p4267
tp4268
(S'NN'
p4269
S'dome'
p4270
tp4271
tp4272
F-4.738430267591771
tp4273
a(((S'VVZ'
p4274
S'clear'
p4275
tp4276
(S'NN'
p4277
S'crater'
p4278
tp4279
tp4280
F-4.748816900949796
tp4281
a(((S'NN'
p4282
S'magma'
p4283
tp4284
(S'VVP'
p4285
S'feed'
p4286
tp4287
tp4288
F-4.765825538627317
tp4289
a(((S'VVZ'
p4290
S'release'
p4291
tp4292
(S'NN'
p4293
S'gas'
p4294
tp4295
tp4296
F-4.777134606195636
tp4297
a(((S'VVZ'
p4298
S'do'
p4299
tp4300
g3138
tp4301
F-4.77861073532548
tp4302
a(((S'NN'
p4303
S'magma'
p4304
tp4305
(S'VVP'
p4306
S'burn'
p4307
tp4308
tp4309
F-4.789285692236167
tp4310
a(((S'VVZ'
p4311
S'cascade'
p4312
tp4313
(S'NNS'
p4314
S'crater'
p4315
tp4316
tp4317
F-4.800204680377898
tp4318
a(((g4210
g4211
tp4319
(S'NN'
p4320
S'crater'
p4321
tp4322
tp4323
F-4.800204680377898
tp4324
a(((S'VVZ'
p4325
S'assess'
p4326
tp4327
(S'NNS'
p4328
S'eruption'
p4329
tp4330
tp4331
F-4.8169016147740304
tp4332
a(((S'VVP'
p4333
S'argue'
p4334
tp4335
(S'NNS'
p4336
S'eruption'
p4337
tp4338
tp4339
F-4.8169016147740304
tp4340
a(((S'VVP'
p4341
S'signal'
p4342
tp4343
g2543
tp4344
F-4.82061479704663
tp4345
a(((S'NN'
p4346
S'cone'
p4347
tp4348
(S'VVZ'
p4349
S'collapse'
p4350
tp4351
tp4352
F-4.822182522105196
tp4353
a(((S'VVZ'
p4354
S'allow'
p4355
tp4356
(S'NN'
p4357
S'gas'
p4358
tp4359
tp4360
F-4.828783092829227
tp4361
a(((S'VVZ'
p4362
S'allow'
p4363
tp4364
g3746
tp4365
F-4.828783092829227
tp4366
a(((S'NN'
p4367
S'lava'
p4368
tp4369
(S'VVZ'
p4370
S'meet'
p4371
tp4372
tp4373
F-4.831044531857497
tp4374
a(((S'NN'
p4375
S'eruption'
p4376
tp4377
(S'VVZ'
p4378
S'fire'
p4379
tp4380
tp4381
F-4.831711953093171
tp4382
a(((S'NN'
p4383
S'tephra'
p4384
tp4385
(S'VVP'
p4386
S'erupt'
p4387
tp4388
tp4389
F-4.847479301052156
tp4390
a(((S'VVP'
p4391
S'occur'
p4392
tp4393
(S'NN'
p4394
S'debris'
p4395
tp4396
tp4397
F-4.882084798210975
tp4398
a((g3021
(S'NN'
p4399
S'magma'
p4400
tp4401
tp4402
F-4.899820869099102
tp4403
a(((S'VVZ'
p4404
S'show'
p4405
tp4406
(S'NP'
p4407
S'cone'
p4408
tp4409
tp4410
F-4.912264684368659
tp4411
a((g523
(S'NN'
p4412
S'lava'
p4413
tp4414
tp4415
F-4.945830438329112
tp4416
a((g945
(S'NN'
p4417
S'lava'
p4418
tp4419
tp4420
F-4.945830438329112
tp4421
a(((S'VVZ'
p4422
S'build'
p4423
tp4424
(S'NNS'
p4425
S'cone'
p4426
tp4427
tp4428
F-4.952490045714831
tp4429
a(((S'VVP'
p4430
S'build'
p4431
tp4432
(S'NNS'
p4433
S'cone'
p4434
tp4435
tp4436
F-4.952490045714831
tp4437
a(((g2313
g2314
tp4438
(S'NN'
p4439
S'cone'
p4440
tp4441
tp4442
F-4.952490045714831
tp4443
a((g3908
(S'VVP'
p4444
S'bubble'
p4445
tp4446
tp4447
F-4.953178030039492
tp4448
a(((S'VVZ'
p4449
S'find'
p4450
tp4451
(S'NNS'
p4452
S'eruption'
p4453
tp4454
tp4455
F-4.954138245071312
tp4456
a(((g1460
g1461
tp4457
(S'NN'
p4458
S'eruption'
p4459
tp4460
tp4461
F-4.954138245071312
tp4462
a(((S'NNS'
p4463
S'gas'
p4464
tp4465
(S'VVP'
p4466
S'advance'
p4467
tp4468
tp4469
F-4.977019425087225
tp4470
a(((S'VVP'
p4471
S'escape'
p4472
tp4473
(S'NNS'
p4474
S'gas'
p4475
tp4476
tp4477
F-4.980534862409051
tp4478
a(((S'NN'
p4479
S'magma'
p4480
tp4481
(S'VVZ'
p4482
S'tend'
p4483
tp4484
tp4485
F-4.98707195099217
tp4486
a(((S'VVP'
p4487
S'live'
p4488
tp4489
(S'NNS'
p4490
S'cone'
p4491
tp4492
tp4493
F-4.992527666239677
tp4494
a(((S'NN'
p4495
S'crater'
p4496
tp4497
(S'VVP'
p4498
S'rim'
p4499
tp4500
tp4501
F-4.996741394088737
tp4502
a(((S'NN'
p4503
S'magma'
p4504
tp4505
g3538
tp4506
F-5.0079610068439395
tp4507
a(((S'NN'
p4508
S'lava'
p4509
tp4510
(S'VVZ'
p4511
S'accumulate'
p4512
tp4513
tp4514
F-5.009407517850726
tp4515
a(((S'NN'
p4516
S'magma'
p4517
tp4518
(S'VVZ'
p4519
S'enter'
p4520
tp4521
tp4522
F-5.012789216417389
tp4523
a(((S'NNS'
p4524
S'crater'
p4525
tp4526
(S'VVZ'
p4527
S'indicate'
p4528
tp4529
tp4530
F-5.0171624886041375
tp4531
a(((S'VVP'
p4532
S'feed'
p4533
tp4534
(S'NN'
p4535
S'magma'
p4536
tp4537
tp4538
F-5.021180745625147
tp4539
a(((S'VVP'
p4540
S'carry'
p4541
tp4542
g2492
tp4543
F-5.032488166706193
tp4544
a((g531
(S'NN'
p4545
S'lava'
p4546
tp4547
tp4548
F-5.041092367373168
tp4549
a(((S'NN'
p4550
S'gas'
p4551
tp4552
(S'VVZ'
p4553
S'need'
p4554
tp4555
tp4556
F-5.047898930418318
tp4557
a(((S'VVP'
p4558
S'remember'
p4559
tp4560
(S'NN'
p4561
S'eruption'
p4562
tp4563
tp4564
F-5.049176579481161
tp4565
a(((S'NNS'
p4566
S'gas'
p4567
tp4568
(S'VVP'
p4569
S'carry'
p4570
tp4571
tp4572
F-5.0713155013716
tp4573
a(((S'VVZ'
p4574
S'influence'
p4575
tp4576
(S'NN'
p4577
S'eruption'
p4578
tp4579
tp4580
F-5.087700397296033
tp4581
a(((S'NN'
p4582
S'magma'
p4583
tp4584
(S'VVZ'
p4585
S'well'
p4586
tp4587
tp4588
F-5.094204274123666
tp4589
a(((S'NN'
p4590
S'magma'
p4591
tp4592
(g2138
g2139
tp4593
tp4594
F-5.094204274123666
tp4595
a(((S'VVP'
p4596
S'chance'
p4597
tp4598
(S'NN'
p4599
S'magma'
p4600
tp4601
tp4602
F-5.099211090279768
tp4603
a(((S'NN'
p4604
S'cone'
p4605
tp4606
(g4245
g4246
tp4607
tp4608
F-5.101256653992501
tp4609
a(((S'NN'
p4610
S'debris'
p4611
tp4612
(S'VVZ'
p4613
S'come'
p4614
tp4615
tp4616
F-5.102498200253977
tp4617
a(((S'VVZ'
p4618
S'tell'
p4619
tp4620
(S'NN'
p4621
S'gas'
p4622
tp4623
tp4624
F-5.105661202274504
tp4625
a(((S'VVZ'
p4626
S'mean'
p4627
tp4628
(S'NN'
p4629
S'magma'
p4630
tp4631
tp4632
F-5.106837753742135
tp4633
a(((S'VVP'
p4634
S'calculate'
p4635
tp4636
(S'NN'
p4637
S'lava'
p4638
tp4639
tp4640
F-5.134598035848585
tp4641
a(((S'VVZ'
p4642
S'expand'
p4643
tp4644
g3921
tp4645
F-5.137784209389713
tp4646
a(((S'NN'
p4647
S'magma'
p4648
tp4649
g1933
tp4650
F-5.15411601862609
tp4651
a(((S'NN'
p4652
S'lava'
p4653
tp4654
(S'VVZ'
p4655
S'decrease'
p4656
tp4657
tp4658
F-5.1576074958077
tp4659
a(((S'NN'
p4660
S'magma'
p4661
tp4662
(S'VVZ'
p4663
S'burn'
p4664
tp4665
tp4666
F-5.164431066720356
tp4667
a(((S'VVP'
p4668
S'need'
p4669
tp4670
(S'NN'
p4671
S'crater'
p4672
tp4673
tp4674
F-5.169445723283552
tp4675
a(((S'VVZ'
p4676
S'determine'
p4677
tp4678
g3583
tp4679
F-5.175656202176684
tp4680
a(((S'NN'
p4681
S'magma'
p4682
tp4683
(S'VVZ'
p4684
S'extend'
p4685
tp4686
tp4687
F-5.199200487044763
tp4688
a(((S'VVZ'
p4689
S'indicate'
p4690
tp4691
(S'NNS'
p4692
S'gas'
p4693
tp4694
tp4695
F-5.201650313936261
tp4696
a(((S'VVZ'
p4697
S'fill'
p4698
tp4699
(S'NN'
p4700
S'crater'
p4701
tp4702
tp4703
F-5.216713589119074
tp4704
a(((S'VVZ'
p4705
S'blame'
p4706
tp4707
(S'NN'
p4708
S'eruption'
p4709
tp4710
tp4711
F-5.217866783909863
tp4712
a(((S'NP'
p4713
S'crater'
p4714
tp4715
(S'VVZ'
p4716
S'suggest'
p4717
tp4718
tp4719
F-5.2247450163617355
tp4720
a(((S'VVP'
p4721
S'edge'
p4722
tp4723
(S'NN'
p4724
S'crater'
p4725
tp4726
tp4727
F-5.240188383169727
tp4728
a((g2417
(g2215
g2216
tp4729
tp4730
F-5.241717311323491
tp4731
a(((S'VVP'
p4732
S'tend'
p4733
tp4734
g4017
tp4735
F-5.251812396402794
tp4736
a(((S'VVP'
p4737
S'affect'
p4738
tp4739
(S'NN'
p4740
S'magma'
p4741
tp4742
tp4743
F-5.289278140450029
tp4744
a(((S'VVP'
p4745
S'affect'
p4746
tp4747
(S'NNS'
p4748
S'magma'
p4749
tp4750
tp4751
F-5.289278140450029
tp4752
a(((g2544
g2545
tp4753
(S'NN'
p4754
S'lava'
p4755
tp4756
tp4757
F-5.293218604915714
tp4758
a(((S'NNS'
p4759
S'eruption'
p4760
tp4761
(S'VVP'
p4762
S'dot'
p4763
tp4764
tp4765
F-5.312264818901508
tp4766
a(((g4224
g4225
tp4767
(S'NN'
p4768
S'lava'
p4769
tp4770
tp4771
F-5.31670559282906
tp4772
a(((S'VVZ'
p4773
S'show'
p4774
tp4775
(S'NN'
p4776
S'dome'
p4777
tp4778
tp4779
F-5.343615180365622
tp4780
a(((S'NNS'
p4781
S'crater'
p4782
tp4783
(g2031
g2032
tp4784
tp4785
F-5.399863064706735
tp4786
a(((S'NP'
p4787
S'lava'
p4788
tp4789
(S'VVZ'
p4790
S'ooze'
p4791
tp4792
tp4793
F-5.404859026148152
tp4794
a(((S'NN'
p4795
S'lava'
p4796
tp4797
(S'VVZ'
p4798
S'ooze'
p4799
tp4800
tp4801
F-5.404859026148152
tp4802
a(((S'NN'
p4803
S'lava'
p4804
tp4805
g1004
tp4806
F-5.404859026148152
tp4807
a((g2626
(S'NN'
p4808
S'cone'
p4809
tp4810
tp4811
F-5.422711984640639
tp4812
a(((S'NN'
p4813
S'lava'
p4814
tp4815
(S'VVP'
p4816
S'accompany'
p4817
tp4818
tp4819
F-5.4421254645698225
tp4820
a(((S'NN'
p4821
S'lava'
p4822
tp4823
(S'VVZ'
p4824
S'depend'
p4825
tp4826
tp4827
F-5.4421254645698225
tp4828
a(((S'VVZ'
p4829
S'document'
p4830
tp4831
(S'NN'
p4832
S'eruption'
p4833
tp4834
tp4835
F-5.468965424112348
tp4836
a(((g1683
g1684
tp4837
(S'NNS'
p4838
S'eruption'
p4839
tp4840
tp4841
F-5.468965424112348
tp4842
a(((S'NN'
p4843
S'magma'
p4844
tp4845
(S'VVZ'
p4846
S'sit'
p4847
tp4848
tp4849
F-5.469667718140557
tp4850
a(((S'VVZ'
p4851
S'make'
p4852
tp4853
g857
tp4854
F-5.484532799385378
tp4855
a(((S'VVZ'
p4856
S'join'
p4857
tp4858
(S'NN'
p4859
S'lava'
p4860
tp4861
tp4862
F-5.492809090217986
tp4863
a(((S'NN'
p4864
S'lava'
p4865
tp4866
(S'VVP'
p4867
S'resemble'
p4868
tp4869
tp4870
F-5.511002280222719
tp4871
a(((S'NNS'
p4872
S'lava'
p4873
tp4874
(S'VVZ'
p4875
S'derive'
p4876
tp4877
tp4878
F-5.511002280222719
tp4879
a(((S'NN'
p4880
S'lava'
p4881
tp4882
g2516
tp4883
F-5.511002280222719
tp4884
a(((S'NN'
p4885
S'lava'
p4886
tp4887
(S'VVZ'
p4888
S'engulf'
p4889
tp4890
tp4891
F-5.511002280222719
tp4892
a(((S'VVZ'
p4893
S'slope'
p4894
tp4895
(S'NNS'
p4896
S'dome'
p4897
tp4898
tp4899
F-5.530710538767207
tp4900
a(((S'VVP'
p4901
S'determine'
p4902
tp4903
(S'NNS'
p4904
S'magma'
p4905
tp4906
tp4907
F-5.544484283163111
tp4908
a(((S'VVZ'
p4909
S'occur'
p4910
tp4911
(S'NNS'
p4912
S'dome'
p4913
tp4914
tp4915
F-5.57650728744211
tp4916
a(((S'NN'
p4917
S'lava'
p4918
tp4919
(S'VVZ'
p4920
S'roar'
p4921
tp4922
tp4923
F-5.579044958414173
tp4924
a(((S'NNS'
p4925
S'lava'
p4926
tp4927
(S'VVP'
p4928
S'ooze'
p4929
tp4930
tp4931
F-5.579044958414173
tp4932
a(((g2002
g2003
tp4933
(S'NNS'
p4934
S'eruption'
p4935
tp4936
tp4937
F-5.590308366408427
tp4938
a(((S'VVP'
p4939
S'conclude'
p4940
tp4941
(S'NN'
p4942
S'eruption'
p4943
tp4944
tp4945
F-5.590308366408427
tp4946
a(((g4261
g4262
tp4947
(S'NNS'
p4948
S'eruption'
p4949
tp4950
tp4951
F-5.590308366408427
tp4952
a(((S'VVP'
p4953
S'die'
p4954
tp4955
(S'NN'
p4956
S'gas'
p4957
tp4958
tp4959
F-5.6136066607859
tp4960
a((g3897
(S'NN'
p4961
S'magma'
p4962
tp4963
tp4964
F-5.615278781102904
tp4965
a(((S'VVZ'
p4966
S'hold'
p4967
tp4968
(S'NN'
p4969
S'magma'
p4970
tp4971
tp4972
F-5.615278781102904
tp4973
a(((S'NN'
p4974
S'cone'
p4975
tp4976
(S'VVZ'
p4977
S'rise'
p4978
tp4979
tp4980
F-5.637216591052036
tp4981
a(((S'NN'
p4982
S'lava'
p4983
tp4984
(S'VVP'
p4985
S'blanket'
p4986
tp4987
tp4988
F-5.646283460901074
tp4989
a(((S'NN'
p4990
S'magma'
p4991
tp4992
g4044
tp4993
F-5.664340070308061
tp4994
a(((S'NN'
p4995
S'magma'
p4996
tp4997
(S'VVZ'
p4998
S'explode'
p4999
tp5000
tp5001
F-5.664340070308061
tp5002
a(((S'NN'
p5003
S'eruption'
p5004
tp5005
(S'VVZ'
p5006
S'focus'
p5007
tp5008
tp5009
F-5.667860983634431
tp5010
a(((S'NN'
p5011
S'magma'
p5012
tp5013
(S'VVZ'
p5014
S'understand'
p5015
tp5016
tp5017
F-5.696162433185721
tp5018
a(((S'NN'
p5019
S'dome'
p5020
tp5021
(S'VVZ'
p5022
S'rise'
p5023
tp5024
tp5025
F-5.7028831354499605
tp5026
a(((S'NNS'
p5027
S'magma'
p5028
tp5029
g4140
tp5030
F-5.7175019143278085
tp5031
a(((S'VVP'
p5032
S'shake'
p5033
tp5034
(S'NN'
p5035
S'magma'
p5036
tp5037
tp5038
F-5.71983380207307
tp5039
a(((g4716
g4717
tp5040
(S'NN'
p5041
S'crater'
p5042
tp5043
tp5044
F-5.732458614914078
tp5045
a(((S'NNS'
p5046
S'crater'
p5047
tp5048
(S'VVP'
p5049
S'lie'
p5050
tp5051
tp5052
F-5.741783887447301
tp5053
a(((S'NN'
p5054
S'lava'
p5055
tp5056
(S'VVP'
p5057
S'consist'
p5058
tp5059
tp5060
F-5.742676881863121
tp5061
a(((S'VVZ'
p5062
S'sit'
p5063
tp5064
(S'NN'
p5065
S'magma'
p5066
tp5067
tp5068
F-5.754264794766095
tp5069
a(((S'VVP'
p5070
S'suggest'
p5071
tp5072
(S'NN'
p5073
S'gas'
p5074
tp5075
tp5076
F-5.7658280844520595
tp5077
a(((S'NNS'
p5078
S'gas'
p5079
tp5080
g5051
tp5081
F-5.773006521320527
tp5082
a(((S'VVP'
p5083
S'die'
p5084
tp5085
(S'NP'
p5086
S'gas'
p5087
tp5088
tp5089
F-5.7873179972633455
tp5090
a(((S'VVZ'
p5091
S'solidify'
p5092
tp5093
(S'NN'
p5094
S'magma'
p5095
tp5096
tp5097
F-5.788491681109919
tp5098
a(((S'VVZ'
p5099
S'describe'
p5100
tp5101
(S'NN'
p5102
S'magma'
p5103
tp5104
tp5105
F-5.788491681109919
tp5106
a(((S'NN'
p5107
S'gas'
p5108
tp5109
(S'VVZ'
p5110
S'blow'
p5111
tp5112
tp5113
F-5.791602148678781
tp5114
a(((S'VVZ'
p5115
S'produce'
p5116
tp5117
g4976
tp5118
F-5.795586398376542
tp5119
a(((S'NNS'
p5120
S'cone'
p5121
tp5122
(g3562
g3563
tp5123
tp5124
F-5.816406721729417
tp5125
a(((S'VVZ'
p5126
S'smell'
p5127
tp5128
(S'NNS'
p5129
S'eruption'
p5130
tp5131
tp5132
F-5.825450101089004
tp5133
a(((S'NNS'
p5134
S'gas'
p5135
tp5136
(S'VVP'
p5137
S'contain'
p5138
tp5139
tp5140
F-5.834429708044928
tp5141
a(((S'VVZ'
p5142
S'contain'
p5143
tp5144
g3674
tp5145
F-5.841157341707779
tp5146
a(((S'NN'
p5147
S'lava'
p5148
tp5149
(S'VVZ'
p5150
S'wait'
p5151
tp5152
tp5153
F-5.843448220867493
tp5154
a(((S'VVZ'
p5155
S'add'
p5156
tp5157
(S'NN'
p5158
S'magma'
p5159
tp5160
tp5161
F-5.856347338806948
tp5162
a(((S'NN'
p5163
S'lava'
p5164
tp5165
(S'VVZ'
p5166
S'descend'
p5167
tp5168
tp5169
F-5.872510381927059
tp5170
a(((S'NN'
p5171
S'basalt'
p5172
tp5173
(S'VVZ'
p5174
S'form'
p5175
tp5176
tp5177
F-5.876244886131662
tp5178
a(((S'VVP'
p5179
S'know'
p5180
tp5181
(S'NN'
p5182
S'cone'
p5183
tp5184
tp5185
F-5.897807253246938
tp5186
a(((S'VVZ'
p5187
S'lie'
p5188
tp5189
(S'NNS'
p5190
S'crater'
p5191
tp5192
tp5193
F-5.901328295056262
tp5194
a(((S'VVZ'
p5195
S'lie'
p5196
tp5197
(S'NN'
p5198
S'crater'
p5199
tp5200
tp5201
F-5.901328295056262
tp5202
a(((S'NN'
p5203
S'lava'
p5204
tp5205
(S'VVP'
p5206
S'raise'
p5207
tp5208
tp5209
F-5.907736794963941
tp5210
a(((S'NNS'
p5211
S'lava'
p5212
tp5213
g1486
tp5214
F-5.907736794963941
tp5215
a(((g5049
g5050
tp5216
(S'NN'
p5217
S'gas'
p5218
tp5219
tp5220
F-5.93557593249202
tp5221
a(((S'VVZ'
p5222
S'lie'
p5223
tp5224
(S'NN'
p5225
S'gas'
p5226
tp5227
tp5228
F-5.93557593249202
tp5229
a(((S'VVZ'
p5230
S's'
p5231
tp5232
(S'NN'
p5233
S'volcan'
p5234
tp5235
tp5236
F-5.952783213657671
tp5237
a(((S'NN'
p5238
S'gas'
p5239
tp5240
(S'VVP'
p5241
S'appear'
p5242
tp5243
tp5244
F-5.956249690118633
tp5245
a(((S'VVP'
p5246
S'explode'
p5247
tp5248
g4073
tp5249
F-5.95668618410074
tp5250
a(((S'VVZ'
p5251
S'display'
p5252
tp5253
(S'NN'
p5254
S'lava'
p5255
tp5256
tp5257
F-5.990260894771973
tp5258
a(((S'VVP'
p5259
S'extrude'
p5260
tp5261
(S'NN'
p5262
S'lava'
p5263
tp5264
tp5265
F-6.013721602499813
tp5266
a(((S'VVZ'
p5267
S'form'
p5268
tp5269
(S'NN'
p5270
S'basalt'
p5271
tp5272
tp5273
F-6.01693545620781
tp5274
a(((S'VVZ'
p5275
S'begin'
p5276
tp5277
(S'NN'
p5278
S'cone'
p5279
tp5280
tp5281
F-6.018261994721951
tp5282
a(((S'NN'
p5283
S'lava'
p5284
tp5285
(S'VVZ'
p5286
S'overlie'
p5287
tp5288
tp5289
F-6.034301496151834
tp5290
a(((S'VVP'
p5291
S'precede'
p5292
tp5293
(S'NN'
p5294
S'eruption'
p5295
tp5296
tp5297
F-6.053808841137481
tp5298
a((g3796
(S'VVZ'
p5299
S'stone'
p5300
tp5301
tp5302
F-6.062188759842764
tp5303
a(((S'NN'
p5304
S'magma'
p5305
tp5306
(S'VVZ'
p5307
S'fill'
p5308
tp5309
tp5310
F-6.078495103039392
tp5311
a(((S'VVZ'
p5312
S'begin'
p5313
tp5314
(S'NN'
p5315
S'dome'
p5316
tp5317
tp5318
F-6.089373232754187
tp5319
a(((S'NP'
p5320
S'lava'
p5321
tp5322
(S'VVZ'
p5323
S'shoot'
p5324
tp5325
tp5326
F-6.096619197780579
tp5327
a(((S'NN'
p5328
S'magma'
p5329
tp5330
(S'VVZ'
p5331
S'get'
p5332
tp5333
tp5334
F-6.11487950880196
tp5335
a(((S'NNS'
p5336
S'crater'
p5337
tp5338
(S'VVP'
p5339
S'contain'
p5340
tp5341
tp5342
F-6.12076774611564
tp5343
a(((S'NN'
p5344
S'crater'
p5345
tp5346
(S'VVZ'
p5347
S'contain'
p5348
tp5349
tp5350
F-6.12076774611564
tp5351
a(((S'NN'
p5352
S'lava'
p5353
tp5354
g309
tp5355
F-6.124144995125338
tp5356
a(((S'VVZ'
p5357
S'indicate'
p5358
tp5359
(S'NN'
p5360
S'magma'
p5361
tp5362
tp5363
F-6.128882048237766
tp5364
a(((S'NN'
p5365
S'crater'
p5366
tp5367
g3381
tp5368
F-6.159387058793764
tp5369
a(((S'VVP'
p5370
S'allow'
p5371
tp5372
(S'NN'
p5373
S'magma'
p5374
tp5375
tp5376
F-6.184500486861558
tp5377
a((g2400
(S'NN'
p5378
S'lava'
p5379
tp5380
tp5381
F-6.201827892940338
tp5382
a((g3857
(S'VVZ'
p5383
S'bubble'
p5384
tp5385
tp5386
F-6.213188399719477
tp5387
a(((S'NNS'
p5388
S'cone'
p5389
tp5390
(S'VVP'
p5391
S'begin'
p5392
tp5393
tp5394
F-6.2150652755000975
tp5395
a(((S'VVP'
p5396
S'resemble'
p5397
tp5398
(S'NN'
p5399
S'lava'
p5400
tp5401
tp5402
F-6.2241455532947425
tp5403
a(((S'NN'
p5404
S'eruption'
p5405
tp5406
(S'VVZ'
p5407
S'depend'
p5408
tp5409
tp5410
F-6.24231816574131
tp5411
a(((S'NN'
p5412
S'eruption'
p5413
tp5414
g3037
tp5415
F-6.24231816574131
tp5416
a(((S'NN'
p5417
S'eruption'
p5418
tp5419
(S'VVZ'
p5420
S'lack'
p5421
tp5422
tp5423
F-6.24231816574131
tp5424
a(((S'NN'
p5425
S'eruption'
p5426
tp5427
(S'VVZ'
p5428
S'drain'
p5429
tp5430
tp5431
F-6.244142199902361
tp5432
a(((S'NP'
p5433
S'eruption'
p5434
tp5435
g4792
tp5436
F-6.244142199902361
tp5437
a(((S'NN'
p5438
S'gas'
p5439
tp5440
(S'VVP'
p5441
S'cover'
p5442
tp5443
tp5444
F-6.250432367277424
tp5445
a(((S'VVP'
p5446
S'contain'
p5447
tp5448
(S'NN'
p5449
S'crater'
p5450
tp5451
tp5452
F-6.284282565876331
tp5453
a(((S'NNS'
p5454
S'eruption'
p5455
tp5456
(g1151
g1152
tp5457
tp5458
F-6.3201928123791475
tp5459
a(((S'NN'
p5460
S'eruption'
p5461
tp5462
(S'VVP'
p5463
S'resemble'
p5464
tp5465
tp5466
F-6.3201928123791475
tp5467
a(((S'VVP'
p5468
S'contain'
p5469
tp5470
(S'NNS'
p5471
S'gas'
p5472
tp5473
tp5474
F-6.320530908391607
tp5475
a(((S'VVP'
p5476
S'believe'
p5477
tp5478
(S'NN'
p5479
S'crater'
p5480
tp5481
tp5482
F-6.323247857814447
tp5483
a(((S'NN'
p5484
S'gas'
p5485
tp5486
(S'VVP'
p5487
S'grow'
p5488
tp5489
tp5490
F-6.3267177324848385
tp5491
a((g3170
(S'VVP'
p5492
S'need'
p5493
tp5494
tp5495
F-6.32895552760416
tp5496
a(((S'VVZ'
p5497
S'believe'
p5498
tp5499
(S'VVZ'
p5500
S'gas'
p5501
tp5502
tp5503
F-6.359700428681328
tp5504
a(((S'VVP'
p5505
S'believe'
p5506
tp5507
(S'NN'
p5508
S'gas'
p5509
tp5510
tp5511
F-6.359700428681328
tp5512
a(((S'VVZ'
p5513
S'suggest'
p5514
tp5515
(S'NN'
p5516
S'magma'
p5517
tp5518
tp5519
F-6.36543241628214
tp5520
a(((S'VVZ'
p5521
S'bubble'
p5522
tp5523
(S'NN'
p5524
S'magma'
p5525
tp5526
tp5527
F-6.368436865264969
tp5528
a(((S'VVP'
p5529
S'refer'
p5530
tp5531
(S'NN'
p5532
S'eruption'
p5533
tp5534
tp5535
F-6.375608620212693
tp5536
a(((S'NN'
p5537
S'crater'
p5538
tp5539
(S'VVP'
p5540
S'report'
p5541
tp5542
tp5543
F-6.386517803955088
tp5544
a(((S'NN'
p5545
S'eruption'
p5546
tp5547
(S'VVP'
p5548
S'relate'
p5549
tp5550
tp5551
F-6.397136384617798
tp5552
a(((S'NNS'
p5553
S'gas'
p5554
tp5555
(S'VVZ'
p5556
S'lead'
p5557
tp5558
tp5559
F-6.402154991813592
tp5560
a(((S'NN'
p5561
S'gas'
p5562
tp5563
(S'VVZ'
p5564
S'provide'
p5565
tp5566
tp5567
F-6.437394174179174
tp5568
a(((S'NN'
p5569
S'lava'
p5570
tp5571
(S'VVZ'
p5572
S'boil'
p5573
tp5574
tp5575
F-6.458176193802125
tp5576
a((g4620
(S'NN'
p5577
S'magma'
p5578
tp5579
tp5580
F-6.458904262764077
tp5581
a(((S'NNS'
p5582
S'eruption'
p5583
tp5584
(g2398
g2399
tp5585
tp5586
F-6.473181955009189
tp5587
a(((g3541
g3542
tp5588
g2643
tp5589
F-6.474671081276553
tp5590
a((g1177
(S'NN'
p5591
S'lava'
p5592
tp5593
tp5594
F-6.501154307596688
tp5595
a(((S'VVP'
p5596
S'exist'
p5597
tp5598
(S'NN'
p5599
S'lava'
p5600
tp5601
tp5602
F-6.522995735883791
tp5603
a(((S'VVP'
p5604
S'want'
p5605
tp5606
(S'NN'
p5607
S'magma'
p5608
tp5609
tp5610
F-6.5264866132714685
tp5611
a(((S'NN'
p5612
S'magma'
p5613
tp5614
(S'VVZ'
p5615
S'head'
p5616
tp5617
tp5618
F-6.526828134552331
tp5619
a(((S'VVZ'
p5620
S'fill'
p5621
tp5622
(S'NN'
p5623
S'magma'
p5624
tp5625
tp5626
F-6.551679193310708
tp5627
a(((S'NNS'
p5628
S'crater'
p5629
tp5630
(S'VVP'
p5631
S'provide'
p5632
tp5633
tp5634
F-6.55204793535448
tp5635
a(((S'NN'
p5636
S'crater'
p5637
tp5638
(S'VVP'
p5639
S'provide'
p5640
tp5641
tp5642
F-6.55204793535448
tp5643
a(((S'NP'
p5644
S'crater'
p5645
tp5646
(S'VVZ'
p5647
S'give'
p5648
tp5649
tp5650
F-6.570201049839772
tp5651
a(((g5556
g5557
tp5652
(S'NN'
p5653
S'gas'
p5654
tp5655
tp5656
F-6.570969414450567
tp5657
a(((S'VVP'
p5658
S'precede'
p5659
tp5660
(S'NNS'
p5661
S'eruption'
p5662
tp5663
tp5664
F-6.582848603908242
tp5665
a(((S'VVZ'
p5666
S'get'
p5667
tp5668
(S'NN'
p5669
S'magma'
p5670
tp5671
tp5672
F-6.586762718317156
tp5673
a(((S'NNS'
p5674
S'gas'
p5675
tp5676
g5633
tp5677
F-6.587227770889851
tp5678
a(((S'VVP'
p5679
S'cross'
p5680
tp5681
(S'NN'
p5682
S'lava'
p5683
tp5684
tp5685
F-6.595598119681386
tp5686
a(((S'NN'
p5687
S'gas'
p5688
tp5689
g3093
tp5690
F-6.605470080947366
tp5691
a(((S'NP'
p5692
S'eruption'
p5693
tp5694
(g5259
g5260
tp5695
tp5696
F-6.622702012726887
tp5697
a(((S'NNS'
p5698
S'eruption'
p5699
tp5700
(S'VVP'
p5701
S'pose'
p5702
tp5703
tp5704
F-6.642963156442592
tp5705
a(((S'VVZ'
p5706
S'create'
p5707
tp5708
(S'NN'
p5709
S'gas'
p5710
tp5711
tp5712
F-6.663467561169135
tp5713
a(((S'NNS'
p5714
S'eruption'
p5715
tp5716
(S'VVP'
p5717
S'vary'
p5718
tp5719
tp5720
F-6.697450693850867
tp5721
a(((S'VVZ'
p5722
S'start'
p5723
tp5724
(S'NN'
p5725
S'gas'
p5726
tp5727
tp5728
F-6.720457544358058
tp5729
a(((S'VVP'
p5730
S'indicate'
p5731
tp5732
(S'NN'
p5733
S'magma'
p5734
tp5735
tp5736
F-6.729969987917885
tp5737
a(((S'NNS'
p5738
S'eruption'
p5739
tp5740
(S'VVP'
p5741
S'consist'
p5742
tp5743
tp5744
F-6.768982088470752
tp5745
a(((S'NN'
p5746
S'eruption'
p5747
tp5748
(S'VVZ'
p5749
S'raise'
p5750
tp5751
tp5752
F-6.768982088470752
tp5753
a(((S'NN'
p5754
S'eruption'
p5755
tp5756
(S'VVP'
p5757
S'consist'
p5758
tp5759
tp5760
F-6.768982088470752
tp5761
a((g2288
(S'NN'
p5762
S'eruption'
p5763
tp5764
tp5765
F-6.783776394087765
tp5766
a(((S'NN'
p5767
S'lava'
p5768
tp5769
(S'VVZ'
p5770
S'enter'
p5771
tp5772
tp5773
F-6.792976954168198
tp5774
a(((S'VVZ'
p5775
S'strike'
p5776
tp5777
(S'NN'
p5778
S'lava'
p5779
tp5780
tp5781
F-6.808772237195085
tp5782
a(((S'VVP'
p5783
S'develop'
p5784
tp5785
(S'NN'
p5786
S'magma'
p5787
tp5788
tp5789
F-6.822554269645204
tp5790
a(((S'NN'
p5791
S'crater'
p5792
tp5793
(S'VVP'
p5794
S'think'
p5795
tp5796
tp5797
F-6.837137925731623
tp5798
a(((S'NP'
p5799
S'eruption'
p5800
tp5801
g3258
tp5802
F-6.840972055735209
tp5803
a(((S'NN'
p5804
S'eruption'
p5805
tp5806
(S'VVP'
p5807
S'vary'
p5808
tp5809
tp5810
F-6.840972055735209
tp5811
a(((S'NN'
p5812
S'lava'
p5813
tp5814
(S'VVZ'
p5815
S'emerge'
p5816
tp5817
tp5818
F-6.856469073806478
tp5819
a(((g4647
g4648
tp5820
g2790
tp5821
F-6.87043676682069
tp5822
a(((S'NN'
p5823
S'gas'
p5824
tp5825
(S'VVP'
p5826
S'think'
p5827
tp5828
tp5829
F-6.873720880366204
tp5830
a(((S'VVP'
p5831
S'pick'
p5832
tp5833
(S'NN'
p5834
S'lava'
p5835
tp5836
tp5837
F-6.878365373553431
tp5838
a(((S'NN'
p5839
S'gas'
p5840
tp5841
(S'VVZ'
p5842
S'reach'
p5843
tp5844
tp5845
F-6.889192083968057
tp5846
a(((S'VVZ'
p5847
S'demonstrate'
p5848
tp5849
(S'NNS'
p5850
S'eruption'
p5851
tp5852
tp5853
F-6.90984482984088
tp5854
a((g4049
(S'VVZ'
p5855
S'feed'
p5856
tp5857
tp5858
F-6.935152019763581
tp5859
a(((S'NN'
p5860
S'eruption'
p5861
tp5862
g5301
tp5863
F-6.98369933607096
tp5864
a(((S'NN'
p5865
S'lava'
p5866
tp5867
(S'VVZ'
p5868
S'tend'
p5869
tp5870
tp5871
F-6.988957290477777
tp5872
a(((S'NN'
p5873
S'crater'
p5874
tp5875
(S'VVP'
p5876
S'reach'
p5877
tp5878
tp5879
F-6.992781451395354
tp5880
a(((S'NNS'
p5881
S'gas'
p5882
tp5883
(S'VVZ'
p5884
S'generate'
p5885
tp5886
tp5887
F-6.993622774483663
tp5888
a(((S'NN'
p5889
S'magma'
p5890
tp5891
(g5070
g5071
tp5892
tp5893
F-7.011228610117678
tp5894
a(((S'NNS'
p5895
S'gas'
p5896
tp5897
(g1994
g1995
tp5898
tp5899
F-7.030132411759945
tp5900
a(((S'NN'
p5901
S'magma'
p5902
tp5903
(S'VVZ'
p5904
S'set'
p5905
tp5906
tp5907
F-7.03721180218093
tp5908
a(((S'VVP'
p5909
S'think'
p5910
tp5911
(S'NNS'
p5912
S'gas'
p5913
tp5914
tp5915
F-7.045238046702989
tp5916
a(((S'NN'
p5917
S'lava'
p5918
tp5919
(S'VVP'
p5920
S'feed'
p5921
tp5922
tp5923
F-7.074248554276237
tp5924
a(((S'VVZ'
p5925
S'protect'
p5926
tp5927
(S'NNS'
p5928
S'eruption'
p5929
tp5930
tp5931
F-7.074499561407264
tp5932
a(((S'NN'
p5933
S'magma'
p5934
tp5935
(S'VVZ'
p5936
S'lie'
p5937
tp5938
tp5939
F-7.079631096207447
tp5940
a(((g1122
g1123
tp5941
(S'VVZ'
p5942
S'pour'
p5943
tp5944
tp5945
F-7.096316161606247
tp5946
a(((S'NN'
p5947
S'eruption'
p5948
tp5949
(S'VVZ'
p5950
S'ask'
p5951
tp5952
tp5953
F-7.121802898305843
tp5954
a(((S'NN'
p5955
S'lava'
p5956
tp5957
(S'VVP'
p5958
S'tend'
p5959
tp5960
tp5961
F-7.122374135047452
tp5962
a(((S'NNS'
p5963
S'lava'
p5964
tp5965
(S'VVP'
p5966
S'tend'
p5967
tp5968
tp5969
F-7.122374135047452
tp5970
a(((S'NN'
p5971
S'lava'
p5972
tp5973
(S'VVP'
p5974
S'reveal'
p5975
tp5976
tp5977
F-7.127681147496215
tp5978
a(((S'NN'
p5979
S'lava'
p5980
tp5981
(g3453
g3454
tp5982
tp5983
F-7.127681147496215
tp5984
a(((S'NN'
p5985
S'gas'
p5986
tp5987
(S'VVZ'
p5988
S'generate'
p5989
tp5990
tp5991
F-7.132654556915111
tp5992
a(((S'VVZ'
p5993
S'reach'
p5994
tp5995
(S'NN'
p5996
S'crater'
p5997
tp5998
tp5999
F-7.161277035175397
tp6000
a(((S'VVP'
p6001
S'reach'
p6002
tp6003
(S'NN'
p6004
S'crater'
p6005
tp6006
tp6007
F-7.161277035175397
tp6008
a(((S'VVZ'
p6009
S'display'
p6010
tp6011
(S'NN'
p6012
S'eruption'
p6013
tp6014
tp6015
F-7.168793016469118
tp6016
a((g2489
(S'NN'
p6017
S'eruption'
p6018
tp6019
tp6020
F-7.168793016469118
tp6021
a(((S'NN'
p6022
S'magma'
p6023
tp6024
(S'VVZ'
p6025
S'travel'
p6026
tp6027
tp6028
F-7.191246793597242
tp6029
a(((S'VVZ'
p6030
S'depend'
p6031
tp6032
(S'NN'
p6033
S'eruption'
p6034
tp6035
tp6036
F-7.195094903147034
tp6037
a(((S'VVP'
p6038
S'involve'
p6039
tp6040
(S'NP'
p6041
S'lava'
p6042
tp6043
tp6044
F-7.195601632892969
tp6045
a((g2752
(S'NN'
p6046
S'lava'
p6047
tp6048
tp6049
F-7.195601632892969
tp6050
a((g6040
(S'NN'
p6051
S'lava'
p6052
tp6053
tp6054
F-7.195601632892969
tp6055
a(((S'VVZ'
p6056
S'fall'
p6057
tp6058
(S'NN'
p6059
S'crater'
p6060
tp6061
tp6062
F-7.2125551320725005
tp6063
a(((S'VVZ'
p6064
S'fall'
p6065
tp6066
(g5628
g5629
tp6067
tp6068
F-7.2125551320725005
tp6069
a(((S'VVZ'
p6070
S'continue'
p6071
tp6072
(S'NN'
p6073
S'gas'
p6074
tp6075
tp6076
F-7.219370717675446
tp6077
a(((S'NN'
p6078
S'lava'
p6079
tp6080
(S'VVZ'
p6081
S'slow'
p6082
tp6083
tp6084
F-7.2279889672415765
tp6085
a(((S'NN'
p6086
S'lava'
p6087
tp6088
(S'VVZ'
p6089
S'pass'
p6090
tp6091
tp6092
F-7.233394501274188
tp6093
a(((S'NNS'
p6094
S'gas'
p6095
tp6096
(S'VVZ'
p6097
S'remain'
p6098
tp6099
tp6100
F-7.24867153690817
tp6101
a((g6066
(g5674
g5675
tp6102
tp6103
F-7.253696356041993
tp6104
a(((S'NN'
p6105
S'lava'
p6106
tp6107
(S'VVZ'
p6108
S'push'
p6109
tp6110
tp6111
F-7.255790979617128
tp6112
a(((S'NN'
p6113
S'crater'
p6114
tp6115
(S'VVZ'
p6116
S'do'
p6117
tp6118
tp6119
F-7.257733036341563
tp6120
a((g3271
(S'NN'
p6121
S'eruption'
p6122
tp6123
tp6124
F-7.2618644743630805
tp6125
a(((S'NN'
p6126
S'magma'
p6127
tp6128
(S'VVZ'
p6129
S'contain'
p6130
tp6131
tp6132
F-7.296491051619525
tp6133
a(((S'NNS'
p6134
S'magma'
p6135
tp6136
g5139
tp6137
F-7.296491051619525
tp6138
a(((S'NN'
p6139
S'crater'
p6140
tp6141
(S'VVZ'
p6142
S'look'
p6143
tp6144
tp6145
F-7.327779277335907
tp6146
a(((S'VVP'
p6147
S'crater'
p6148
tp6149
(S'VVZ'
p6150
S'look'
p6151
tp6152
tp6153
F-7.327779277335907
tp6154
a(((S'VVZ'
p6155
S'expose'
p6156
tp6157
(S'NN'
p6158
S'lava'
p6159
tp6160
tp6161
F-7.347115815368847
tp6162
a(((S'VVP'
p6163
S'suggest'
p6164
tp6165
(S'NN'
p6166
S'magma'
p6167
tp6168
tp6169
F-7.35236365877608
tp6170
a(((g4816
g4817
tp6171
(S'NN'
p6172
S'eruption'
p6173
tp6174
tp6175
F-7.353760172583213
tp6176
a(((S'NN'
p6177
S'gas'
p6178
tp6179
(S'VVZ'
p6180
S'remain'
p6181
tp6182
tp6183
F-7.383251888496035
tp6184
a(((S'VVZ'
p6185
S'turn'
p6186
tp6187
g884
tp6188
F-7.396263163119336
tp6189
a(((S'NNS'
p6190
S'magma'
p6191
tp6192
(S'VVP'
p6193
S'appear'
p6194
tp6195
tp6196
F-7.4412830636957725
tp6197
a(((S'NN'
p6198
S'magma'
p6199
tp6200
(S'VVP'
p6201
S'appear'
p6202
tp6203
tp6204
F-7.4412830636957725
tp6205
a(((S'VVZ'
p6206
S'emit'
p6207
tp6208
(S'NN'
p6209
S'eruption'
p6210
tp6211
tp6212
F-7.444523508366577
tp6213
a(((S'NNS'
p6214
S'eruption'
p6215
tp6216
(S'VVZ'
p6217
S'involve'
p6218
tp6219
tp6220
F-7.458292191398556
tp6221
a(((S'NNS'
p6222
S'eruption'
p6223
tp6224
(S'VVP'
p6225
S'stretch'
p6226
tp6227
tp6228
F-7.458292191398556
tp6229
a(((S'VVZ'
p6230
S'do'
p6231
tp6232
(g5839
g5840
tp6233
tp6234
F-7.471053524841814
tp6235
a(((S'NP'
p6236
S'lava'
p6237
tp6238
(S'VVZ'
p6239
S'pour'
p6240
tp6241
tp6242
F-7.491334578512235
tp6243
a(((S'NN'
p6244
S'lava'
p6245
tp6246
(S'VVP'
p6247
S'pour'
p6248
tp6249
tp6250
F-7.491334578512235
tp6251
a(((S'VVP'
p6252
S'look'
p6253
tp6254
(S'NN'
p6255
S'crater'
p6256
tp6257
tp6258
F-7.496517291436562
tp6259
a(((S'VVZ'
p6260
S'remain'
p6261
tp6262
(S'NN'
p6263
S'crater'
p6264
tp6265
tp6266
F-7.5128871358798595
tp6267
a((g1379
(g4146
g4147
tp6268
tp6269
F-7.534195276807845
tp6270
a(((S'NN'
p6271
S'lava'
p6272
tp6273
(S'VVZ'
p6274
S'well'
p6275
tp6276
tp6277
F-7.541894662649702
tp6278
a(((S'NN'
p6279
S'crater'
p6280
tp6281
(S'VVZ'
p6282
S'take'
p6283
tp6284
tp6285
F-7.554201087812678
tp6286
a((g5224
(S'NN'
p6287
S'magma'
p6288
tp6289
tp6290
F-7.564363244534937
tp6291
a(((S'VVP'
p6292
S'emerge'
p6293
tp6294
(S'NN'
p6295
S'lava'
p6296
tp6297
tp6298
F-7.581982322303931
tp6299
a(((S'NN'
p6300
S'lava'
p6301
tp6302
(S'VVZ'
p6303
S'hit'
p6304
tp6305
tp6306
F-7.586480156750689
tp6307
a(((S'NN'
p6308
S'eruption'
p6309
tp6310
(S'VVZ'
p6311
S'support'
p6312
tp6313
tp6314
F-7.588804171777482
tp6315
a(((S'VVZ'
p6316
S'keep'
p6317
tp6318
(S'NNS'
p6319
S'eruption'
p6320
tp6321
tp6322
F-7.622813883934911
tp6323
a(((g41
g42
tp6324
(S'VVZ'
p6325
S'result'
p6326
tp6327
tp6328
F-7.626335791043002
tp6329
a(((S'NN'
p6330
S'magma'
p6331
tp6332
(S'VVZ'
p6333
S'move'
p6334
tp6335
tp6336
F-7.634297115553066
tp6337
a(((S'NNS'
p6338
S'gas'
p6339
tp6340
(S'VVZ'
p6341
S'collapse'
p6342
tp6343
tp6344
F-7.642291964061613
tp6345
a(((g2641
g2642
tp6346
(g5738
g5739
tp6347
tp6348
F-7.647046049386057
tp6349
a(((S'NNS'
p6350
S'eruption'
p6351
tp6352
(S'VVP'
p6353
S'offer'
p6354
tp6355
tp6356
F-7.653245181805422
tp6357
a((g5112
(S'NN'
p6358
S'magma'
p6359
tp6360
tp6361
F-7.66274306697068
tp6362
a(((g6116
g6117
tp6363
(S'NN'
p6364
S'crater'
p6365
tp6366
tp6367
F-7.690658740313132
tp6368
a(((S'NNS'
p6369
S'lava'
p6370
tp6371
(S'VVP'
p6372
S'enter'
p6373
tp6374
tp6375
F-7.691640874107176
tp6376
a(((S'NN'
p6377
S'lava'
p6378
tp6379
(S'VVZ'
p6380
S'threaten'
p6381
tp6382
tp6383
F-7.691640874107176
tp6384
a(((S'NP'
p6385
S'lava'
p6386
tp6387
(S'VVZ'
p6388
S'enter'
p6389
tp6390
tp6391
F-7.691640874107176
tp6392
a(((S'NN'
p6393
S'lava'
p6394
tp6395
(S'VVP'
p6396
S'extend'
p6397
tp6398
tp6399
F-7.691640874107176
tp6400
a(((S'NN'
p6401
S'lava'
p6402
tp6403
(S'VVP'
p6404
S'enter'
p6405
tp6406
tp6407
F-7.691640874107176
tp6408
a(((S'NNS'
p6409
S'crater'
p6410
tp6411
(S'VVP'
p6412
S'include'
p6413
tp6414
tp6415
F-7.712237136605915
tp6416
a(((S'NNS'
p6417
S'eruption'
p6418
tp6419
g2850
tp6420
F-7.71759155324002
tp6421
a(((S'VVZ'
p6422
S'survive'
p6423
tp6424
(S'NN'
p6425
S'lava'
p6426
tp6427
tp6428
F-7.72633425879616
tp6429
a(((S'NN'
p6430
S'magma'
p6431
tp6432
g5844
tp6433
F-7.7349286570148115
tp6434
a(((S'NNS'
p6435
S'gas'
p6436
tp6437
(S'VVP'
p6438
S'include'
p6439
tp6440
tp6441
F-7.753153795003005
tp6442
a(((S'NN'
p6443
S'magma'
p6444
tp6445
(S'VVZ'
p6446
S'fragment'
p6447
tp6448
tp6449
F-7.754991917641562
tp6450
a(((S'NN'
p6451
S'eruption'
p6452
tp6453
(S'VVP'
p6454
S'signal'
p6455
tp6456
tp6457
F-7.780564619784417
tp6458
a(((S'VVP'
p6459
S'exist'
p6460
tp6461
(S'NNS'
p6462
S'eruption'
p6463
tp6464
tp6465
F-7.797034420882885
tp6466
a(((S'NN'
p6467
S'magma'
p6468
tp6469
(S'VVZ'
p6470
S'cover'
p6471
tp6472
tp6473
F-7.802205692255031
tp6474
a(((S'NN'
p6475
S'lava'
p6476
tp6477
(S'VVP'
p6478
S'fear'
p6479
tp6480
tp6481
F-7.8386147182953065
tp6482
a(((S'VVP'
p6483
S'build'
p6484
tp6485
(S'NNS'
p6486
S'gas'
p6487
tp6488
tp6489
F-7.875332676340001
tp6490
a(((S'VVZ'
p6491
S'include'
p6492
tp6493
(S'NNS'
p6494
S'crater'
p6495
tp6496
tp6497
F-7.880023714012196
tp6498
a(((S'VVZ'
p6499
S'prove'
p6500
tp6501
(S'NNS'
p6502
S'eruption'
p6503
tp6504
tp6505
F-7.882702844281796
tp6506
a(((S'VVP'
p6507
S'reveal'
p6508
tp6509
(S'NN'
p6510
S'lava'
p6511
tp6512
tp6513
F-7.889595056338788
tp6514
a(((S'VVP'
p6515
S'collect'
p6516
tp6517
(S'NN'
p6518
S'lava'
p6519
tp6520
tp6521
F-7.889595056338788
tp6522
a(((S'NN'
p6523
S'magma'
p6524
tp6525
(S'VVZ'
p6526
S'grow'
p6527
tp6528
tp6529
F-7.895841942048585
tp6530
a(((S'NN'
p6531
S'lava'
p6532
tp6533
(S'VVZ'
p6534
S'mean'
p6535
tp6536
tp6537
F-7.935133159242132
tp6538
a(((S'NN'
p6539
S'lava'
p6540
tp6541
(S'VVP'
p6542
S'sit'
p6543
tp6544
tp6545
F-7.955344461179229
tp6546
a(((S'VVP'
p6547
S'build'
p6548
tp6549
(g5365
g5366
tp6550
tp6551
F-7.957597268176915
tp6552
a(((S'VVZ'
p6553
S'build'
p6554
tp6555
(S'NN'
p6556
S'crater'
p6557
tp6558
tp6559
F-7.957597268176915
tp6560
a(((S'VVZ'
p6561
S'melt'
p6562
tp6563
(S'NN'
p6564
S'magma'
p6565
tp6566
tp6567
F-7.960122844590647
tp6568
a(((S'VVP'
p6569
S'believe'
p6570
tp6571
(S'NN'
p6572
S'magma'
p6573
tp6574
tp6575
F-7.966037169727713
tp6576
a(((S'VVZ'
p6577
S'mark'
p6578
tp6579
(S'NN'
p6580
S'lava'
p6581
tp6582
tp6583
F-7.969140438933934
tp6584
a(((S'VVZ'
p6585
S'feed'
p6586
tp6587
(S'NN'
p6588
S'lava'
p6589
tp6590
tp6591
F-7.969140438933934
tp6592
a(((S'VVP'
p6593
S'observe'
p6594
tp6595
(S'NN'
p6596
S'lava'
p6597
tp6598
tp6599
F-7.969140438933934
tp6600
a(((S'NNS'
p6601
S'eruption'
p6602
tp6603
(S'VVP'
p6604
S'tend'
p6605
tp6606
tp6607
F-7.9786834714108394
tp6608
a((g3280
(g3773
g3774
tp6609
tp6610
F-7.990316873871045
tp6611
a(((S'VVZ'
p6612
S'build'
p6613
tp6614
(S'NN'
p6615
S'gas'
p6616
tp6617
tp6618
F-8.002699219558666
tp6619
a(((S'NN'
p6620
S'lava'
p6621
tp6622
(S'VVZ'
p6623
S'solidify'
p6624
tp6625
tp6626
F-8.00305075437477
tp6627
a(((S'NN'
p6628
S'lava'
p6629
tp6630
(S'VVP'
p6631
S'solidify'
p6632
tp6633
tp6634
F-8.00305075437477
tp6635
a(((S'VVZ'
p6636
S'contain'
p6637
tp6638
(S'NN'
p6639
S'magma'
p6640
tp6641
tp6642
F-8.045529869758925
tp6643
a((g5470
(S'NN'
p6644
S'magma'
p6645
tp6646
tp6647
F-8.045529869758925
tp6648
a((g1778
(S'NN'
p6649
S'lava'
p6650
tp6651
tp6652
F-8.051320161622197
tp6653
a(((S'NN'
p6654
S'magma'
p6655
tp6656
(S'VVZ'
p6657
S'melt'
p6658
tp6659
tp6660
F-8.080077140940308
tp6661
a(((S'VVZ'
p6662
S'form'
p6663
tp6664
(S'NN'
p6665
S'dome'
p6666
tp6667
tp6668
F-8.083873533979625
tp6669
a(((S'VVZ'
p6670
S'cut'
p6671
tp6672
(S'NN'
p6673
S'lava'
p6674
tp6675
tp6676
F-8.087813641821764
tp6677
a(((S'NN'
p6678
S'eruption'
p6679
tp6680
(S'VVZ'
p6681
S'mark'
p6682
tp6683
tp6684
F-8.09031635565121
tp6685
a(((S'VVP'
p6686
S'form'
p6687
tp6688
g3620
tp6689
F-8.104263503663603
tp6690
a(((g4404
g4405
tp6691
(S'NN'
p6692
S'crater'
p6693
tp6694
tp6695
F-8.104645785688998
tp6696
a(((S'NP'
p6697
S'lava'
p6698
tp6699
(S'VVZ'
p6700
S'solidify'
p6701
tp6702
tp6703
F-8.12484346831202
tp6704
a(((S'NN'
p6705
S'lava'
p6706
tp6707
(S'VVP'
p6708
S'feel'
p6709
tp6710
tp6711
F-8.12484346831202
tp6712
a(((S'VVP'
p6713
S'expand'
p6714
tp6715
(S'NN'
p6716
S'lava'
p6717
tp6718
tp6719
F-8.146502691903915
tp6720
a(((S'VVZ'
p6721
S'expand'
p6722
tp6723
(S'NN'
p6724
S'lava'
p6725
tp6726
tp6727
F-8.146502691903915
tp6728
a(((S'NN'
p6729
S'magma'
p6730
tp6731
(S'VVZ'
p6732
S'start'
p6733
tp6734
tp6735
F-8.170744621831645
tp6736
a(((S'NN'
p6737
S'lava'
p6738
tp6739
(S'VVZ'
p6740
S'bring'
p6741
tp6742
tp6743
F-8.171606174310083
tp6744
a(((S'VVP'
p6745
S'say'
p6746
tp6747
(S'NN'
p6748
S'basalt'
p6749
tp6750
tp6751
F-8.212718040319054
tp6752
a(((S'VVZ'
p6753
S'erupt'
p6754
tp6755
g4427
tp6756
F-8.219981809334394
tp6757
a((g4406
(S'NP'
p6758
S'crater'
p6759
tp6760
tp6761
F-8.225192148286828
tp6762
a(((S'VVP'
p6763
S'forecast'
p6764
tp6765
(S'NN'
p6766
S'eruption'
p6767
tp6768
tp6769
F-8.238430539887787
tp6770
a(((S'VVZ'
p6771
S'dome'
p6772
tp6773
(S'NNS'
p6774
S'crater'
p6775
tp6776
tp6777
F-8.242104564061307
tp6778
a(((S'VVZ'
p6779
S'gas'
p6780
tp6781
(S'NN'
p6782
S'dome'
p6783
tp6784
tp6785
F-8.242830810315613
tp6786
a(((S'NN'
p6787
S'magma'
p6788
tp6789
(S'VVZ'
p6790
S'follow'
p6791
tp6792
tp6793
F-8.290671806412702
tp6794
a(((S'NN'
p6795
S'magma'
p6796
tp6797
(S'VVZ'
p6798
S'heat'
p6799
tp6800
tp6801
F-8.297063211534727
tp6802
a(((S'VVZ'
p6803
S'pour'
p6804
tp6805
(S'NN'
p6806
S'lava'
p6807
tp6808
tp6809
F-8.301202624745526
tp6810
a(((S'NP'
p6811
S'crater'
p6812
tp6813
(S'VVZ'
p6814
S'show'
p6815
tp6816
tp6817
F-8.30266089848642
tp6818
a(((S'NN'
p6819
S'magma'
p6820
tp6821
(S'VVZ'
p6822
S'cool'
p6823
tp6824
tp6825
F-8.312894943823439
tp6826
a(((S'VVP'
p6827
S'tend'
p6828
tp6829
(S'NNS'
p6830
S'lava'
p6831
tp6832
tp6833
F-8.320088840550246
tp6834
a(((S'VVZ'
p6835
S'push'
p6836
tp6837
(S'NN'
p6838
S'lava'
p6839
tp6840
tp6841
F-8.320088840550246
tp6842
a(((g532
g533
tp6843
(S'VVZ'
p6844
S'flow'
p6845
tp6846
tp6847
F-8.32956898405191
tp6848
a(((S'VVP'
p6849
S'form'
p6850
tp6851
(S'NN'
p6852
S'cone'
p6853
tp6854
tp6855
F-8.340759005804232
tp6856
a(((S'NN'
p6857
S'lava'
p6858
tp6859
(S'VVZ'
p6860
S'explode'
p6861
tp6862
tp6863
F-8.356131324649269
tp6864
a(((S'VVZ'
p6865
S'lead'
p6866
tp6867
(S'NNS'
p6868
S'magma'
p6869
tp6870
tp6871
F-8.358820671145725
tp6872
a(((S'NN'
p6873
S'magma'
p6874
tp6875
(S'VVZ'
p6876
S'force'
p6877
tp6878
tp6879
F-8.385574385899762
tp6880
a((g6211
(S'VVZ'
p6881
S'compare'
p6882
tp6883
tp6884
F-8.388932476831968
tp6885
a(((S'VVZ'
p6886
S'show'
p6887
tp6888
(S'NN'
p6889
S'gas'
p6890
tp6891
tp6892
F-8.394171984225546
tp6893
a(((S'NN'
p6894
S'lava'
p6895
tp6896
(S'VVP'
p6897
S'understand'
p6898
tp6899
tp6900
F-8.401651976570587
tp6901
a(((S'VVP'
p6902
S'walk'
p6903
tp6904
(S'NN'
p6905
S'lava'
p6906
tp6907
tp6908
F-8.415121321546511
tp6909
a(((S'VVZ'
p6910
S'face'
p6911
tp6912
(S'NN'
p6913
S'lava'
p6914
tp6915
tp6916
F-8.433830230635133
tp6917
a(((S'VVP'
p6918
S'pour'
p6919
tp6920
(S'NN'
p6921
S'lava'
p6922
tp6923
tp6924
F-8.433830230635133
tp6925
a(((S'VVZ'
p6926
S'slow'
p6927
tp6928
(S'NN'
p6929
S'lava'
p6930
tp6931
tp6932
F-8.433830230635133
tp6933
a(((S'NN'
p6934
S'magma'
p6935
tp6936
(S'VVZ'
p6937
S'continue'
p6938
tp6939
tp6940
F-8.440207845315847
tp6941
a(((S'NNS'
p6942
S'eruption'
p6943
tp6944
(S'VVZ'
p6945
S'tend'
p6946
tp6947
tp6948
F-8.447423997048007
tp6949
a(((S'VVZ'
p6950
S'form'
p6951
tp6952
(S'NN'
p6953
S'cone'
p6954
tp6955
tp6956
F-8.459006756874546
tp6957
a(((S'VVZ'
p6958
S'provide'
p6959
tp6960
(S'NN'
p6961
S'magma'
p6962
tp6963
tp6964
F-8.470799938660765
tp6965
a(((S'NNS'
p6966
S'eruption'
p6967
tp6968
g3498
tp6969
F-8.505524830544596
tp6970
a(((S'NN'
p6971
S'eruption'
p6972
tp6973
(g4737
g4738
tp6974
tp6975
F-8.505524830544596
tp6976
a(((g2747
g2748
tp6977
(S'VVP'
p6978
S'make'
p6979
tp6980
tp6981
F-8.520013458328686
tp6982
a(((S'VVZ'
p6983
S'create'
p6984
tp6985
(S'NN'
p6986
S'magma'
p6987
tp6988
tp6989
F-8.540481363643371
tp6990
a(((S'VVZ'
p6991
S'start'
p6992
tp6993
(S'NN'
p6994
S'magma'
p6995
tp6996
tp6997
F-8.545913063105045
tp6998
a(((S'VVZ'
p6999
S'walk'
p7000
tp7001
(S'NN'
p7002
S'lava'
p7003
tp7004
tp7005
F-8.546059334805888
tp7006
a(((S'VVP'
p7007
S'estimate'
p7008
tp7009
(S'NN'
p7010
S'lava'
p7011
tp7012
tp7013
F-8.546059334805888
tp7014
a(((S'NNS'
p7015
S'magma'
p7016
tp7017
(S'VVP'
p7018
S'cool'
p7019
tp7020
tp7021
F-8.546121637298171
tp7022
a((g2238
(S'VVP'
p7023
S'cool'
p7024
tp7025
tp7026
F-8.546121637298171
tp7027
a((g4628
(S'NN'
p7028
S'lava'
p7029
tp7030
tp7031
F-8.551278949598867
tp7032
a(((S'NN'
p7033
S'lava'
p7034
tp7035
(g4311
g4312
tp7036
tp7037
F-8.555537128287108
tp7038
a(((S'NNS'
p7039
S'eruption'
p7040
tp7041
(S'VVZ'
p7042
S'pour'
p7043
tp7044
tp7045
F-8.563242921799777
tp7046
a(((S'VVZ'
p7047
S'make'
p7048
tp7049
(S'NN'
p7050
S'crater'
p7051
tp7052
tp7053
F-8.563601283066097
tp7054
a(((S'NNS'
p7055
S'gas'
p7056
tp7057
(S'VVP'
p7058
S'occur'
p7059
tp7060
tp7061
F-8.592720771901595
tp7062
a(((S'NNS'
p7063
S'gas'
p7064
tp7065
(S'VVZ'
p7066
S'occur'
p7067
tp7068
tp7069
F-8.592720771901595
tp7070
a(((g3083
g3084
tp7071
(S'NNS'
p7072
S'magma'
p7073
tp7074
tp7075
F-8.615026070215707
tp7076
a(((S'NNS'
p7077
S'crater'
p7078
tp7079
(S'VVP'
p7080
S'leave'
p7081
tp7082
tp7083
F-8.646049177262313
tp7084
a(((S'VVZ'
p7085
S'enter'
p7086
tp7087
g660
tp7088
F-8.656834868467172
tp7089
a(((S'NN'
p7090
S'lava'
p7091
tp7092
(S'VVP'
p7093
S'allow'
p7094
tp7095
tp7096
F-8.669941773295946
tp7097
a(((S'NNS'
p7098
S'lava'
p7099
tp7100
(S'VVZ'
p7101
S'allow'
p7102
tp7103
tp7104
F-8.669941773295946
tp7105
a(((S'NN'
p7106
S'lava'
p7107
tp7108
(S'VVZ'
p7109
S'explain'
p7110
tp7111
tp7112
F-8.669941773295946
tp7113
a(((S'VVP'
p7114
S'make'
p7115
tp7116
(S'NN'
p7117
S'crater'
p7118
tp7119
tp7120
F-8.681242487119
tp7121
a(((S'NN'
p7122
S'gas'
p7123
tp7124
(S'VVZ'
p7125
S'change'
p7126
tp7127
tp7128
F-8.693694051933393
tp7129
a(((S'VVZ'
p7130
S'make'
p7131
tp7132
g5555
tp7133
F-8.73021265801715
tp7134
a(((S'NNS'
p7135
S'dome'
p7136
tp7137
(S'VVP'
p7138
S'form'
p7139
tp7140
tp7141
F-8.750057246169176
tp7142
a(((S'VVZ'
p7143
S'climb'
p7144
tp7145
(S'NN'
p7146
S'lava'
p7147
tp7148
tp7149
F-8.820392135037737
tp7150
a(((S'VVP'
p7151
S'spew'
p7152
tp7153
(S'NN'
p7154
S'lava'
p7155
tp7156
tp7157
F-8.820392135037737
tp7158
a(((S'VVZ'
p7159
S'spew'
p7160
tp7161
(S'NN'
p7162
S'lava'
p7163
tp7164
tp7165
F-8.820392135037737
tp7166
a(((S'VVZ'
p7167
S'plain'
p7168
tp7169
(S'NN'
p7170
S'eruption'
p7171
tp7172
tp7173
F-8.846316925256644
tp7174
a(((S'NN'
p7175
S'magma'
p7176
tp7177
(S'VVP'
p7178
S'generate'
p7179
tp7180
tp7181
F-8.886033434845082
tp7182
a(((S'NN'
p7183
S'magma'
p7184
tp7185
(S'VVZ'
p7186
S'generate'
p7187
tp7188
tp7189
F-8.886033434845082
tp7190
a(((S'VVZ'
p7191
S'force'
p7192
tp7193
(S'NN'
p7194
S'magma'
p7195
tp7196
tp7197
F-8.886108158948822
tp7198
a(((S'VVP'
p7199
S'force'
p7200
tp7201
(S'NN'
p7202
S'magma'
p7203
tp7204
tp7205
F-8.886108158948822
tp7206
a(((S'NN'
p7207
S'eruption'
p7208
tp7209
(S'VVZ'
p7210
S'note'
p7211
tp7212
tp7213
F-8.901926989551196
tp7214
a((g3098
(S'VVZ'
p7215
S'rise'
p7216
tp7217
tp7218
F-8.918426042172296
tp7219
a(((S'NN'
p7220
S'gas'
p7221
tp7222
(S'VVZ'
p7223
S'produce'
p7224
tp7225
tp7226
F-8.93233168544872
tp7227
a((g1084
(S'VVZ'
p7228
S'work'
p7229
tp7230
tp7231
F-8.94120336322959
tp7232
a(((S'NN'
p7233
S'lava'
p7234
tp7235
g1350
tp7236
F-8.948383441767566
tp7237
a(((S'VVP'
p7238
S'think'
p7239
tp7240
(S'NN'
p7241
S'magma'
p7242
tp7243
tp7244
F-8.952597089836882
tp7245
a(((S'NNS'
p7246
S'eruption'
p7247
tp7248
(S'VVP'
p7249
S'hit'
p7250
tp7251
tp7252
F-8.957167603151797
tp7253
a((g3945
g7217
tp7254
F-8.980105562042109
tp7255
a(((S'NN'
p7256
S'lava'
p7257
tp7258
(S'VVZ'
p7259
S'get'
p7260
tp7261
tp7262
F-9.010029852397663
tp7263
a(((S'NN'
p7264
S'eruption'
p7265
tp7266
(S'VVZ'
p7267
S'hold'
p7268
tp7269
tp7270
F-9.012080463601887
tp7271
a(((g4880
g4881
tp7272
g3677
tp7273
F-9.033458739161308
tp7274
a(((S'NN'
p7275
S'lava'
p7276
tp7277
(S'VVZ'
p7278
S'surround'
p7279
tp7280
tp7281
F-9.058052278886807
tp7282
a(((S'NN'
p7283
S'eruption'
p7284
tp7285
(S'VVZ'
p7286
S'mean'
p7287
tp7288
tp7289
F-9.066671522479558
tp7290
a(((S'NN'
p7291
S'lava'
p7292
tp7293
(S'VVZ'
p7294
S'fill'
p7295
tp7296
tp7297
F-9.07237340161119
tp7298
a(((S'NN'
p7299
S'magma'
p7300
tp7301
g6099
tp7302
F-9.085469484760855
tp7303
a(((S'NNS'
p7304
S'eruption'
p7305
tp7306
(S'VVP'
p7307
S'eject'
p7308
tp7309
tp7310
F-9.12099630403634
tp7311
a((g5219
(S'VVP'
p7312
S'rise'
p7313
tp7314
tp7315
F-9.138522047184246
tp7316
a((g4343
(S'NN'
p7317
S'eruption'
p7318
tp7319
tp7320
F-9.145005737719968
tp7321
a(((S'VVZ'
p7322
S'signal'
p7323
tp7324
(S'NNS'
p7325
S'eruption'
p7326
tp7327
tp7328
F-9.145005737719968
tp7329
a(((S'VVZ'
p7330
S'reach'
p7331
tp7332
g4481
tp7333
F-9.149167006945806
tp7334
a(((S'VVZ'
p7335
S'continue'
p7336
tp7337
(S'NN'
p7338
S'magma'
p7339
tp7340
tp7341
F-9.170748184522365
tp7342
a(((S'NN'
p7343
S'eruption'
p7344
tp7345
(S'VVZ'
p7346
S'warn'
p7347
tp7348
tp7349
F-9.17491116575356
tp7350
a(((S'NNS'
p7351
S'eruption'
p7352
tp7353
(S'VVZ'
p7354
S'warn'
p7355
tp7356
tp7357
F-9.17491116575356
tp7358
a(((S'NNS'
p7359
S'eruption'
p7360
tp7361
(S'VVZ'
p7362
S'describe'
p7363
tp7364
tp7365
F-9.174955528459751
tp7366
a(((S'NN'
p7367
S'lava'
p7368
tp7369
(S'VVZ'
p7370
S'slide'
p7371
tp7372
tp7373
F-9.183926583311186
tp7374
a(((S'NN'
p7375
S'lava'
p7376
tp7377
(S'VVP'
p7378
S'advance'
p7379
tp7380
tp7381
F-9.183926583311186
tp7382
a(((S'VVZ'
p7383
S'rise'
p7384
tp7385
(S'NN'
p7386
S'gas'
p7387
tp7388
tp7389
F-9.185229166001447
tp7390
a(((S'NN'
p7391
S'magma'
p7392
tp7393
(S'VVZ'
p7394
S'do'
p7395
tp7396
tp7397
F-9.201729274627823
tp7398
a(((S'VVZ'
p7399
S'claim'
p7400
tp7401
(S'NN'
p7402
S'eruption'
p7403
tp7404
tp7405
F-9.218166999124785
tp7406
a(((S'VVP'
p7407
S'claim'
p7408
tp7409
(S'NN'
p7410
S'eruption'
p7411
tp7412
tp7413
F-9.218166999124785
tp7414
a(((S'NN'
p7415
S'eruption'
p7416
tp7417
(S'VVZ'
p7418
S'sit'
p7419
tp7420
tp7421
F-9.228570798591415
tp7422
a(((S'NNS'
p7423
S'eruption'
p7424
tp7425
(g4023
g4024
tp7426
tp7427
F-9.228570798591415
tp7428
a(((S'NN'
p7429
S'eruption'
p7430
tp7431
(S'VVP'
p7432
S'eject'
p7433
tp7434
tp7435
F-9.228570798591415
tp7436
a(((S'NNS'
p7437
S'eruption'
p7438
tp7439
(S'VVP'
p7440
S'expect'
p7441
tp7442
tp7443
F-9.232043535056198
tp7444
a(((S'VVZ'
p7445
S'rise'
p7446
tp7447
(S'NN'
p7448
S'crater'
p7449
tp7450
tp7451
F-9.243338803868362
tp7452
a((g3671
(S'VVP'
p7453
S'come'
p7454
tp7455
tp7456
F-9.246371813671026
tp7457
a((g7442
(S'NN'
p7458
S'lava'
p7459
tp7460
tp7461
F-9.276388392419282
tp7462
a(((S'VVZ'
p7463
S'generate'
p7464
tp7465
(S'NN'
p7466
S'magma'
p7467
tp7468
tp7469
F-9.277901541072342
tp7470
a(((S'NP'
p7471
S'crater'
p7472
tp7473
(S'VVZ'
p7474
S'come'
p7475
tp7476
tp7477
F-9.305148966762191
tp7478
a(((S'NN'
p7479
S'magma'
p7480
tp7481
g4087
tp7482
F-9.30805632543006
tp7483
a(((S'NNS'
p7484
S'magma'
p7485
tp7486
g6232
tp7487
F-9.30805632543006
tp7488
a(((S'NN'
p7489
S'magma'
p7490
tp7491
(S'VVZ'
p7492
S'rise'
p7493
tp7494
tp7495
F-9.310350054694062
tp7496
a(((S'NN'
p7497
S'eruption'
p7498
tp7499
(S'VVZ'
p7500
S'speed'
p7501
tp7502
tp7503
F-9.334996127413405
tp7504
a(((S'NN'
p7505
S'lava'
p7506
tp7507
(S'VVZ'
p7508
S'carry'
p7509
tp7510
tp7511
F-9.349236320380031
tp7512
a(((S'NN'
p7513
S'gas'
p7514
tp7515
(S'VVZ'
p7516
S'come'
p7517
tp7518
tp7519
F-9.354028722093835
tp7520
a(((S'NNS'
p7521
S'eruption'
p7522
tp7523
(S'VVP'
p7524
S'add'
p7525
tp7526
tp7527
F-9.387771953542881
tp7528
a(((S'NP'
p7529
S'lava'
p7530
tp7531
(S'VVZ'
p7532
S'edge'
p7533
tp7534
tp7535
F-9.430852730440316
tp7536
a(((S'VVZ'
p7537
S'work'
p7538
tp7539
(S'NNS'
p7540
S'magma'
p7541
tp7542
tp7543
F-9.446820562185186
tp7544
a((g1980
(S'VVZ'
p7545
S'take'
p7546
tp7547
tp7548
F-9.453912228486582
tp7549
a(((g99
g100
tp7550
g6327
tp7551
F-9.493292107013058
tp7552
a((g6363
(S'NN'
p7553
S'magma'
p7554
tp7555
tp7556
F-9.496856984284511
tp7557
a(((g4285
g4286
tp7558
(S'NNS'
p7559
S'eruption'
p7560
tp7561
tp7562
F-9.50518637474974
tp7563
a(((S'VVZ'
p7564
S'come'
p7565
tp7566
(S'NN'
p7567
S'gas'
p7568
tp7569
tp7570
F-9.506753631697851
tp7571
a(((S'NP'
p7572
S'lava'
p7573
tp7574
(S'VVZ'
p7575
S'stream'
p7576
tp7577
tp7578
F-9.5118006484618
tp7579
a(((S'VVP'
p7580
S'allow'
p7581
tp7582
(S'NN'
p7583
S'lava'
p7584
tp7585
tp7586
F-9.513824420533734
tp7587
a(((S'NNS'
p7588
S'eruption'
p7589
tp7590
(S'VVZ'
p7591
S'explode'
p7592
tp7593
tp7594
F-9.544409951403582
tp7595
a(((S'NNS'
p7596
S'eruption'
p7597
tp7598
(S'VVP'
p7599
S'explode'
p7600
tp7601
tp7602
F-9.544409951403582
tp7603
a(((S'VVP'
p7604
S'reveal'
p7605
tp7606
(S'NN'
p7607
S'eruption'
p7608
tp7609
tp7610
F-9.575597952959098
tp7611
a(((g6180
g6181
tp7612
(S'NN'
p7613
S'magma'
p7614
tp7615
tp7616
F-9.592186112722503
tp7617
a(((S'VVP'
p7618
S'remain'
p7619
tp7620
(S'NN'
p7621
S'magma'
p7622
tp7623
tp7624
F-9.592186112722503
tp7625
a(((S'NN'
p7626
S'lava'
p7627
tp7628
(S'VVZ'
p7629
S'indicate'
p7630
tp7631
tp7632
F-9.632005939495855
tp7633
a(((g4154
g4155
tp7634
(S'NNS'
p7635
S'eruption'
p7636
tp7637
tp7638
F-9.645495863934837
tp7639
a(((S'VVP'
p7640
S'stay'
p7641
tp7642
(S'NP'
p7643
S'lava'
p7644
tp7645
tp7646
F-9.646004480828784
tp7647
a(((S'NN'
p7648
S'magma'
p7649
tp7650
(S'VVP'
p7651
S'include'
p7652
tp7653
tp7654
F-9.649358406616878
tp7655
a(((S'VVZ'
p7656
S'explain'
p7657
tp7658
(S'NN'
p7659
S'lava'
p7660
tp7661
tp7662
F-9.744291661367644
tp7663
a((g4313
(S'NN'
p7664
S'lava'
p7665
tp7666
tp7667
F-9.744291661367644
tp7668
a(((S'NN'
p7669
S'lava'
p7670
tp7671
g582
tp7672
F-9.745408970652266
tp7673
a(((S'NN'
p7674
S'magma'
p7675
tp7676
(g4422
g4423
tp7677
tp7678
F-9.745754661253773
tp7679
a(((S'NN'
p7680
S'gas'
p7681
tp7682
(S'VVZ'
p7683
S'begin'
p7684
tp7685
tp7686
F-9.759911245465112
tp7687
a(((S'NNS'
p7688
S'gas'
p7689
tp7690
(S'VVP'
p7691
S'begin'
p7692
tp7693
tp7694
F-9.759911245465112
tp7695
a(((S'NN'
p7696
S'gas'
p7697
tp7698
(S'VVP'
p7699
S'begin'
p7700
tp7701
tp7702
F-9.759911245465112
tp7703
a(((S'NN'
p7704
S'lava'
p7705
tp7706
g2659
tp7707
F-9.767280469561822
tp7708
a(((S'VVZ'
p7709
S'flow'
p7710
tp7711
(S'NN'
p7712
S'debris'
p7713
tp7714
tp7715
F-9.802830709759299
tp7716
a(((g6881
g6882
tp7717
(S'NNS'
p7718
S'eruption'
p7719
tp7720
tp7721
F-9.852216393967725
tp7722
a((g1770
(S'NNS'
p7723
S'eruption'
p7724
tp7725
tp7726
F-9.852216393967725
tp7727
a(((S'VVP'
p7728
S'watch'
p7729
tp7730
(S'NN'
p7731
S'lava'
p7732
tp7733
tp7734
F-9.873271216933263
tp7735
a(((S'NN'
p7736
S'eruption'
p7737
tp7738
(S'VVZ'
p7739
S'explain'
p7740
tp7741
tp7742
F-9.90061028347913
tp7743
a(((S'NN'
p7744
S'eruption'
p7745
tp7746
(S'VVP'
p7747
S'allow'
p7748
tp7749
tp7750
F-9.90061028347913
tp7751
a(((S'VVP'
p7752
S'tend'
p7753
tp7754
(S'NNS'
p7755
S'eruption'
p7756
tp7757
tp7758
F-9.92016655156091
tp7759
a(((S'VVP'
p7760
S'include'
p7761
tp7762
g4906
tp7763
F-9.951041699579099
tp7764
a((g4473
(S'NN'
p7765
S'lava'
p7766
tp7767
tp7768
F-10.033380866463771
tp7769
a(((S'VVZ'
p7770
S'build'
p7771
tp7772
(S'NN'
p7773
S'magma'
p7774
tp7775
tp7776
F-10.049852875097065
tp7777
a((g6485
(S'NN'
p7778
S'magma'
p7779
tp7780
tp7781
F-10.049852875097065
tp7782
a(((S'VVZ'
p7783
S'include'
p7784
tp7785
(S'NN'
p7786
S'magma'
p7787
tp7788
tp7789
F-10.055036775381247
tp7790
a(((S'NN'
p7791
S'lava'
p7792
tp7793
g1470
tp7794
F-10.06105729774051
tp7795
a(((S'VVP'
p7796
S'try'
p7797
tp7798
(S'NN'
p7799
S'lava'
p7800
tp7801
tp7802
F-10.080756822404654
tp7803
a(((S'NNS'
p7804
S'eruption'
p7805
tp7806
(S'VVP'
p7807
S'stop'
p7808
tp7809
tp7810
F-10.1485944715044
tp7811
a(((S'NN'
p7812
S'lava'
p7813
tp7814
g4784
tp7815
F-10.190958623411102
tp7816
a(((S'NN'
p7817
S'lava'
p7818
tp7819
(S'VVZ'
p7820
S'break'
p7821
tp7822
tp7823
F-10.190958623411102
tp7824
a((g3788
(S'NN'
p7825
S'lava'
p7826
tp7827
tp7828
F-10.222762052300803
tp7829
a((g2328
(S'VVZ'
p7830
S'flow'
p7831
tp7832
tp7833
F-10.231334001514375
tp7834
a(((S'NNS'
p7835
S'lava'
p7836
tp7837
(S'VVP'
p7838
S'suggest'
p7839
tp7840
tp7841
F-10.287921299669035
tp7842
a(((S'VVZ'
p7843
S'threaten'
p7844
tp7845
(S'NNS'
p7846
S'eruption'
p7847
tp7848
tp7849
F-10.318479656278717
tp7850
a(((S'NN'
p7851
S'lava'
p7852
tp7853
(S'VVP'
p7854
S'range'
p7855
tp7856
tp7857
F-10.325273048156525
tp7858
a(((S'NNS'
p7859
S'lava'
p7860
tp7861
(S'VVP'
p7862
S'range'
p7863
tp7864
tp7865
F-10.325273048156525
tp7866
a(((S'VVP'
p7867
S'need'
p7868
tp7869
(S'NN'
p7870
S'lava'
p7871
tp7872
tp7873
F-10.34444645555351
tp7874
a(((g6478
g6479
tp7875
(S'NN'
p7876
S'eruption'
p7877
tp7878
tp7879
F-10.399787370506292
tp7880
a(((S'NN'
p7881
S'eruption'
p7882
tp7883
(S'VVP'
p7884
S'want'
p7885
tp7886
tp7887
F-10.436743094809344
tp7888
a((g6504
(S'VVP'
p7889
S'want'
p7890
tp7891
tp7892
F-10.436743094809344
tp7893
a(((S'VVP'
p7894
S'note'
p7895
tp7896
(S'NNS'
p7897
S'eruption'
p7898
tp7899
tp7900
F-10.447878347798326
tp7901
a(((S'VVZ'
p7902
S'determine'
p7903
tp7904
(S'NN'
p7905
S'eruption'
p7906
tp7907
tp7908
F-10.447878347798326
tp7909
a(((S'VVP'
p7910
S'determine'
p7911
tp7912
g6973
tp7913
F-10.447878347798326
tp7914
a((g4903
(S'NNS'
p7915
S'eruption'
p7916
tp7917
tp7918
F-10.447878347798326
tp7919
a(((S'NN'
p7920
S'eruption'
p7921
tp7922
(S'VVZ'
p7923
S'rate'
p7924
tp7925
tp7926
F-10.531410170885342
tp7927
a(((S'NNS'
p7928
S'eruption'
p7929
tp7930
(S'VVZ'
p7931
S'get'
p7932
tp7933
tp7934
F-10.531410170885342
tp7935
a((g2584
(S'VVP'
p7936
S'need'
p7937
tp7938
tp7939
F-10.53144646616868
tp7940
a(((S'NN'
p7941
S'lava'
p7942
tp7943
(S'VVZ'
p7944
S'travel'
p7945
tp7946
tp7947
F-10.546756907307358
tp7948
a(((S'VVZ'
p7949
S'develop'
p7950
tp7951
(S'NN'
p7952
S'lava'
p7953
tp7954
tp7955
F-10.617135348404949
tp7956
a(((S'NN'
p7957
S'eruption'
p7958
tp7959
g4555
tp7960
F-10.625270553031005
tp7961
a(((S'VVZ'
p7962
S'mean'
p7963
tp7964
(S'NN'
p7965
S'eruption'
p7966
tp7967
tp7968
F-10.639027151553623
tp7969
a(((S'NN'
p7970
S'magma'
p7971
tp7972
(S'VVZ'
p7973
S'make'
p7974
tp7975
tp7976
F-10.64898056245092
tp7977
a(((S'NNS'
p7978
S'magma'
p7979
tp7980
(g7130
g7131
tp7981
tp7982
F-10.64898056245092
tp7983
a(((S'NN'
p7984
S'lava'
p7985
tp7986
(S'VVP'
p7987
S'rain'
p7988
tp7989
tp7990
F-10.692006113225702
tp7991
a(((S'NNS'
p7992
S'eruption'
p7993
tp7994
(S'VVP'
p7995
S'develop'
p7996
tp7997
tp7998
F-10.719204599037585
tp7999
a(((S'NN'
p8000
S'lava'
p8001
tp8002
(S'VVP'
p8003
S'appear'
p8004
tp8005
tp8006
F-10.72319599850287
tp8007
a(((S'NN'
p8008
S'magma'
p8009
tp8010
(S'VVZ'
p8011
S'leave'
p8012
tp8013
tp8014
F-10.762693854670669
tp8015
a(((S'VVP'
p8016
S'warn'
p8017
tp8018
(S'NN'
p8019
S'eruption'
p8020
tp8021
tp8022
F-10.76457492913359
tp8023
a(((S'VVZ'
p8024
S'describe'
p8025
tp8026
(S'NNS'
p8027
S'eruption'
p8028
tp8029
tp8030
F-10.78028677810668
tp8031
a(((S'NN'
p8032
S'lava'
p8033
tp8034
(S'VVZ'
p8035
S'turn'
p8036
tp8037
tp8038
F-10.814829197348374
tp8039
a(((S'NN'
p8040
S'lava'
p8041
tp8042
g2930
tp8043
F-10.814829197348374
tp8044
a(((S'VVZ'
p8045
S'describe'
p8046
tp8047
(S'NN'
p8048
S'eruption'
p8049
tp8050
tp8051
F-10.888675791718695
tp8052
a((g7272
g5144
tp8053
F-10.899828263700439
tp8054
a(((S'NN'
p8055
S'eruption'
p8056
tp8057
(S'VVZ'
p8058
S'develop'
p8059
tp8060
tp8061
F-10.902219081409555
tp8062
a(((S'NN'
p8063
S'eruption'
p8064
tp8065
(S'VVZ'
p8066
S'indicate'
p8067
tp8068
tp8069
F-10.902283638428964
tp8070
a(((S'NNS'
p8071
S'eruption'
p8072
tp8073
g4691
tp8074
F-10.902283638428964
tp8075
a(((S'NNS'
p8076
S'lava'
p8077
tp8078
(S'VVP'
p8079
S'appear'
p8080
tp8081
tp8082
F-10.906462396193875
tp8083
a(((S'NN'
p8084
S'magma'
p8085
tp8086
(S'VVP'
p8087
S'leave'
p8088
tp8089
tp8090
F-10.946868497785914
tp8091
a(((S'VVZ'
p8092
S'date'
p8093
tp8094
(S'NN'
p8095
S'eruption'
p8096
tp8097
tp8098
F-10.950199013919386
tp8099
a(((S'NNS'
p8100
S'eruption'
p8101
tp8102
(S'VVP'
p8103
S'indicate'
p8104
tp8105
tp8106
F-10.993055923144828
tp8107
a(((S'NN'
p8108
S'eruption'
p8109
tp8110
(S'VVP'
p8111
S'indicate'
p8112
tp8113
tp8114
F-10.993055923144828
tp8115
a(((S'VVZ'
p8116
S'add'
p8117
tp8118
(S'NN'
p8119
S'eruption'
p8120
tp8121
tp8122
F-11.01137862387185
tp8123
a(((S'VVZ'
p8124
S'flood'
p8125
tp8126
(S'NN'
p8127
S'lava'
p8128
tp8129
tp8130
F-11.056702347019888
tp8131
a(((S'VVP'
p8132
S'occur'
p8133
tp8134
(S'NN'
p8135
S'magma'
p8136
tp8137
tp8138
F-11.056778939604778
tp8139
a(((S'VVZ'
p8140
S'make'
p8141
tp8142
(S'NN'
p8143
S'magma'
p8144
tp8145
tp8146
F-11.065932460070343
tp8147
a(((S'VVP'
p8148
S'make'
p8149
tp8150
(S'NN'
p8151
S'magma'
p8152
tp8153
tp8154
F-11.065932460070343
tp8155
a(((S'VVZ'
p8156
S'feature'
p8157
tp8158
(S'NN'
p8159
S'lava'
p8160
tp8161
tp8162
F-11.071878139994192
tp8163
a(((S'VVZ'
p8164
S'explode'
p8165
tp8166
(S'NN'
p8167
S'eruption'
p8168
tp8169
tp8170
F-11.08741380837909
tp8171
a(((S'VVP'
p8172
S'expect'
p8173
tp8174
(S'NN'
p8175
S'eruption'
p8176
tp8177
tp8178
F-11.08741380837909
tp8179
a(((S'NN'
p8180
S'lava'
p8181
tp8182
g5139
tp8183
F-11.166471769218443
tp8184
a(((g1468
g1469
tp8185
(S'NN'
p8186
S'lava'
p8187
tp8188
tp8189
F-11.185208665738244
tp8190
a(((S'NN'
p8191
S'lava'
p8192
tp8193
(S'VVZ'
p8194
S'cool'
p8195
tp8196
tp8197
F-11.21318519586647
tp8198
a(((S'VVZ'
p8199
S'change'
p8200
tp8201
g5306
tp8202
F-11.225570693887484
tp8203
a(((S'VVZ'
p8204
S'occur'
p8205
tp8206
(S'NN'
p8207
S'magma'
p8208
tp8209
tp8210
F-11.243168397262272
tp8211
a(((S'NNS'
p8212
S'lava'
p8213
tp8214
(S'VVP'
p8215
S'contain'
p8216
tp8217
tp8218
F-11.255352937724444
tp8219
a(((S'NNS'
p8220
S'eruption'
p8221
tp8222
(S'VVZ'
p8223
S'run'
p8224
tp8225
tp8226
F-11.261379186169615
tp8227
a(((S'NN'
p8228
S'eruption'
p8229
tp8230
(S'VVZ'
p8231
S'run'
p8232
tp8233
tp8234
F-11.261379186169615
tp8235
a(((S'NNS'
p8236
S'eruption'
p8237
tp8238
(S'VVP'
p8239
S'feature'
p8240
tp8241
tp8242
F-11.261379186169615
tp8243
a(((S'NN'
p8244
S'eruption'
p8245
tp8246
(S'VVZ'
p8247
S'feature'
p8248
tp8249
tp8250
F-11.261379186169615
tp8251
a(((S'VVZ'
p8252
S'leave'
p8253
tp8254
(S'NN'
p8255
S'magma'
p8256
tp8257
tp8258
F-11.273382606819437
tp8259
a(((S'NNS'
p8260
S'magma'
p8261
tp8262
(S'VVP'
p8263
S'produce'
p8264
tp8265
tp8266
F-11.283714252356084
tp8267
a(((S'NN'
p8268
S'magma'
p8269
tp8270
(S'VVZ'
p8271
S'produce'
p8272
tp8273
tp8274
F-11.283714252356084
tp8275
a(((S'NN'
p8276
S'lava'
p8277
tp8278
(S'VVZ'
p8279
S'grow'
p8280
tp8281
tp8282
F-11.301102695219324
tp8283
a(((S'NNS'
p8284
S'fountain'
p8285
tp8286
(S'VVZ'
p8287
S's'
p8288
tp8289
tp8290
F-11.384224062530631
tp8291
a(((S'NN'
p8292
S'lava'
p8293
tp8294
(S'VVP'
p8295
S'cover'
p8296
tp8297
tp8298
F-11.426053850615343
tp8299
a(((S'VVP'
p8300
S'suggest'
p8301
tp8302
(S'NN'
p8303
S'lava'
p8304
tp8305
tp8306
F-11.437895742210474
tp8307
a((g5518
(S'VVZ'
p8308
S'come'
p8309
tp8310
tp8311
F-11.447416642882695
tp8312
a(((S'VVZ'
p8313
S'say'
p8314
tp8315
(S'NN'
p8316
S'cone'
p8317
tp8318
tp8319
F-11.47866222916191
tp8320
a((g1129
(S'NN'
p8321
S'lava'
p8322
tp8323
tp8324
F-11.479470099321766
tp8325
a(((S'NNS'
p8326
S'eruption'
p8327
tp8328
g4718
tp8329
F-11.482665608038133
tp8330
a(((S'NN'
p8331
S'lava'
p8332
tp8333
(S'VVZ'
p8334
S'lead'
p8335
tp8336
tp8337
F-11.52303587682578
tp8338
a(((g1018
g1019
tp8339
(S'NN'
p8340
S'lava'
p8341
tp8342
tp8343
F-11.535559880034047
tp8344
a(((S'VVZ'
p8345
S'suggest'
p8346
tp8347
(S'NN'
p8348
S'lava'
p8349
tp8350
tp8351
F-11.535559880034047
tp8352
a(((S'VVZ'
p8353
S'break'
p8354
tp8355
(S'NN'
p8356
S'lava'
p8357
tp8358
tp8359
F-11.535559880034047
tp8360
a((g5085
(S'NP'
p8361
S'lava'
p8362
tp8363
tp8364
F-11.57679215505113
tp8365
a(((S'VVP'
p8366
S'die'
p8367
tp8368
g2191
tp8369
F-11.57679215505113
tp8370
a(((S'NN'
p8371
S'lava'
p8372
tp8373
(S'VVZ'
p8374
S'end'
p8375
tp8376
tp8377
F-11.594406321281053
tp8378
a(((S'VVZ'
p8379
S'allow'
p8380
tp8381
(S'NNS'
p8382
S'eruption'
p8383
tp8384
tp8385
F-11.605455740134738
tp8386
a(((S'NN'
p8387
S'eruption'
p8388
tp8389
(S'VVP'
p8390
S'wind'
p8391
tp8392
tp8393
F-11.695581004607659
tp8394
a(((S'NNS'
p8395
S'eruption'
p8396
tp8397
g4955
tp8398
F-11.69573307302761
tp8399
a(((S'VVZ'
p8400
S'produce'
p8401
tp8402
(S'NN'
p8403
S'magma'
p8404
tp8405
tp8406
F-11.703520801514456
tp8407
a((g7385
(S'NN'
p8408
S'magma'
p8409
tp8410
tp8411
F-11.775663662113612
tp8412
a(((S'VVP'
p8413
S'rise'
p8414
tp8415
(S'NN'
p8416
S'magma'
p8417
tp8418
tp8419
F-11.775663662113612
tp8420
a(((S'VVP'
p8421
S'detect'
p8422
tp8423
(S'NN'
p8424
S'eruption'
p8425
tp8426
tp8427
F-11.777838847092717
tp8428
a(((S'NNS'
p8429
S'eruption'
p8430
tp8431
(S'VVP'
p8432
S'range'
p8433
tp8434
tp8435
F-11.780600833277505
tp8436
a(((S'VVP'
p8437
S'travel'
p8438
tp8439
g6395
tp8440
F-11.821166800928403
tp8441
a((g2108
(S'NNS'
p8442
S'lava'
p8443
tp8444
tp8445
F-11.821166800928403
tp8446
a(((S'VVZ'
p8447
S'lie'
p8448
tp8449
(S'NN'
p8450
S'lava'
p8451
tp8452
tp8453
F-11.861406556175485
tp8454
a((g5096
(S'VVZ'
p8455
S'cause'
p8456
tp8457
tp8458
F-11.942170513467008
tp8459
a(((S'VVP'
p8460
S'escape'
p8461
tp8462
(S'NN'
p8463
S'eruption'
p8464
tp8465
tp8466
F-11.947735740883186
tp8467
a(((S'NNS'
p8468
S'eruption'
p8469
tp8470
(S'VVP'
p8471
S'damage'
p8472
tp8473
tp8474
F-11.948924250380031
tp8475
a(((S'NN'
p8476
S'lava'
p8477
tp8478
(S'VVZ'
p8479
S'move'
p8480
tp8481
tp8482
F-11.970961142035357
tp8483
a(((S'NNS'
p8484
S'eruption'
p8485
tp8486
(S'VVP'
p8487
S'happen'
p8488
tp8489
tp8490
F-11.990848169013812
tp8491
a(((S'VVP'
p8492
S'know'
p8493
tp8494
(S'NN'
p8495
S'magma'
p8496
tp8497
tp8498
F-11.991934810544098
tp8499
a(((S'NNS'
p8500
S'dome'
p8501
tp8502
(S'VVZ'
p8503
S'say'
p8504
tp8505
tp8506
F-12.003127320430458
tp8507
a((g4234
(S'NNS'
p8508
S'eruption'
p8509
tp8510
tp8511
F-12.017652038392734
tp8512
a(((S'VVZ'
p8513
S'block'
p8514
tp8515
(S'NN'
p8516
S'lava'
p8517
tp8518
tp8519
F-12.02101897441349
tp8520
a(((S'NNS'
p8521
S'magma'
p8522
tp8523
(S'VVZ'
p8524
S'cause'
p8525
tp8526
tp8527
F-12.026387345758819
tp8528
a(((S'NNS'
p8529
S'eruption'
p8530
tp8531
g6027
tp8532
F-12.03225187677549
tp8533
a(((S'NN'
p8534
S'lava'
p8535
tp8536
g5649
tp8537
F-12.054133490100984
tp8538
a(((S'NN'
p8539
S'eruption'
p8540
tp8541
(g5195
g5196
tp8542
tp8543
F-12.073712225378006
tp8544
a(((S'NNS'
p8545
S'eruption'
p8546
tp8547
(S'VVZ'
p8548
S'lie'
p8549
tp8550
tp8551
F-12.073712225378006
tp8552
a(((S'NN'
p8553
S'lava'
p8554
tp8555
(S'VVZ'
p8556
S'create'
p8557
tp8558
tp8559
F-12.11848627763364
tp8560
a(((S'NN'
p8561
S'eruption'
p8562
tp8563
(S'VVZ'
p8564
S'appear'
p8565
tp8566
tp8567
F-12.119054649594304
tp8568
a(((g3131
g3132
tp8569
(S'NN'
p8570
S'lava'
p8571
tp8572
tp8573
F-12.125307674749257
tp8574
a(((S'NNS'
p8575
S'eruption'
p8576
tp8577
g7989
tp8578
F-12.197296019996145
tp8579
a(((S'VVP'
p8580
S'appear'
p8581
tp8582
(S'NNS'
p8583
S'lava'
p8584
tp8585
tp8586
F-12.217603218022509
tp8587
a(((S'VVP'
p8588
S'don'
p8589
tp8590
g8177
tp8591
F-12.280481926693412
tp8592
a(((S'NNS'
p8593
S'eruption'
p8594
tp8595
(S'VVP'
p8596
S'appear'
p8597
tp8598
tp8599
F-12.360509508224759
tp8600
a(((S'VVZ'
p8601
S'cause'
p8602
tp8603
(S'NN'
p8604
S'magma'
p8605
tp8606
tp8607
F-12.360672030131086
tp8608
a((g4542
g6019
tp8609
F-12.402733148499177
tp8610
a(((S'NP'
p8611
S'lava'
p8612
tp8613
(g3839
g3840
tp8614
tp8615
F-12.44920454565659
tp8616
a(((S'VVZ'
p8617
S'begin'
p8618
tp8619
g5330
tp8620
F-12.45625704932408
tp8621
a(((S'NN'
p8622
S'lava'
p8623
tp8624
(S'VVP'
p8625
S'follow'
p8626
tp8627
tp8628
F-12.466930245253018
tp8629
a(((S'NN'
p8630
S'lava'
p8631
tp8632
(S'VVZ'
p8633
S'reach'
p8634
tp8635
tp8636
F-12.492866773826552
tp8637
a(((S'NN'
p8638
S'lava'
p8639
tp8640
(S'VVP'
p8641
S'cool'
p8642
tp8643
tp8644
F-12.498162157288634
tp8645
a(((S'VVP'
p8646
S'believe'
p8647
tp8648
(S'NN'
p8649
S'lava'
p8650
tp8651
tp8652
F-12.498979940454578
tp8653
a(((S'VVP'
p8654
S'contain'
p8655
tp8656
(S'NN'
p8657
S'lava'
p8658
tp8659
tp8660
F-12.512053611175531
tp8661
a((g676
(S'VVZ'
p8662
S'continue'
p8663
tp8664
tp8665
F-12.524058553001366
tp8666
a(((S'VVP'
p8667
S'begin'
p8668
tp8669
(S'NN'
p8670
S'magma'
p8671
tp8672
tp8673
F-12.539948386417032
tp8674
a((g5359
(S'NN'
p8675
S'eruption'
p8676
tp8677
tp8678
F-12.592280650312459
tp8679
a(((S'VVZ'
p8680
S'contain'
p8681
tp8682
(S'NN'
p8683
S'lava'
p8684
tp8685
tp8686
F-12.60157688182679
tp8687
a(((S'VVP'
p8688
S'view'
p8689
tp8690
(S'NN'
p8691
S'lava'
p8692
tp8693
tp8694
F-12.60157688182679
tp8695
a(((S'VVP'
p8696
S'tell'
p8697
tp8698
(S'NNS'
p8699
S'eruption'
p8700
tp8701
tp8702
F-12.657637580751826
tp8703
a((g7997
(g7429
g7430
tp8704
tp8705
F-12.67063407275995
tp8706
a(((S'VVP'
p8707
S'indicate'
p8708
tp8709
(S'NNS'
p8710
S'eruption'
p8711
tp8712
tp8713
F-12.684251778149873
tp8714
a(((S'VVZ'
p8715
S'fragment'
p8716
tp8717
g6726
tp8718
F-12.714508436912896
tp8719
a(((S'VVZ'
p8720
S'gas'
p8721
tp8722
(S'NNS'
p8723
S'crater'
p8724
tp8725
tp8726
F-12.755255725609228
tp8727
a(((S'VVZ'
p8728
S'develop'
p8729
tp8730
(S'NN'
p8731
S'eruption'
p8732
tp8733
tp8734
F-12.763349918243588
tp8735
a((g4529
(S'NNS'
p8736
S'eruption'
p8737
tp8738
tp8739
F-12.776222905987286
tp8740
a((g8376
(S'NN'
p8741
S'lava'
p8742
tp8743
tp8744
F-12.80022054628328
tp8745
a(((S'NN'
p8746
S'lava'
p8747
tp8748
g2020
tp8749
F-12.806623370954302
tp8750
a(((S'NN'
p8751
S'lava'
p8752
tp8753
(S'VVZ'
p8754
S'fall'
p8755
tp8756
tp8757
F-12.819937199218273
tp8758
a(((S'NN'
p8759
S'lava'
p8760
tp8761
(S'VVP'
p8762
S'continue'
p8763
tp8764
tp8765
F-12.837094861346305
tp8766
a(((S'VVZ'
p8767
S'crater'
p8768
tp8769
(S'NNS'
p8770
S'gas'
p8771
tp8772
tp8773
F-12.839612217789359
tp8774
a(((S'VVP'
p8775
S'grow'
p8776
tp8777
g6107
tp8778
F-12.850184383346377
tp8779
a(((S'NNS'
p8780
S'eruption'
p8781
tp8782
(S'VVP'
p8783
S'help'
p8784
tp8785
tp8786
F-12.876515672789857
tp8787
a(((S'NN'
p8788
S'eruption'
p8789
tp8790
(S'VVZ'
p8791
S'send'
p8792
tp8793
tp8794
F-12.876515672789857
tp8795
a(((S'NN'
p8796
S'lava'
p8797
tp8798
g2052
tp8799
F-12.897839823074802
tp8800
a(((S'NN'
p8801
S'lava'
p8802
tp8803
g3836
tp8804
F-12.911092216105349
tp8805
a(((S'NN'
p8806
S'eruption'
p8807
tp8808
(S'VVZ'
p8809
S'believe'
p8810
tp8811
tp8812
F-12.915426079136331
tp8813
a(((S'NNS'
p8814
S'eruption'
p8815
tp8816
(S'VVZ'
p8817
S'fragment'
p8818
tp8819
tp8820
F-12.954227229059244
tp8821
a(((S'NNS'
p8822
S'eruption'
p8823
tp8824
g2352
tp8825
F-13.031505668412338
tp8826
a((g5427
g8376
tp8827
F-13.07114460518461
tp8828
a(((S'NN'
p8829
S'gas'
p8830
tp8831
(S'VVZ'
p8832
S'erupt'
p8833
tp8834
tp8835
F-13.098717736808982
tp8836
a((g1811
(S'VVP'
p8837
S'form'
p8838
tp8839
tp8840
F-13.124105499768424
tp8841
a(((S'NN'
p8842
S'eruption'
p8843
tp8844
(S'VVZ'
p8845
S'grow'
p8846
tp8847
tp8848
F-13.184793678767683
tp8849
a(((g1473
g1474
tp8850
(S'NN'
p8851
S'lava'
p8852
tp8853
tp8854
F-13.203225383096258
tp8855
a(((S'NN'
p8856
S'lava'
p8857
tp8858
(S'VVZ'
p8859
S'remain'
p8860
tp8861
tp8862
F-13.208525578990937
tp8863
a(((S'NN'
p8864
S'lava'
p8865
tp8866
(S'VVZ'
p8867
S'kill'
p8868
tp8869
tp8870
F-13.22736908269289
tp8871
a(((S'NN'
p8872
S'lava'
p8873
tp8874
(S'VVP'
p8875
S'remain'
p8876
tp8877
tp8878
F-13.283425137222444
tp8879
a(((S'NN'
p8880
S'lava'
p8881
tp8882
(S'VVP'
p8883
S'look'
p8884
tp8885
tp8886
F-13.328935215938213
tp8887
a(((S'NN'
p8888
S'lava'
p8889
tp8890
(S'VVZ'
p8891
S'look'
p8892
tp8893
tp8894
F-13.328935215938213
tp8895
a(((S'VVZ'
p8896
S'start'
p8897
tp8898
(S'NN'
p8899
S'lava'
p8900
tp8901
tp8902
F-13.372087600489373
tp8903
a(((S'NNS'
p8904
S'eruption'
p8905
tp8906
g3599
tp8907
F-13.414134343160153
tp8908
a(((S'VVP'
p8909
S'provide'
p8910
tp8911
(S'NN'
p8912
S'lava'
p8913
tp8914
tp8915
F-13.44316687585782
tp8916
a(((S'VVZ'
p8917
S'provide'
p8918
tp8919
(S'NNS'
p8920
S'lava'
p8921
tp8922
tp8923
F-13.44316687585782
tp8924
a(((S'VVZ'
p8925
S'move'
p8926
tp8927
(S'NN'
p8928
S'lava'
p8929
tp8930
tp8931
F-13.478565971860013
tp8932
a((g7071
(S'NN'
p8933
S'lava'
p8934
tp8935
tp8936
F-13.478565971860013
tp8937
a(((S'NNS'
p8938
S'gas'
p8939
tp8940
(S'VVP'
p8941
S'form'
p8942
tp8943
tp8944
F-13.501311715225908
tp8945
a(((S'NN'
p8946
S'lava'
p8947
tp8948
g4082
tp8949
F-13.604590778051952
tp8950
a(((S'NN'
p8951
S'eruption'
p8952
tp8953
(S'VVZ'
p8954
S'start'
p8955
tp8956
tp8957
F-13.635017866051268
tp8958
a(((S'VVZ'
p8959
S'suggest'
p8960
tp8961
(S'NNS'
p8962
S'eruption'
p8963
tp8964
tp8965
F-13.64079106659024
tp8966
a(((S'NP'
p8967
S'lava'
p8968
tp8969
g6118
tp8970
F-13.677817714804608
tp8971
a(((S'NN'
p8972
S'eruption'
p8973
tp8974
(S'VVZ'
p8975
S'provide'
p8976
tp8977
tp8978
F-13.708718929441156
tp8979
a(((S'VVZ'
p8980
S'suggest'
p8981
tp8982
(S'NN'
p8983
S'eruption'
p8984
tp8985
tp8986
F-13.72708143964609
tp8987
a(((S'VVP'
p8988
S'suggest'
p8989
tp8990
(S'NNS'
p8991
S'eruption'
p8992
tp8993
tp8994
F-13.72708143964609
tp8995
a(((S'NN'
p8996
S'lava'
p8997
tp8998
(S'VVZ'
p8999
S'take'
p9000
tp9001
tp9002
F-13.735182770670479
tp9003
a(((S'VVZ'
p9004
S'die'
p9005
tp9006
(S'NN'
p9007
S'eruption'
p9008
tp9009
tp9010
F-13.775936985508006
tp9011
a(((S'VVZ'
p9012
S'set'
p9013
tp9014
(S'NN'
p9015
S'eruption'
p9016
tp9017
tp9018
F-13.775936985508006
tp9019
a(((S'VVP'
p9020
S'force'
p9021
tp9022
(S'NN'
p9023
S'lava'
p9024
tp9025
tp9026
F-13.896324281611781
tp9027
a(((S'VVZ'
p9028
S'cool'
p9029
tp9030
g4797
tp9031
F-13.964735866362762
tp9032
a(((S'VVZ'
p9033
S'travel'
p9034
tp9035
g6035
tp9036
F-13.981268576408828
tp9037
a(((S'VVZ'
p9038
S'point'
p9039
tp9040
(S'NNS'
p9041
S'eruption'
p9042
tp9043
tp9044
F-14.065507611680458
tp9045
a(((S'NN'
p9046
S'eruption'
p9047
tp9048
g6878
tp9049
F-14.108240276112243
tp9050
a(((S'VVZ'
p9051
S'happen'
p9052
tp9053
(S'NN'
p9054
S'eruption'
p9055
tp9056
tp9057
F-14.113191847143614
tp9058
a(((S'NNS'
p9059
S'eruption'
p9060
tp9061
(S'VVP'
p9062
S'deposit'
p9063
tp9064
tp9065
F-14.143452043811054
tp9066
a(((S'NNS'
p9067
S'eruption'
p9068
tp9069
g8614
tp9070
F-14.144905193273623
tp9071
a(((S'NN'
p9072
S'lava'
p9073
tp9074
g3479
tp9075
F-14.158718108712616
tp9076
a((g1996
g2736
tp9077
F-14.222882590873358
tp9078
a(((S'NNS'
p9079
S'lava'
p9080
tp9081
(g4430
g4431
tp9082
tp9083
F-14.229567205390765
tp9084
a(((S'NN'
p9085
S'eruption'
p9086
tp9087
g8643
tp9088
F-14.25022025928429
tp9089
a(((S'NN'
p9090
S'eruption'
p9091
tp9092
(S'VVP'
p9093
S'think'
p9094
tp9095
tp9096
F-14.285646287118672
tp9097
a((g8756
(S'NN'
p9098
S'lava'
p9099
tp9100
tp9101
F-14.323029477405772
tp9102
a(((S'VVZ'
p9103
S'continue'
p9104
tp9105
(S'NN'
p9106
S'lava'
p9107
tp9108
tp9109
F-14.335165669808712
tp9110
a(((S'VVP'
p9111
S'continue'
p9112
tp9113
g2462
tp9114
F-14.335165669808712
tp9115
a(((S'NN'
p9116
S'lava'
p9117
tp9118
g2360
tp9119
F-14.340069041668707
tp9120
a(((S'NN'
p9121
S'eruption'
p9122
tp9123
(S'VVZ'
p9124
S'continue'
p9125
tp9126
tp9127
F-14.498089918423206
tp9128
a(((S'VVP'
p9129
S'appear'
p9130
tp9131
g1943
tp9132
F-14.535313156337967
tp9133
a(((S'NNS'
p9134
S'eruption'
p9135
tp9136
(S'VVP'
p9137
S'continue'
p9138
tp9139
tp9140
F-14.63556581604168
tp9141
a(((S'NNS'
p9142
S'eruption'
p9143
tp9144
(S'VVZ'
p9145
S'increase'
p9146
tp9147
tp9148
F-14.63556581604168
tp9149
a(((S'NNS'
p9150
S'eruption'
p9151
tp9152
(S'VVP'
p9153
S'generate'
p9154
tp9155
tp9156
F-14.671751695068753
tp9157
a(((S'VVP'
p9158
S'predict'
p9159
tp9160
g8065
tp9161
F-14.6866058097672
tp9162
a(((S'NN'
p9163
S'eruption'
p9164
tp9165
(S'VVZ'
p9166
S'fall'
p9167
tp9168
tp9169
F-14.704632029839088
tp9170
a(((S'NN'
p9171
S'lava'
p9172
tp9173
(S'VVZ'
p9174
S'dome'
p9175
tp9176
tp9177
F-14.758729540213926
tp9178
a(((S'VVP'
p9179
S'work'
p9180
tp9181
(S'NN'
p9182
S'lava'
p9183
tp9184
tp9185
F-14.760967629795074
tp9186
a(((S'NN'
p9187
S'eruption'
p9188
tp9189
(S'VVP'
p9190
S'generate'
p9191
tp9192
tp9193
F-14.807678006017806
tp9194
a(((S'VVP'
p9195
S'believe'
p9196
tp9197
(S'NN'
p9198
S'eruption'
p9199
tp9200
tp9201
F-14.922506775212304
tp9202
a(((S'VVZ'
p9203
S'remain'
p9204
tp9205
(S'NN'
p9206
S'lava'
p9207
tp9208
tp9209
F-14.985235527441315
tp9210
a(((S'VVZ'
p9211
S'contain'
p9212
tp9213
(S'NN'
p9214
S'eruption'
p9215
tp9216
tp9217
F-14.990403782029546
tp9218
a(((S'NN'
p9219
S'lava'
p9220
tp9221
(S'VVZ'
p9222
S'show'
p9223
tp9224
tp9225
F-15.012365106159404
tp9226
a(((S'NN'
p9227
S'eruption'
p9228
tp9229
(S'VVZ'
p9230
S'kill'
p9231
tp9232
tp9233
F-15.012540940178157
tp9234
a(((S'VVP'
p9235
S'send'
p9236
tp9237
(S'NN'
p9238
S'eruption'
p9239
tp9240
tp9241
F-15.035155329889962
tp9242
a((g5499
(S'NNS'
p9243
S'eruption'
p9244
tp9245
tp9246
F-15.07977408550904
tp9247
a((g1690
(S'NN'
p9248
S'eruption'
p9249
tp9250
tp9251
F-15.07977408550904
tp9252
a(((S'VVZ'
p9253
S'predict'
p9254
tp9255
g7345
tp9256
F-15.07977408550904
tp9257
a(((S'VVP'
p9258
S'believe'
p9259
tp9260
(S'NNS'
p9261
S'eruption'
p9262
tp9263
tp9264
F-15.07977408550904
tp9265
a(((S'VVZ'
p9266
S's'
p9267
tp9268
(S'NN'
p9269
S'debris'
p9270
tp9271
tp9272
F-15.114088831819695
tp9273
a(((S'NNS'
p9274
S'eruption'
p9275
tp9276
(S'VVZ'
p9277
S'remain'
p9278
tp9279
tp9280
F-15.181818756290703
tp9281
a(((g2350
g2351
tp9282
(S'NN'
p9283
S'eruption'
p9284
tp9285
tp9286
F-15.21284526334976
tp9287
a(((S'NN'
p9288
S'eruption'
p9289
tp9290
(S'VVZ'
p9291
S'take'
p9292
tp9293
tp9294
F-15.291273404347752
tp9295
a(((S'NN'
p9296
S'eruption'
p9297
tp9298
(S'VVZ'
p9299
S'remain'
p9300
tp9301
tp9302
F-15.313393065399374
tp9303
a(((S'NNS'
p9304
S'eruption'
p9305
tp9306
(S'VVP'
p9307
S'remain'
p9308
tp9309
tp9310
F-15.313393065399374
tp9311
a(((S'NN'
p9312
S'magma'
p9313
tp9314
(S'VVZ'
p9315
S'surface'
p9316
tp9317
tp9318
F-15.318190666374663
tp9319
a(((S'VVZ'
p9320
S'do'
p9321
tp9322
(S'NN'
p9323
S'lava'
p9324
tp9325
tp9326
F-15.33103028275802
tp9327
a(((S'VVP'
p9328
S'grow'
p9329
tp9330
(S'NN'
p9331
S'eruption'
p9332
tp9333
tp9334
F-15.388483766940421
tp9335
a(((S'VVZ'
p9336
S'take'
p9337
tp9338
(S'NN'
p9339
S'lava'
p9340
tp9341
tp9342
F-15.393067572825238
tp9343
a(((S'NN'
p9344
S'lava'
p9345
tp9346
(S'VVZ'
p9347
S'make'
p9348
tp9349
tp9350
F-15.404490892082388
tp9351
a((g5652
(S'NNS'
p9352
S'eruption'
p9353
tp9354
tp9355
F-15.409699626165882
tp9356
a(((S'NN'
p9357
S'lava'
p9358
tp9359
(S'VVP'
p9360
S'make'
p9361
tp9362
tp9363
F-15.469598970156882
tp9364
a(((S'VVZ'
p9365
S'include'
p9366
tp9367
(S'NN'
p9368
S'lava'
p9369
tp9370
tp9371
F-15.483464939182703
tp9372
a(((S'VVP'
p9373
S'include'
p9374
tp9375
(S'NN'
p9376
S'lava'
p9377
tp9378
tp9379
F-15.627540074007982
tp9380
a(((g5850
g5851
tp9381
(S'VVZ'
p9382
S'take'
p9383
tp9384
tp9385
F-15.67564147242018
tp9386
a(((S'NN'
p9387
S'lava'
p9388
tp9389
(S'VVZ'
p9390
S'occur'
p9391
tp9392
tp9393
F-15.725188839108053
tp9394
a(((S'NN'
p9395
S'lava'
p9396
tp9397
(S'VVP'
p9398
S'occur'
p9399
tp9400
tp9401
F-15.725188839108053
tp9402
a(((S'NNS'
p9403
S'lava'
p9404
tp9405
(S'VVP'
p9406
S'occur'
p9407
tp9408
tp9409
F-15.789287928863972
tp9410
a(((S'NNS'
p9411
S'eruption'
p9412
tp9413
(S'VVP'
p9414
S'result'
p9415
tp9416
tp9417
F-15.804363966738388
tp9418
a(((S'NN'
p9419
S'eruption'
p9420
tp9421
(g9365
g9366
tp9422
tp9423
F-15.809366945024495
tp9424
a((g7917
g7762
tp9425
F-15.809366945024495
tp9426
a(((S'NN'
p9427
S'magma'
p9428
tp9429
g8722
tp9430
F-15.847951783533382
tp9431
a(((g2979
g2980
tp9432
g2522
tp9433
F-15.861595268396858
tp9434
a(((S'NN'
p9435
S'lava'
p9436
tp9437
(S'VVZ'
p9438
S'leave'
p9439
tp9440
tp9441
F-15.901955593962077
tp9442
a(((g3597
g3598
tp9443
(S'NNS'
p9444
S'eruption'
p9445
tp9446
tp9447
F-15.903766285364199
tp9448
a(((S'VVZ'
p9449
S'start'
p9450
tp9451
(S'NNS'
p9452
S'eruption'
p9453
tp9454
tp9455
F-15.903766285364199
tp9456
a(((S'VVP'
p9457
S'start'
p9458
tp9459
(S'NN'
p9460
S'eruption'
p9461
tp9462
tp9463
F-15.903766285364199
tp9464
a(((S'NN'
p9465
S'eruption'
p9466
tp9467
g9375
tp9468
F-15.997834501094705
tp9469
a(((S'VVZ'
p9470
S'give'
p9471
tp9472
(S'NNS'
p9473
S'eruption'
p9474
tp9475
tp9476
F-16.029999273314377
tp9477
a(((S'VVZ'
p9478
S'give'
p9479
tp9480
(S'NN'
p9481
S'eruption'
p9482
tp9483
tp9484
F-16.029999273314377
tp9485
a(((S'VVP'
p9486
S'create'
p9487
tp9488
(S'NN'
p9489
S'eruption'
p9490
tp9491
tp9492
F-16.113605264178624
tp9493
a((g5708
(S'NNS'
p9494
S'eruption'
p9495
tp9496
tp9497
F-16.113605264178624
tp9498
a((g7074
(S'VVP'
p9499
S'erupt'
p9500
tp9501
tp9502
F-16.11575544069795
tp9503
a(((g9222
g9223
tp9504
(S'NN'
p9505
S'lava'
p9506
tp9507
tp9508
F-16.169832492976404
tp9509
a(((S'VVP'
p9510
S'erupt'
p9511
tp9512
(S'NN'
p9513
S'magma'
p9514
tp9515
tp9516
F-16.42267087491221
tp9517
a(((S'NN'
p9518
S'lava'
p9519
tp9520
g5024
tp9521
F-16.43419372059497
tp9522
a(((S'NNS'
p9523
S'lava'
p9524
tp9525
(S'VVZ'
p9526
S'produce'
p9527
tp9528
tp9529
F-16.458606005115644
tp9530
a(((S'VVP'
p9531
S'form'
p9532
tp9533
g2164
tp9534
F-16.464396557989513
tp9535
a(((S'VVZ'
p9536
S'erupt'
p9537
tp9538
(S'NN'
p9539
S'magma'
p9540
tp9541
tp9542
F-16.48626328991327
tp9543
a((g3841
(S'NNS'
p9544
S'eruption'
p9545
tp9546
tp9547
F-16.50421794842959
tp9548
a(((S'NN'
p9549
S'lava'
p9550
tp9551
(S'VVZ'
p9552
S'produce'
p9553
tp9554
tp9555
F-16.51976650583955
tp9556
a(((S'VVZ'
p9557
S'erupt'
p9558
tp9559
(S'NNS'
p9560
S'magma'
p9561
tp9562
tp9563
F-16.549855704914332
tp9564
a(((S'VVP'
p9565
S'follow'
p9566
tp9567
(S'NN'
p9568
S'eruption'
p9569
tp9570
tp9571
F-16.565898182785922
tp9572
a(((S'VVP'
p9573
S'follow'
p9574
tp9575
(S'NNS'
p9576
S'eruption'
p9577
tp9578
tp9579
F-16.565898182785922
tp9580
a(((S'VVP'
p9581
S'think'
p9582
tp9583
g5949
tp9584
F-16.57551553862449
tp9585
a(((S'NP'
p9586
S'lava'
p9587
tp9588
(S'VVP'
p9589
S'produce'
p9590
tp9591
tp9592
F-16.580927006563453
tp9593
a(((S'NN'
p9594
S'magma'
p9595
tp9596
(S'VVZ'
p9597
S'form'
p9598
tp9599
tp9600
F-16.616504987760386
tp9601
a(((S'NNS'
p9602
S'eruption'
p9603
tp9604
(S'VVZ'
p9605
S'place'
p9606
tp9607
tp9608
F-16.624300558576945
tp9609
a(((S'VVZ'
p9610
S'think'
p9611
tp9612
(S'NN'
p9613
S'eruption'
p9614
tp9615
tp9616
F-16.646813128819385
tp9617
a(((S'NN'
p9618
S'magma'
p9619
tp9620
(S'VVP'
p9621
S'form'
p9622
tp9623
tp9624
F-16.74010239083587
tp9625
a(((S'VVZ'
p9626
S'form'
p9627
tp9628
(S'NN'
p9629
S'magma'
p9630
tp9631
tp9632
F-16.835466775621498
tp9633
a((g8478
(S'VVZ'
p9634
S'come'
p9635
tp9636
tp9637
F-16.881029917607574
tp9638
a(((g9621
g9622
tp9639
g8262
tp9640
F-17.021001884437492
tp9641
a(((S'VVZ'
p9642
S'continue'
p9643
tp9644
(S'NN'
p9645
S'eruption'
p9646
tp9647
tp9648
F-17.04562772813639
tp9649
a(((g9145
g9146
tp9650
g7806
tp9651
F-17.04562772813639
tp9652
a(((S'VVZ'
p9653
S'fall'
p9654
tp9655
(S'NNS'
p9656
S'eruption'
p9657
tp9658
tp9659
F-17.1242761788661
tp9660
a(((S'NNS'
p9661
S'eruption'
p9662
tp9663
(S'VVZ'
p9664
S'show'
p9665
tp9666
tp9667
F-17.14385199565381
tp9668
a(((S'NN'
p9669
S'eruption'
p9670
tp9671
(S'VVZ'
p9672
S'show'
p9673
tp9674
tp9675
F-17.14385199565381
tp9676
a(((S'NNS'
p9677
S'eruption'
p9678
tp9679
g9408
tp9680
F-17.148482828994233
tp9681
a(((g5988
g5989
tp9682
(S'NNS'
p9683
S'eruption'
p9684
tp9685
tp9686
F-17.24157623707336
tp9687
a(((g9190
g9191
tp9688
(S'NN'
p9689
S'eruption'
p9690
tp9691
tp9692
F-17.24157623707336
tp9693
a(((S'VVP'
p9694
S'make'
p9695
tp9696
g5981
tp9697
F-17.260941242203383
tp9698
a(((S'VVZ'
p9699
S'flow'
p9700
tp9701
g5481
tp9702
F-17.303485741417212
tp9703
a(((S'VVZ'
p9704
S'flow'
p9705
tp9706
(S'NN'
p9707
S'gas'
p9708
tp9709
tp9710
F-17.458978383662377
tp9711
a(((S'VVP'
p9712
S'work'
p9713
tp9714
(S'NNS'
p9715
S'eruption'
p9716
tp9717
tp9718
F-17.482889147454927
tp9719
a(((S'NN'
p9720
S'lava'
p9721
tp9722
(S'VVZ'
p9723
S'cause'
p9724
tp9725
tp9726
F-17.526851999495676
tp9727
a(((S'VVP'
p9728
S'occur'
p9729
tp9730
(S'NN'
p9731
S'lava'
p9732
tp9733
tp9734
F-17.53483321369795
tp9735
a((g8193
(S'VVZ'
p9736
S'begin'
p9737
tp9738
tp9739
F-17.549871783260578
tp9740
a((g7082
(S'NN'
p9741
S'lava'
p9742
tp9743
tp9744
F-17.660167614004763
tp9745
a(((S'NNS'
p9746
S'eruption'
p9747
tp9748
(S'VVP'
p9749
S'make'
p9750
tp9751
tp9752
F-17.7034119269428
tp9753
a(((S'NN'
p9754
S'eruption'
p9755
tp9756
(g9694
g9695
tp9757
tp9758
F-17.7034119269428
tp9759
a(((S'NN'
p9760
S'eruption'
p9761
tp9762
(S'VVZ'
p9763
S'occur'
p9764
tp9765
tp9766
F-17.711489717703902
tp9767
a((g1528
(S'NNS'
p9768
S'eruption'
p9769
tp9770
tp9771
F-17.7119539214585
tp9772
a(((S'VVP'
p9773
S'remain'
p9774
tp9775
(S'NN'
p9776
S'eruption'
p9777
tp9778
tp9779
F-17.749844049557574
tp9780
a(((S'VVZ'
p9781
S'remain'
p9782
tp9783
(S'NNS'
p9784
S'eruption'
p9785
tp9786
tp9787
F-17.816496794603097
tp9788
a(((S'NN'
p9789
S'crater'
p9790
tp9791
(S'VVZ'
p9792
S'flow'
p9793
tp9794
tp9795
F-17.82512675789399
tp9796
a(((S'NNS'
p9797
S'eruption'
p9798
tp9799
(S'VVP'
p9800
S'change'
p9801
tp9802
tp9803
F-17.964219300138488
tp9804
a(((S'NN'
p9805
S'gas'
p9806
tp9807
(S'VVP'
p9808
S'flow'
p9809
tp9810
tp9811
F-17.977051964553805
tp9812
a(((S'NNS'
p9813
S'gas'
p9814
tp9815
(S'VVZ'
p9816
S'flow'
p9817
tp9818
tp9819
F-17.977051964553805
tp9820
a(((S'NNS'
p9821
S'eruption'
p9822
tp9823
(S'VVZ'
p9824
S'occur'
p9825
tp9826
tp9827
F-17.992993162058735
tp9828
a(((g9589
g9590
tp9829
(S'NN'
p9830
S'lava'
p9831
tp9832
tp9833
F-18.01431807329908
tp9834
a(((S'VVZ'
p9835
S'do'
p9836
tp9837
(S'NN'
p9838
S'eruption'
p9839
tp9840
tp9841
F-18.09625612968548
tp9842
a(((S'VVP'
p9843
S'say'
p9844
tp9845
(S'NN'
p9846
S'crater'
p9847
tp9848
tp9849
F-18.104372751917996
tp9850
a(((S'VVZ'
p9851
S'produce'
p9852
tp9853
g8278
tp9854
F-18.137507995309882
tp9855
a(((S'VVP'
p9856
S'use'
p9857
tp9858
(S'NN'
p9859
S'lava'
p9860
tp9861
tp9862
F-18.17534281939976
tp9863
a(((S'NNS'
p9864
S'eruption'
p9865
tp9866
(S'VVZ'
p9867
S'leave'
p9868
tp9869
tp9870
F-18.193294792910734
tp9871
a(((S'VVZ'
p9872
S'say'
p9873
tp9874
g1406
tp9875
F-18.20450297326342
tp9876
a(((S'VVP'
p9877
S'say'
p9878
tp9879
(S'NNS'
p9880
S'gas'
p9881
tp9882
tp9883
F-18.20450297326342
tp9884
a(((S'VVZ'
p9885
S'go'
p9886
tp9887
(S'NN'
p9888
S'eruption'
p9889
tp9890
tp9891
F-18.226583862663936
tp9892
a(((S'NNS'
p9893
S'eruption'
p9894
tp9895
g9591
tp9896
F-18.302604579457544
tp9897
a(((S'VVZ'
p9898
S'rise'
p9899
tp9900
(S'NN'
p9901
S'lava'
p9902
tp9903
tp9904
F-18.357949264271454
tp9905
a(((S'VVZ'
p9906
S'include'
p9907
tp9908
(S'NN'
p9909
S'eruption'
p9910
tp9911
tp9912
F-18.66367832574456
tp9913
a(((S'NNS'
p9914
S'eruption'
p9915
tp9916
(S'VVZ'
p9917
S'use'
p9918
tp9919
tp9920
F-18.671927509360188
tp9921
a(((S'NN'
p9922
S'crater'
p9923
tp9924
(S'VVZ'
p9925
S'say'
p9926
tp9927
tp9928
F-18.758816326099886
tp9929
a(((S'NN'
p9930
S'gas'
p9931
tp9932
g8505
tp9933
F-18.79889885697195
tp9934
a(((g6483
g6484
tp9935
(S'NN'
p9936
S'eruption'
p9937
tp9938
tp9939
F-18.842808913194165
tp9940
a((g6614
g8169
tp9941
F-18.842808913194165
tp9942
a(((S'NNS'
p9943
S'gas'
p9944
tp9945
(S'VVP'
p9946
S'say'
p9947
tp9948
tp9949
F-18.855706632600594
tp9950
a(((S'VVZ'
p9951
S'live'
p9952
tp9953
(S'NNS'
p9954
S'eruption'
p9955
tp9956
tp9957
F-18.98489655077424
tp9958
a(((S'NNS'
p9959
S'eruption'
p9960
tp9961
(S'VVP'
p9962
S'come'
p9963
tp9964
tp9965
F-19.30308226142785
tp9966
a(((S'NN'
p9967
S'eruption'
p9968
tp9969
(S'VVZ'
p9970
S'come'
p9971
tp9972
tp9973
F-19.30308226142785
tp9974
a(((S'VVP'
p9975
S'flank'
p9976
tp9977
(S'NNS'
p9978
S'eruption'
p9979
tp9980
tp9981
F-19.4049183193452
tp9982
a(((S'VVZ'
p9983
S'begin'
p9984
tp9985
g9903
tp9986
F-19.42393118139068
tp9987
a(((S'VVP'
p9988
S'study'
p9989
tp9990
(S'NN'
p9991
S'eruption'
p9992
tp9993
tp9994
F-19.50851087749437
tp9995
a((g1898
(S'NN'
p9996
S'eruption'
p9997
tp9998
tp9999
F-19.662231779898715
tp10000
a(((S'VVZ'
p10001
S'show'
p10002
tp10003
(S'NNS'
p10004
S'eruption'
p10005
tp10006
tp10007
F-19.899700210862857
tp10008
a(((S'NN'
p10009
S'eruption'
p10010
tp10011
(S'VVZ'
p10012
S'begin'
p10013
tp10014
tp10015
F-19.924570702934574
tp10016
a(((S'NNS'
p10017
S'eruption'
p10018
tp10019
(S'VVP'
p10020
S'cause'
p10021
tp10022
tp10023
F-19.969646271829184
tp10024
a(((S'NNS'
p10025
S'eruption'
p10026
tp10027
(S'VVP'
p10028
S'begin'
p10029
tp10030
tp10031
F-20.126822850723556
tp10032
a((g7049
(S'NN'
p10033
S'eruption'
p10034
tp10035
tp10036
F-20.457751651298253
tp10037
a(((S'VVP'
p10038
S'make'
p10039
tp10040
(S'NN'
p10041
S'eruption'
p10042
tp10043
tp10044
F-20.457751651298253
tp10045
a(((S'VVZ'
p10046
S'make'
p10047
tp10048
(S'NNS'
p10049
S'eruption'
p10050
tp10051
tp10052
F-20.515688016073476
tp10053
a((g7060
(S'NNS'
p10054
S'eruption'
p10055
tp10056
tp10057
F-20.78356225445602
tp10058
a(((S'VVZ'
p10059
S'occur'
p10060
tp10061
(S'NN'
p10062
S'eruption'
p10063
tp10064
tp10065
F-20.840600326611938
tp10066
a(((S'VVZ'
p10067
S'occur'
p10068
tp10069
(S'NNS'
p10070
S'eruption'
p10071
tp10072
tp10073
F-20.840600326611938
tp10074
a(((S'VVP'
p10075
S'like'
p10076
tp10077
(S'NN'
p10078
S'lava'
p10079
tp10080
tp10081
F-21.864659484122132
tp10082
a(((S'VVP'
p10083
S'flow'
p10084
tp10085
(S'NN'
p10086
S'magma'
p10087
tp10088
tp10089
F-22.050832114463596
tp10090
a((g9706
(S'NN'
p10091
S'magma'
p10092
tp10093
tp10094
F-22.050832114463596
tp10095
a(((S'NN'
p10096
S'magma'
p10097
tp10098
(S'VVZ'
p10099
S'flow'
p10100
tp10101
tp10102
F-22.07986967405437
tp10103
a(((S'VVP'
p10104
S'know'
p10105
tp10106
(S'NNS'
p10107
S'eruption'
p10108
tp10109
tp10110
F-22.106770533177972
tp10111
a(((S'VVP'
p10112
S'know'
p10113
tp10114
(S'NN'
p10115
S'eruption'
p10116
tp10117
tp10118
F-22.160300051526093
tp10119
a(((S'VVZ'
p10120
S'know'
p10121
tp10122
(S'NNS'
p10123
S'eruption'
p10124
tp10125
tp10126
F-22.213829569874218
tp10127
a(((S'NNS'
p10128
S'eruption'
p10129
tp10130
(S'VVZ'
p10131
S'like'
p10132
tp10133
tp10134
F-22.63466198869618
tp10135
a(((S'VVZ'
p10136
S'say'
p10137
tp10138
(S'NN'
p10139
S'magma'
p10140
tp10141
tp10142
F-22.944341840696882
tp10143
a(((S'VVZ'
p10144
S'cause'
p10145
tp10146
(S'NNS'
p10147
S'eruption'
p10148
tp10149
tp10150
F-22.99353055413971
tp10151
a(((S'VVZ'
p10152
S'begin'
p10153
tp10154
(S'NN'
p10155
S'eruption'
p10156
tp10157
tp10158
F-23.219403567910636
tp10159
a((g2336
(g10136
g10137
tp10160
tp10161
F-23.26566938279574
tp10162
a(((S'NN'
p10163
S'magma'
p10164
tp10165
(S'VVP'
p10166
S'say'
p10167
tp10168
tp10169
F-23.357483249647668
tp10170
a(((S'NN'
p10171
S'lava'
p10172
tp10173
(S'VVZ'
p10174
S'gas'
p10175
tp10176
tp10177
F-23.388320109349838
tp10178
a(((S'NN'
p10179
S'lava'
p10180
tp10181
(S'VVZ'
p10182
S'erupt'
p10183
tp10184
tp10185
F-23.502161047542053
tp10186
a(((S'NNS'
p10187
S'lava'
p10188
tp10189
(S'VVP'
p10190
S'erupt'
p10191
tp10192
tp10193
F-23.633440228533953
tp10194
a(((S'NN'
p10195
S'lava'
p10196
tp10197
(S'VVP'
p10198
S'erupt'
p10199
tp10200
tp10201
F-23.633440228533953
tp10202
a(((S'NP'
p10203
S'lava'
p10204
tp10205
(S'VVZ'
p10206
S'erupt'
p10207
tp10208
tp10209
F-23.633440228533953
tp10210
a(((S'NN'
p10211
S'lava'
p10212
tp10213
(g6849
g6850
tp10214
tp10215
F-24.226471532781847
tp10216
a((g10205
(S'VVZ'
p10217
S'form'
p10218
tp10219
tp10220
F-24.269032006102197
tp10221
a(((S'NN'
p10222
S'lava'
p10223
tp10224
(S'VVZ'
p10225
S'form'
p10226
tp10227
tp10228
F-24.269032006102197
tp10229
a(((S'NP'
p10230
S'lava'
p10231
tp10232
(S'VVP'
p10233
S'form'
p10234
tp10235
tp10236
F-24.354152952742904
tp10237
a(((g6779
g6780
tp10238
(S'NN'
p10239
S'lava'
p10240
tp10241
tp10242
F-25.499075284434028
tp10243
a(((S'VVZ'
p10244
S'erupt'
p10245
tp10246
(S'NN'
p10247
S'lava'
p10248
tp10249
tp10250
F-25.571664591081795
tp10251
a((g9501
g8935
tp10252
F-25.703816315975583
tp10253
a(((g9499
g9500
tp10254
(S'NNS'
p10255
S'lava'
p10256
tp10257
tp10258
F-25.74786689094018
tp10259
a(((S'VVZ'
p10260
S'form'
p10261
tp10262
(S'NN'
p10263
S'lava'
p10264
tp10265
tp10266
F-26.263605109986607
tp10267
a(((S'VVP'
p10268
S'form'
p10269
tp10270
(g7033
g7034
tp10271
tp10272
F-26.349285435429266
tp10273
a(((S'VVZ'
p10274
S'form'
p10275
tp10276
(S'NNS'
p10277
S'lava'
p10278
tp10279
tp10280
F-26.47780592359326
tp10281
a(((S'VVZ'
p10282
S's'
p10283
tp10284
(S'NN'
p10285
S'crater'
p10286
tp10287
tp10288
F-26.624615702199215
tp10289
a(((S'VVZ'
p10290
S's'
p10291
tp10292
(g5046
g5047
tp10293
tp10294
F-26.663380799048973
tp10295
a((g10292
(g5078
g5079
tp10296
tp10297
F-26.810369970041837
tp10298
a(((S'NNS'
p10299
S'eruption'
p10300
tp10301
(g9510
g9511
tp10302
tp10303
F-26.918374017704057
tp10304
a(((S'NNS'
p10305
S'eruption'
p10306
tp10307
g10214
tp10308
F-27.626455621255708
tp10309
a(((g8767
g8768
tp10310
(S'NNS'
p10311
S'eruption'
p10312
tp10313
tp10314
F-30.188607547015504
tp10315
a(((S'NN'
p10316
S'crater'
p10317
tp10318
(S'VVZ'
p10319
S's'
p10320
tp10321
tp10322
F-30.220934426514084
tp10323
a((g5502
g9245
tp10324
F-30.30476520772971
tp10325
a(((S'NNS'
p10326
S'gas'
p10327
tp10328
(S'VVZ'
p10329
S's'
p10330
tp10331
tp10332
F-30.53435857793945
tp10333
a(((g9376
g9377
tp10334
(S'VVZ'
p10335
S'flow'
p10336
tp10337
tp10338
F-30.958183273214452
tp10339
a(((S'NP'
p10340
S'lava'
p10341
tp10342
(S'VVZ'
p10343
S'flow'
p10344
tp10345
tp10346
F-31.979452201937807
tp10347
a((g6590
(S'VVP'
p10348
S'flow'
p10349
tp10350
tp10351
F-32.27594963285749
tp10352
a(((S'VVZ'
p10353
S's'
p10354
tp10355
(S'NN'
p10356
S'magma'
p10357
tp10358
tp10359
F-33.74450494445984
tp10360
a(((S'NN'
p10361
S'lava'
p10362
tp10363
g8505
tp10364
F-33.85575074433265
tp10365
a(((S'VVZ'
p10366
S'flow'
p10367
tp10368
(S'NN'
p10369
S'lava'
p10370
tp10371
tp10372
F-34.24129253069072
tp10373
a(((S'VVZ'
p10374
S'flow'
p10375
tp10376
(S'NP'
p10377
S'lava'
p10378
tp10379
tp10380
F-34.24129253069072
tp10381
a(((S'NNS'
p10382
S'eruption'
p10383
tp10384
(S'VVP'
p10385
S'rock'
p10386
tp10387
tp10388
F-36.031089210815246
tp10389
a(((g9465
g9466
tp10390
g10337
tp10391
F-36.83875898666906
tp10392
a(((S'NN'
p10393
S'magma'
p10394
tp10395
(S'VVZ'
p10396
S's'
p10397
tp10398
tp10399
F-37.7701055190974
tp10400
a(((S'NN'
p10401
S'eruption'
p10402
tp10403
(S'VVZ'
p10404
S'say'
p10405
tp10406
tp10407
F-38.49482084156553
tp10408
a((g8486
(S'VVZ'
p10409
S'say'
p10410
tp10411
tp10412
F-38.52259028837612
tp10413
a(((S'NN'
p10414
S'eruption'
p10415
tp10416
(S'VVP'
p10417
S'say'
p10418
tp10419
tp10420
F-38.63366807561848
tp10421
a(((S'NNS'
p10422
S'eruption'
p10423
tp10424
(S'VVP'
p10425
S'say'
p10426
tp10427
tp10428
F-38.63366807561848
tp10429
a(((S'VVZ'
p10430
S'flow'
p10431
tp10432
(S'NNS'
p10433
S'eruption'
p10434
tp10435
tp10436
F-40.678476925717995
tp10437
a(((g10343
g10344
tp10438
(S'NN'
p10439
S'eruption'
p10440
tp10441
tp10442
F-40.678476925717995
tp10443
a(((S'VVZ'
p10444
S'say'
p10445
tp10446
(S'NN'
p10447
S'eruption'
p10448
tp10449
tp10450
F-42.29664916079159
tp10451
a(((S'VVP'
p10452
S'say'
p10453
tp10454
(S'NN'
p10455
S'eruption'
p10456
tp10457
tp10458
F-42.38085680458261
tp10459
a(((S'VVZ'
p10460
S'say'
p10461
tp10462
(S'NNS'
p10463
S'eruption'
p10464
tp10465
tp10466
F-42.436995233776635
tp10467
a(((S'VVP'
p10468
S'say'
p10469
tp10470
(S'NNS'
p10471
S'eruption'
p10472
tp10473
tp10474
F-42.436995233776635
tp10475
a(((S'VVZ'
p10476
S's'
p10477
tp10478
(S'NN'
p10479
S'lava'
p10480
tp10481
tp10482
F-52.53789897131318
tp10483
a(((S'NN'
p10484
S'lava'
p10485
tp10486
(S'VVZ'
p10487
S's'
p10488
tp10489
tp10490
F-54.8476989104595
tp10491
a(((S'VVZ'
p10492
S's'
p10493
tp10494
(S'NN'
p10495
S'eruption'
p10496
tp10497
tp10498
F-62.244271975930154
tp10499
a(((S'VVZ'
p10500
S's'
p10501
tp10502
g7248
tp10503
F-62.30154550036529
tp10504
a(((S'NNS'
p10505
S'eruption'
p10506
tp10507
(S'VVZ'
p10508
S's'
p10509
tp10510
tp10511
F-62.467467759779815
tp10512
a(((S'NN'
p10513
S'eruption'
p10514
tp10515
(S'VVZ'
p10516
S's'
p10517
tp10518
tp10519
F-62.505660860577024
tp10520
a.