(dp0
S'basalte'
p1
(dp2
S'lame'
p3
F0.650669455071378
sS'pointer'
p4
F1.016271951643776
sS'devoir'
p5
F-4.0828576126249105
sS'pillow-lavas'
p6
F1.2766721872876918
sS'former'
p7
F-3.3738450517741607
sS'\xc3\xa9pancher'
p8
F-0.4861393497528063
sS'cr\xc3\xa9er'
p9
F-1.5850608312789085
sS'durer'
p10
F-1.090901549913865
ssS't\xc3\xa9phra'
p11
(dp12
sS'gaz'
p13
(dp14
sS'fontaine'
p15
(dp16
sS'lave'
p17
(dp18
sS'cendre'
p19
(dp20
sS'magma'
p21
(dp22
sS'scorie'
p23
(dp24
S'laisser'
p25
F-0.8372017644717604
sS'construire'
p26
F-0.49600339018755074
ssS'c\xc3\xb4ne'
p27
(dp28
S'\xc3\xa9lever'
p29
F-2.4110002571373
sS'avaler'
p30
F0.413407621201223
sS'celui-ci'
p31
F-1.1644414087918853
sS'effondrer'
p32
F-1.4807774880478113
sS'ouvrir'
p33
F-2.0107059174460518
sS'donner'
p34
F-4.2096210581092945
sS'endommager'
p35
F0.02775180270938193
sS'd\xc3\xa9montrer'
p36
F-0.3817478566650983
ssS'd\xc3\xb4me'
p37
(dp38
sS'\xc3\xa9ruption'
p39
(dp40
sS'd\xc3\xa9bris'
p41
(dp42
S'\xc3\xa9lever'
p43
F-0.9994360616681082
sS'pulv\xc3\xa9riser'
p44
F0.7650813261073423
sS'devoir'
p45
F-2.8777100962457016
ssS'crat\xc3\xa8re'
p46
(dp47
S'aimez-la'
p48
F0.7775481001575709
sS'aimer'
p49
F-2.661214460575952
sS'permettre'
p50
F-8.914489385310954
sS'observer'
p51
F-6.17868541256272
sS'ouvrir'
p52
F-4.638815250983175
sS'accroire'
p53
F0.7999491510094416
sS'creuser'
p54
F-3.0901810868481263
sS'installer'
p55
F-4.52661254614968
sS'recueillir'
p56
F-2.0346753045781467
sg29
F-5.2228954347559355
sS'appara\xc3\xaetre'
p57
F-5.759085328554254
sS'pr\xc3\xa9cipiter'
p58
F-1.2943470316698742
sS'passer'
p59
F-6.8347608926211745
sS'pr\xc3\xa9cipit'
p60
F1.5948375853683354
sS'planter'
p61
F-1.6791157148946503
sS'achever'
p62
F-1.5349251891485662
sS'former'
p63
F-9.166356995550519
sS'recouvrir'
p64
F-5.043408421289813
sS'r\xc3\xa9pondre'
p65
F-2.1940137330902343
sS'exploser'
p66
F-3.6135558024878223
sS'violentes;'
p67
F1.5948375853683354
sS'panohaya'
p68
F1.6101033755920928
sS'chopiner'
p69
F1.5948375853683354
sS'rejeter'
p70
F-2.9075086862627555
sS'durer'
p71
F-3.920850110391582
sS'faire'
p72
F-15.982413448191286
sS'tomber'
p73
F-4.3389907175018125
sS'larguer'
p74
F0.054591017592070204
sS'constituer'
p75
F-7.897233472041142
sS'provoquer'
p76
F-6.289924198390253
ssS'volcan'
p77
(dp78
sS'v\xc3\xa9sicule'
p79
(dp80
s.