(lp0
(((S'VER:simp'
p1
S'\xc3\xa9visc\xc3\xa9rer'
p2
tp3
(S'NOM'
p4
S'gaz'
p5
tp6
tp7
F3.897344000197018
tp8
a(((S'NOM'
p9
S'magma'
p10
tp11
(S'VER:cond'
p12
S'pi\xc3\xa9g\xc3\xa9s;'
p13
tp14
tp15
F1.9319800879842837
tp16
a(((g1
g2
tp17
(S'NOM'
p18
S'cendre'
p19
tp20
tp21
F1.740611411591876
tp22
a(((S'NOM'
p23
S'gaz'
p24
tp25
g14
tp26
F1.725828245286776
tp27
a(((S'VER:simp'
p28
S'sceller'
p29
tp30
(S'NOM'
p31
S'gaz'
p32
tp33
tp34
F1.7125273970056143
tp35
a(((S'NOM'
p36
S'd\xc3\xb4me'
p37
tp38
(S'VER:simp'
p39
S'\xc3\xa9chafauder'
p40
tp41
tp42
F1.6705119835334712
tp43
a(((S'NOM'
p44
S'crat\xc3\xa8re'
p45
tp46
(S'VER:simp'
p47
S'panohaya'
p48
tp49
tp50
F1.6101033755920928
tp51
a(((S'VER:subp'
p52
S'chopiner'
p53
tp54
(S'NOM'
p55
S'crat\xc3\xa8re'
p56
tp57
tp58
F1.5948375853683354
tp59
a(((S'VER:subi'
p60
S'violentes;'
p61
tp62
(S'NOM'
p63
S'crat\xc3\xa8re'
p64
tp65
tp66
F1.5948375853683354
tp67
a(((S'VER:simp'
p68
S'pr\xc3\xa9cipit'
p69
tp70
(S'NOM'
p71
S'crat\xc3\xa8re'
p72
tp73
tp74
F1.5948375853683354
tp75
a(((S'NOM'
p76
S'basalte'
p77
tp78
(S'VER:simp'
p79
S'pillow-lavas'
p80
tp81
tp82
F1.2766721872876918
tp83
a(((S'VER:simp'
p84
S'larguer'
p85
tp86
(S'NOM'
p87
S'crat\xc3\xa8re'
p88
tp89
tp90
F1.0996190686402705
tp91
a(((S'NOM'
p92
S'magma'
p93
tp94
(S'VER:simp'
p95
S'disloquer'
p96
tp97
tp98
F1.0659881782049911
tp99
a(((S'VER:subp'
p100
S'pointer'
p101
tp102
(S'NOM'
p103
S'basalte'
p104
tp105
tp106
F1.016271951643776
tp107
a((g3
(S'NOM'
p108
S'volcan'
p109
tp110
tp111
F0.986116951366627
tp112
a(((S'NOM'
p113
S'lave'
p114
tp115
(S'VER:simp'
p116
S'pillowlavas'
p117
tp118
tp119
F0.8442993251684242
tp120
a((g30
(S'NOM'
p121
S'lave'
p122
tp123
tp124
F0.8016536676660192
tp125
a(((S'NOM'
p126
S'crat\xc3\xa8re'
p127
tp128
(S'VER:simp'
p129
S'aimez-la'
p130
tp131
tp132
F0.7999491510094416
tp133
a(((S'NOM'
p134
S'crat\xc3\xa8re'
p135
tp136
(S'VER:simp'
p137
S'accroire'
p138
tp139
tp140
F0.7999491510094416
tp141
a(((S'VER:simp'
p142
S'aimez-la'
p143
tp144
g128
tp145
F0.7775481001575709
tp146
a(((S'NOM'
p147
S'd\xc3\xa9bris'
p148
tp149
(S'VER:simp'
p150
S'pulv\xc3\xa9riser'
p151
tp152
tp153
F0.7650813261073423
tp154
a(((S'VER:simp'
p155
S'pichincha'
p156
tp157
(S'NOM'
p158
S'cendre'
p159
tp160
tp161
F0.658466271122169
tp162
a(((S'VER:subi'
p163
S'lame'
p164
tp165
(S'NOM'
p166
S'basalte'
p167
tp168
tp169
F0.650669455071378
tp170
a(((S'NOM'
p171
S'\xc3\xa9ruption'
p172
tp173
(S'VER:simp'
p174
S'sine'
p175
tp176
tp177
F0.5769848015721871
tp178
a(((S'NOM'
p179
S'\xc3\xa9ruption'
p180
tp181
(S'VER:simp'
p182
S'git'
p183
tp184
tp185
F0.5769848015721871
tp186
a(((S'NOM'
p187
S'\xc3\xa9ruption'
p188
tp189
(S'VER:subp'
p190
S'pourrait-elle'
p191
tp192
tp193
F0.5769848015721871
tp194
a(((S'VER:simp'
p195
S'activit'
p196
tp197
(S'NOM'
p198
S'\xc3\xa9ruption'
p199
tp200
tp201
F0.5128436740091388
tp202
a(((S'VER:subi'
p203
S'sontils'
p204
tp205
(S'NOM'
p206
S'\xc3\xa9ruption'
p207
tp208
tp209
F0.5128436740091388
tp210
a(((S'NOM'
p211
S'c\xc3\xb4ne'
p212
tp213
(S'VER:simp'
p214
S'avaler'
p215
tp216
tp217
F0.413407621201223
tp218
a(((S'NOM'
p219
S'lave'
p220
tp221
(S'VER:simp'
p222
S'jours.'
p223
tp224
tp225
F0.12791763148963775
tp226
a(((S'NOM'
p227
S'volcan'
p228
tp229
(S'VER:simp'
p230
S'colorada'
p231
tp232
tp233
F0.11285649887108581
tp234
a(((S'NOM'
p235
S'volcan'
p236
tp237
(g60
g61
tp238
tp239
F0.07985114398073523
tp240
a(((S'VER:simp'
p241
S'endommager'
p242
tp243
g213
tp244
F0.02775180270938193
tp245
a(((S'VER:subp'
p246
S'garer'
p247
tp248
(S'NOM'
p249
S'volcan'
p250
tp251
tp252
F-0.0668543265481306
tp253
a((g205
(S'NOM'
p254
S'volcan'
p255
tp256
tp257
F-0.0668543265481306
tp258
a(((S'NOM'
p259
S'\xc3\xa9ruption'
p260
tp261
(S'VER:cond'
p262
S'rivaliser'
p263
tp264
tp265
F-0.1240318255006883
tp266
a(((S'NOM'
p267
S'\xc3\xa9ruption'
p268
tp269
(S'VER:subp'
p270
S'ressemblent-elles'
p271
tp272
tp273
F-0.1240318255006883
tp274
a(((S'NOM'
p275
S'\xc3\xa9ruption'
p276
tp277
(S'VER:subp'
p278
S'typer'
p279
tp280
tp281
F-0.1755626890220593
tp282
a(((S'VER:subp'
p283
S'extr\xc3\xaame-orient'
p284
tp285
(S'NOM'
p286
S'\xc3\xa9ruption'
p287
tp288
tp289
F-0.218343360570647
tp290
a(((S'VER:subp'
p291
S'router'
p292
tp293
(S'NOM'
p294
S'\xc3\xa9ruption'
p295
tp296
tp297
F-0.218343360570647
tp298
a(((S'VER:simp'
p299
S'succomber'
p300
tp301
(S'NOM'
p302
S'cendre'
p303
tp304
tp305
F-0.24281961081370085
tp306
a((g157
(S'NOM'
p307
S'gaz'
p308
tp309
tp310
F-0.2649199229493454
tp311
a(((S'NOM'
p312
S'lave'
p313
tp314
(S'VER:simp'
p315
S'pillow-lava'
p316
tp317
tp318
F-0.2786073310326027
tp319
a(((S'NOM'
p320
S'lave'
p321
tp322
(S'VER:simp'
p323
S'implorer'
p324
tp325
tp326
F-0.2786073310326027
tp327
a(((g315
g316
tp328
(S'NOM'
p329
S'lave'
p330
tp331
tp332
F-0.35628164618845476
tp333
a((g157
(S'NOM'
p334
S'crat\xc3\xa8re'
p335
tp336
tp337
F-0.35977084650727437
tp338
a(((S'VER:simp'
p339
S'd\xc3\xa9montrer'
p340
tp341
(S'NOM'
p342
S'c\xc3\xb4ne'
p343
tp344
tp345
F-0.3817478566650983
tp346
a(((S'VER:simp'
p347
S'envahir'
p348
tp349
(S'NOM'
p350
S'd\xc3\xb4me'
p351
tp352
tp353
F-0.44199156582888466
tp354
a(((S'NOM'
p355
S'basalte'
p356
tp357
(S'VER:simp'
p358
S'\xc3\xa9pancher'
p359
tp360
tp361
F-0.4861393497528063
tp362
a(((S'VER:simp'
p363
S'construire'
p364
tp365
(S'NOM'
p366
S'scorie'
p367
tp368
tp369
F-0.49600339018755074
tp370
a(((S'NOM'
p371
S'\xc3\xa9ruption'
p372
tp373
(S'VER:simp'
p374
S'ensuivre'
p375
tp376
tp377
F-0.5357102596418828
tp378
a(((S'VER:simp'
p379
S'hiroshima'
p380
tp381
(S'NOM'
p382
S'cendre'
p383
tp384
tp385
F-0.5405627586118626
tp386
a(((S'VER:cond'
p387
S'refl\xc3\xa9ter'
p388
tp389
(S'NOM'
p390
S'cendre'
p391
tp392
tp393
F-0.5405627586118626
tp394
a(((g374
g375
tp395
(S'NOM'
p396
S'\xc3\xa9ruption'
p397
tp398
tp399
F-0.6526436479897789
tp400
a(((S'NOM'
p401
S'scorie'
p402
tp403
(S'VER:simp'
p404
S'laisser'
p405
tp406
tp407
F-0.8372017644717604
tp408
a(((S'VER:simp'
p409
S'bora-bora'
p410
tp411
(S'NOM'
p412
S'volcan'
p413
tp414
tp415
F-0.8391094263158758
tp416
a(((S'NOM'
p417
S'\xc3\xa9ruption'
p418
tp419
(S'VER:simp'
p420
S'entrainer'
p421
tp422
tp423
F-0.8402124552904603
tp424
a(((S'VER:simp'
p425
S'vidanger'
p426
tp427
(S'NOM'
p428
S'lave'
p429
tp430
tp431
F-0.9104595719615483
tp432
a(((S'NOM'
p433
S'gaz'
p434
tp435
(S'VER:simp'
p436
S'susciter'
p437
tp438
tp439
F-0.9568716778656322
tp440
a(((S'VER:simp'
p441
S'sabancaya'
p442
tp443
(S'NOM'
p444
S'\xc3\xa9ruption'
p445
tp446
tp447
F-0.9760198866688305
tp448
a(((S'NOM'
p449
S'c\xc3\xb4ne'
p450
tp451
(S'VER:simp'
p452
S'\xc3\xa9pancher'
p453
tp454
tp455
F-0.9923111612056156
tp456
a(((S'NOM'
p457
S'd\xc3\xa9bris'
p458
tp459
(S'VER:simp'
p460
S'\xc3\xa9lever'
p461
tp462
tp463
F-0.9994360616681082
tp464
a(((S'VER:simp'
p465
S'achever'
p466
tp467
(S'NOM'
p468
S'crat\xc3\xa8re'
p469
tp470
tp471
F-1.028012126065614
tp472
a(((S'NOM'
p473
S'gaz'
p474
tp475
(S'VER:subi'
p476
S'f\xc3\xa9m.'
p477
tp478
tp479
F-1.0465014092946874
tp480
a(((S'NOM'
p481
S'volcan'
p482
tp483
(S'VER:simp'
p484
S'quinta'
p485
tp486
tp487
F-1.0636177476044804
tp488
a(((S'NOM'
p489
S'\xc3\xa9ruption'
p490
tp491
(S'VER:subp'
p492
S'fr\xc3\xa9quenter'
p493
tp494
tp495
F-1.08809307253908
tp496
a(((S'NOM'
p497
S'\xc3\xa9ruption'
p498
tp499
(g425
g426
tp500
tp501
F-1.08809307253908
tp502
a(((S'VER:subp'
p503
S'durer'
p504
tp505
(S'NOM'
p506
S'basalte'
p507
tp508
tp509
F-1.090901549913865
tp510
a(((S'NOM'
p511
S'c\xc3\xb4ne'
p512
tp513
(S'VER:subp'
p514
S'celui-ci'
p515
tp516
tp517
F-1.1644414087918853
tp518
a((g86
(S'NOM'
p519
S'volcan'
p520
tp521
tp522
F-1.1866799310110188
tp523
a(((S'NOM'
p524
S'd\xc3\xb4me'
p525
tp526
(S'VER:simp'
p527
S'percer'
p528
tp529
tp530
F-1.2097223685075635
tp531
a(((S'VER:simp'
p532
S'tungurahua'
p533
tp534
(S'NOM'
p535
S'\xc3\xa9ruption'
p536
tp537
tp538
F-1.2404218552520228
tp539
a(((S'NOM'
p540
S'cendre'
p541
tp542
(S'VER:cond'
p543
S'bloquer'
p544
tp545
tp546
F-1.2625028418142032
tp547
a(((S'VER:simp'
p548
S'pr\xc3\xa9cipiter'
p549
tp550
(S'NOM'
p551
S'crat\xc3\xa8re'
p552
tp553
tp554
F-1.2943470316698742
tp555
a(((S'NOM'
p556
S'lave'
p557
tp558
(S'VER:simp'
p559
S'pillow-lavas'
p560
tp561
tp562
F-1.3438258593836607
tp563
a(((S'NOM'
p564
S'volcan'
p565
tp566
(S'VER:simp'
p567
S'sabancaya'
p568
tp569
tp570
F-1.4017171254041279
tp571
a(((S'NOM'
p572
S'volcan'
p573
tp574
(S'VER:simp'
p575
S'oshima'
p576
tp577
tp578
F-1.4017171254041279
tp579
a(((S'NOM'
p580
S'volcan'
p581
tp582
(S'VER:simp'
p583
S'xalitzintla'
p584
tp585
tp586
F-1.4017171254041279
tp587
a(((S'VER:simp'
p588
S'encercler'
p589
tp590
(S'NOM'
p591
S'lave'
p592
tp593
tp594
F-1.4721881388575961
tp595
a(((g559
g560
tp596
(S'NOM'
p597
S'lave'
p598
tp599
tp600
F-1.4721881388575961
tp601
a(((S'NOM'
p602
S'c\xc3\xb4ne'
p603
tp604
(S'VER:simp'
p605
S'effondrer'
p606
tp607
tp608
F-1.4807774880478113
tp609
a(((S'VER:simp'
p610
S'cr\xc3\xa9er'
p611
tp612
(S'NOM'
p613
S'basalte'
p614
tp615
tp616
F-1.5850608312789085
tp617
a(((S'VER:simp'
p618
S'planter'
p619
tp620
(S'NOM'
p621
S'crat\xc3\xa8re'
p622
tp623
tp624
F-1.6791157148946503
tp625
a((g33
(g347
g348
tp626
tp627
F-1.713731276387936
tp628
a(((g350
g351
tp629
(S'VER:simp'
p630
S'exploser'
p631
tp632
tp633
F-1.7248489717830837
tp634
a(((S'NOM'
p635
S'lave'
p636
tp637
(S'VER:cond'
p638
S'boucher'
p639
tp640
tp641
F-1.7465787915652269
tp642
a(((S'VER:simp'
p643
S'p\xc3\xa9rir'
p644
tp645
(S'NOM'
p646
S'cendre'
p647
tp648
tp649
F-1.779697431086924
tp650
a(((g638
g639
tp651
(S'NOM'
p652
S'lave'
p653
tp654
tp655
F-1.8971408083225605
tp656
a(((S'NOM'
p657
S'volcan'
p658
tp659
(S'VER:simp'
p660
S'pichincha'
p661
tp662
tp663
F-1.929430545952942
tp664
a(((S'NOM'
p665
S'lave'
p666
tp667
g478
tp668
F-1.9750039496361576
tp669
a(((S'VER:simp'
p670
S'ouvrir'
p671
tp672
(g449
g450
tp673
tp674
F-2.0107059174460518
tp675
a(((S'VER:simp'
p676
S'injecter'
p677
tp678
(S'NOM'
p679
S'gaz'
p680
tp681
tp682
F-2.0336185516129737
tp683
a(((S'NOM'
p684
S'cendre'
p685
tp686
(S'VER:simp'
p687
S'demeurer'
p688
tp689
tp690
F-2.034276275941627
tp691
a(((S'NOM'
p692
S'crat\xc3\xa8re'
p693
tp694
(S'VER:simp'
p695
S'recueillir'
p696
tp697
tp698
F-2.0346753045781467
tp699
a(((S'NOM'
p700
S'lave'
p701
tp702
(S'VER:simp'
p703
S'd\xc3\xa9tourner'
p704
tp705
tp706
F-2.1816473633729325
tp707
a(((S'NOM'
p708
S'lave'
p709
tp710
(S'VER:simp'
p711
S'canaliser'
p712
tp713
tp714
F-2.1816473633729325
tp715
a(((S'NOM'
p716
S'crat\xc3\xa8re'
p717
tp718
(S'VER:simp'
p719
S'r\xc3\xa9pondre'
p720
tp721
tp722
F-2.1940137330902343
tp723
a((g451
(S'VER:simp'
p724
S'recouvrir'
p725
tp726
tp727
F-2.2284383692646768
tp728
a(((S'VER:subp'
p729
S'augmenter'
p730
tp731
(S'NOM'
p732
S'd\xc3\xb4me'
p733
tp734
tp735
F-2.2473694059860194
tp736
a(((S'NOM'
p737
S'magma'
p738
tp739
(S'VER:cond'
p740
S'aimer'
p741
tp742
tp743
F-2.278270694443213
tp744
a(((S'VER:subp'
p745
S'sortir'
p746
tp747
(S'NOM'
p748
S'd\xc3\xb4me'
p749
tp750
tp751
F-2.282173071409752
tp752
a(((S'VER:simp'
p753
S'sortir'
p754
tp755
(S'NOM'
p756
S'd\xc3\xb4me'
p757
tp758
tp759
F-2.282173071409752
tp760
a(((S'NOM'
p761
S'c\xc3\xb4ne'
p762
tp763
(S'VER:simp'
p764
S'\xc3\xa9lever'
p765
tp766
tp767
F-2.4110002571373
tp768
a(((S'NOM'
p769
S'cendre'
p770
tp771
(S'VER:simp'
p772
S'diminuer'
p773
tp774
tp775
F-2.523114406715187
tp776
a(((S'VER:simp'
p777
S'\xc3\xa9jecter'
p778
tp779
(S'NOM'
p780
S'gaz'
p781
tp782
tp783
F-2.599594498223681
tp784
a(((S'NOM'
p785
S'crat\xc3\xa8re'
p786
tp787
(S'VER:cond'
p788
S'aimer'
p789
tp790
tp791
F-2.661214460575952
tp792
a(((S'NOM'
p793
S'lave'
p794
tp795
(S'VER:simp'
p796
S'localiser'
p797
tp798
tp799
F-2.7138993714322557
tp800
a(((S'VER:simp'
p801
S'd\xc3\xa9gager'
p802
tp803
(S'NOM'
p804
S'gaz'
p805
tp806
tp807
F-2.7236593590217537
tp808
a(((S'NOM'
p809
S'lave'
p810
tp811
(S'VER:simp'
p812
S'laver'
p813
tp814
tp815
F-2.767054429735214
tp816
a(((S'NOM'
p817
S'\xc3\xa9ruption'
p818
tp819
(S'VER:cond'
p820
S'perturber'
p821
tp822
tp823
F-2.782032720624346
tp824
a((g381
(S'NOM'
p825
S'volcan'
p826
tp827
tp828
F-2.7950635491440363
tp829
a(((S'VER:simp'
p830
S'rejeter'
p831
tp832
(S'NOM'
p833
S'cendre'
p834
tp835
tp836
F-2.8041588605243737
tp837
a(((S'VER:simp'
p838
S'mourir'
p839
tp840
(S'NOM'
p841
S'gaz'
p842
tp843
tp844
F-2.8425190806721057
tp845
a(((S'NOM'
p846
S'volcan'
p847
tp848
(S'VER:simp'
p849
S'd\xc3\xa9capiter'
p850
tp851
tp852
F-2.8747816959209187
tp853
a(((S'NOM'
p854
S'volcan'
p855
tp856
(S'VER:cond'
p857
S'adopter'
p858
tp859
tp860
F-2.8747816959209187
tp861
a(((S'NOM'
p862
S'd\xc3\xa9bris'
p863
tp864
(S'VER:cond'
p865
S'devoir'
p866
tp867
tp868
F-2.8777100962457016
tp869
a((g73
(S'VER:simp'
p870
S'rejeter'
p871
tp872
tp873
F-2.9075086862627555
tp874
a(((S'NOM'
p875
S'\xc3\xa9ruption'
p876
tp877
(S'VER:subp'
p878
S'gonfler'
p879
tp880
tp881
F-2.977349360821109
tp882
a(((S'NOM'
p883
S'magma'
p884
tp885
(S'VER:simp'
p886
S'\xc3\xa9tendre'
p887
tp888
tp889
F-3.0590140132094645
tp890
a(((S'NOM'
p891
S'cendre'
p892
tp893
g888
tp894
F-3.079436538232463
tp895
a(((S'VER:simp'
p896
S'p\xc3\xa9rir'
p897
tp898
g593
tp899
F-3.086975355102427
tp900
a(((S'VER:simp'
p901
S'creuser'
p902
tp903
(S'NOM'
p904
S'crat\xc3\xa8re'
p905
tp906
tp907
F-3.0901810868481263
tp908
a(((S'VER:simp'
p909
S'krama'
p910
tp911
(S'NOM'
p912
S'volcan'
p913
tp914
tp915
F-3.2082207373826646
tp916
a(((S'VER:simp'
p917
S'solidifier'
p918
tp919
(S'NOM'
p920
S'gaz'
p921
tp922
tp923
F-3.265731017003267
tp924
a(((S'NOM'
p925
S'gaz'
p926
tp927
(S'VER:cond'
p928
S's\xc3\xa9parer'
p929
tp930
tp931
F-3.2761529960474527
tp932
a(((S'NOM'
p933
S'\xc3\xa9ruption'
p934
tp935
(S'VER:simp'
p936
S'essayer|essayer'
p937
tp938
tp939
F-3.3348962448854693
tp940
a(((S'VER:cond'
p941
S'former'
p942
tp943
(S'NOM'
p944
S'basalte'
p945
tp946
tp947
F-3.3738450517741607
tp948
a((g542
(S'VER:cond'
p949
S'transformer'
p950
tp951
tp952
F-3.3921654819427016
tp953
a(((S'VER:simp'
p954
S'emporter'
p955
tp956
(S'NOM'
p957
S'cendre'
p958
tp959
tp960
F-3.3974076251238707
tp961
a(((S'VER:cond'
p962
S'provenir'
p963
tp964
(S'NOM'
p965
S'magma'
p966
tp967
tp968
F-3.419563439789703
tp969
a(((g31
g32
tp970
g632
tp971
F-3.433461063050863
tp972
a(((S'NOM'
p973
S'crat\xc3\xa8re'
p974
tp975
(S'VER:subp'
p976
S'durer'
p977
tp978
tp979
F-3.4384452823661382
tp980
a(((S'VER:subi'
p981
S'peut-on'
p982
tp983
(S'NOM'
p984
S'volcan'
p985
tp986
tp987
F-3.4535052619895534
tp988
a((g123
g626
tp989
F-3.5466723824140054
tp990
a(((S'VER:simp'
p991
S'laver'
p992
tp993
(S'NOM'
p994
S'lave'
p995
tp996
tp997
F-3.548980735255677
tp998
a(((S'NOM'
p999
S'lave'
p1000
tp1001
(S'VER:simp'
p1002
S'subir'
p1003
tp1004
tp1005
F-3.554388299979798
tp1006
a(((S'VER:subi'
p1007
S'g'
p1008
tp1009
(S'NOM'
p1010
S'volcan'
p1011
tp1012
tp1013
F-3.5752230597159884
tp1014
a(((S'VER:simp'
p1015
S'\xc3\xa9branler'
p1016
tp1017
(S'NOM'
p1018
S'volcan'
p1019
tp1020
tp1021
F-3.5752230597159884
tp1022
a(((S'NOM'
p1023
S'crat\xc3\xa8re'
p1024
tp1025
(S'VER:simp'
p1026
S'exploser'
p1027
tp1028
tp1029
F-3.6135558024878223
tp1030
a(((S'NOM'
p1031
S'cendre'
p1032
tp1033
(S'VER:simp'
p1034
S'tuer'
p1035
tp1036
tp1037
F-3.6619148658462666
tp1038
a(((S'VER:simp'
p1039
S'p\xc3\xa9rir'
p1040
tp1041
(S'NOM'
p1042
S'\xc3\xa9ruption'
p1043
tp1044
tp1045
F-3.662132038589444
tp1046
a(((S'VER:simp'
p1047
S'recevoir'
p1048
tp1049
(S'NOM'
p1050
S'cendre'
p1051
tp1052
tp1053
F-3.673673887654168
tp1054
a(((S'NOM'
p1055
S'gaz'
p1056
tp1057
g1036
tp1058
F-3.7104380907333456
tp1059
a(((S'NOM'
p1060
S'gaz'
p1061
tp1062
(S'VER:subp'
p1063
S'durer'
p1064
tp1065
tp1066
F-3.7289895407789695
tp1067
a(((S'NOM'
p1068
S'lave'
p1069
tp1070
(S'VER:subp'
p1071
S'envahir'
p1072
tp1073
tp1074
F-3.794525251419151
tp1075
a(((S'VER:simp'
p1076
S'tomber'
p1077
tp1078
(S'NOM'
p1079
S'cendre'
p1080
tp1081
tp1082
F-3.8273413178789
tp1083
a(((S'VER:simp'
p1084
S'tambora'
p1085
tp1086
(S'NOM'
p1087
S'\xc3\xa9ruption'
p1088
tp1089
tp1090
F-3.8412447809530517
tp1091
a(((S'NOM'
p1092
S'gaz'
p1093
tp1094
(S'VER:cond'
p1095
S'vouloir'
p1096
tp1097
tp1098
F-3.8959812749834124
tp1099
a(((S'NOM'
p1100
S'cendre'
p1101
tp1102
(S'VER:simp'
p1103
S'tomber'
p1104
tp1105
tp1106
F-3.9570935154568296
tp1107
a(((S'NOM'
p1108
S'\xc3\xa9ruption'
p1109
tp1110
(S'VER:simp'
p1111
S'd\xc3\xa9buter'
p1112
tp1113
tp1114
F-4.027564349115312
tp1115
a(((S'VER:simp'
p1116
S'fermer'
p1117
tp1118
g795
tp1119
F-4.06655276466265
tp1120
a(((S'NOM'
p1121
S'volcan'
p1122
tp1123
(S'VER:cond'
p1124
S'd\xc3\xa9nombrer'
p1125
tp1126
tp1127
F-4.068759480462409
tp1128
a(((S'NOM'
p1129
S'basalte'
p1130
tp1131
(S'VER:cond'
p1132
S'devoir'
p1133
tp1134
tp1135
F-4.0828576126249105
tp1136
a((g467
(S'NOM'
p1137
S'volcan'
p1138
tp1139
tp1140
F-4.106393155402908
tp1141
a(((S'NOM'
p1142
S'lave'
p1143
tp1144
g454
tp1145
F-4.129272495811986
tp1146
a(((S'NOM'
p1147
S'lave'
p1148
tp1149
g529
tp1150
F-4.129272495811986
tp1151
a(((S'NOM'
p1152
S'magma'
p1153
tp1154
g747
tp1155
F-4.204393934918757
tp1156
a(((S'NOM'
p1157
S'crat\xc3\xa8re'
p1158
tp1159
(g1076
g1077
tp1160
tp1161
F-4.20657669249606
tp1162
a(((S'VER:simp'
p1163
S'donner'
p1164
tp1165
(S'NOM'
p1166
S'c\xc3\xb4ne'
p1167
tp1168
tp1169
F-4.2096210581092945
tp1170
a(((S'VER:simp'
p1171
S'assister'
p1172
tp1173
(S'NOM'
p1174
S'\xc3\xa9ruption'
p1175
tp1176
tp1177
F-4.256600840007707
tp1178
a(((S'NOM'
p1179
S'volcan'
p1180
tp1181
(S'VER:simp'
p1182
S'accepter'
p1183
tp1184
tp1185
F-4.290006003220998
tp1186
a(((S'VER:cond'
p1187
S'traverser'
p1188
tp1189
(S'NOM'
p1190
S'cendre'
p1191
tp1192
tp1193
F-4.300794110451767
tp1194
a(((S'VER:simp'
p1195
S'projeter'
p1196
tp1197
(S'NOM'
p1198
S'cendre'
p1199
tp1200
tp1201
F-4.305274833279523
tp1202
a(((S'VER:simp'
p1203
S'tomber'
p1204
tp1205
g73
tp1206
F-4.3389907175018125
tp1207
a(((S'VER:cond'
p1208
S'faut-il'
p1209
tp1210
(S'NOM'
p1211
S'volcan'
p1212
tp1213
tp1214
F-4.3617762024372695
tp1215
a(((S'NOM'
p1216
S'\xc3\xa9ruption'
p1217
tp1218
(S'VER:simp'
p1219
S'survenir'
p1220
tp1221
tp1222
F-4.366134424298041
tp1223
a(((S'NOM'
p1224
S'\xc3\xa9ruption'
p1225
tp1226
(S'VER:simp'
p1227
S'interdire'
p1228
tp1229
tp1230
F-4.366134424298041
tp1231
a(((S'NOM'
p1232
S'lave'
p1233
tp1234
(S'VER:simp'
p1235
S'r\xc3\xa9pandre'
p1236
tp1237
tp1238
F-4.439456001484406
tp1239
a(((S'VER:simp'
p1240
S'lib\xc3\xa9rer'
p1241
tp1242
(S'NOM'
p1243
S'cendre'
p1244
tp1245
tp1246
F-4.450022062941559
tp1247
a(((S'NOM'
p1248
S'\xc3\xa9ruption'
p1249
tp1250
(S'VER:cond'
p1251
S'aimer'
p1252
tp1253
tp1254
F-4.494578251897144
tp1255
a(((S'VER:simp'
p1256
S'lib\xc3\xa9rer'
p1257
tp1258
(S'NOM'
p1259
S'gaz'
p1260
tp1261
tp1262
F-4.504410401538752
tp1263
a(((S'NOM'
p1264
S'crat\xc3\xa8re'
p1265
tp1266
(S'VER:simp'
p1267
S'installer'
p1268
tp1269
tp1270
F-4.52661254614968
tp1271
a(((S'VER:simp'
p1272
S'enfoncer'
p1273
tp1274
(S'NOM'
p1275
S'lave'
p1276
tp1277
tp1278
F-4.533386494067839
tp1279
a(((S'NOM'
p1280
S'lave'
p1281
tp1282
(S'VER:simp'
p1283
S'diriger'
p1284
tp1285
tp1286
F-4.586884766159391
tp1287
a(((S'NOM'
p1288
S'volcan'
p1289
tp1290
(S'VER:simp'
p1291
S'entreprendre'
p1292
tp1293
tp1294
F-4.602291606043192
tp1295
a(((S'NOM'
p1296
S'volcan'
p1297
tp1298
(S'VER:cond'
p1299
S'fonctionner'
p1300
tp1301
tp1302
F-4.602291606043192
tp1303
a(((S'VER:simp'
p1304
S'd\xc3\xa9clarer'
p1305
tp1306
(S'NOM'
p1307
S'\xc3\xa9ruption'
p1308
tp1309
tp1310
F-4.635248858699542
tp1311
a(((S'NOM'
p1312
S'cendre'
p1313
tp1314
(S'VER:simp'
p1315
S'cr\xc3\xa9er'
p1316
tp1317
tp1318
F-4.637976743977982
tp1319
a(((S'VER:simp'
p1320
S'ouvrir'
p1321
tp1322
(S'NOM'
p1323
S'crat\xc3\xa8re'
p1324
tp1325
tp1326
F-4.638815250983175
tp1327
a(((S'NOM'
p1328
S'\xc3\xa9ruption'
p1329
tp1330
(S'VER:simp'
p1331
S'del'
p1332
tp1333
tp1334
F-4.741259588184834
tp1335
a(((S'NOM'
p1336
S'cendre'
p1337
tp1338
(S'VER:cond'
p1339
S'rendre'
p1340
tp1341
tp1342
F-4.771814206503825
tp1343
a(((S'VER:simp'
p1344
S'dispara\xc3\xaetre'
p1345
tp1346
(S'NOM'
p1347
S'magma'
p1348
tp1349
tp1350
F-4.781303587111311
tp1351
a((g612
(S'NOM'
p1352
S'gaz'
p1353
tp1354
tp1355
F-4.814972870314326
tp1356
a(((S'NOM'
p1357
S'lave'
p1358
tp1359
g978
tp1360
F-4.896200466837122
tp1361
a(((S'VER:cond'
p1362
S'aimer'
p1363
tp1364
(S'NOM'
p1365
S'\xc3\xa9ruption'
p1366
tp1367
tp1368
F-4.917377609022881
tp1369
a(((S'NOM'
p1370
S'cendre'
p1371
tp1372
(S'VER:simp'
p1373
S'\xc3\xa9lever'
p1374
tp1375
tp1376
F-4.923591271060817
tp1377
a(((S'NOM'
p1378
S'gaz'
p1379
tp1380
(S'VER:simp'
p1381
S'\xc3\xa9lever'
p1382
tp1383
tp1384
F-4.979341739868718
tp1385
a(((S'NOM'
p1386
S'lave'
p1387
tp1388
g919
tp1389
F-4.991660258339567
tp1390
a(((g724
g725
tp1391
(S'NOM'
p1392
S'crat\xc3\xa8re'
p1393
tp1394
tp1395
F-5.043408421289813
tp1396
a(((S'NOM'
p1397
S'\xc3\xa9ruption'
p1398
tp1399
(S'VER:simp'
p1400
S'jeter'
p1401
tp1402
tp1403
F-5.089385469817879
tp1404
a(((S'NOM'
p1405
S'cendre'
p1406
tp1407
(S'VER:simp'
p1408
S'd\xc3\xa9truire'
p1409
tp1410
tp1411
F-5.091801635721983
tp1412
a(((S'NOM'
p1413
S'cendre'
p1414
tp1415
(S'VER:subp'
p1416
S'monter'
p1417
tp1418
tp1419
F-5.133040095825964
tp1420
a(((S'NOM'
p1421
S'cendre'
p1422
tp1423
(S'VER:simp'
p1424
S'monter'
p1425
tp1426
tp1427
F-5.133040095825964
tp1428
a(((S'NOM'
p1429
S'gaz'
p1430
tp1431
g1426
tp1432
F-5.190833929321672
tp1433
a(((S'NOM'
p1434
S'\xc3\xa9ruption'
p1435
tp1436
(S'VER:simp'
p1437
S'd\xc3\xa9clencher'
p1438
tp1439
tp1440
F-5.20036751974818
tp1441
a(((S'NOM'
p1442
S'crat\xc3\xa8re'
p1443
tp1444
g766
tp1445
F-5.2228954347559355
tp1446
a(((S'VER:simp'
p1447
S'd\xc3\xa9crire'
p1448
tp1449
(S'NOM'
p1450
S'\xc3\xa9ruption'
p1451
tp1452
tp1453
F-5.243491170059945
tp1454
a(((S'VER:cond'
p1455
S'sembler'
p1456
tp1457
(S'NOM'
p1458
S'magma'
p1459
tp1460
tp1461
F-5.253642973636762
tp1462
a(((S'VER:simp'
p1463
S'r\xc3\xa9fugier'
p1464
tp1465
(S'NOM'
p1466
S'volcan'
p1467
tp1468
tp1469
F-5.271065801617509
tp1470
a(((S'NOM'
p1471
S'cendre'
p1472
tp1473
(S'VER:simp'
p1474
S'laisser'
p1475
tp1476
tp1477
F-5.294963991642012
tp1478
a(((S'NOM'
p1479
S'crat\xc3\xa8re'
p1480
tp1481
(S'VER:cond'
p1482
S'remonter'
p1483
tp1484
tp1485
F-5.356197470224023
tp1486
a(((S'NOM'
p1487
S'lave'
p1488
tp1489
(S'VER:simp'
p1490
S'\xc3\xa9tendre'
p1491
tp1492
tp1493
F-5.471569008793453
tp1494
a(((S'NOM'
p1495
S'crat\xc3\xa8re'
p1496
tp1497
(S'VER:subp'
p1498
S'appara\xc3\xaetre'
p1499
tp1500
tp1501
F-5.589091206200429
tp1502
a(((S'NOM'
p1503
S'\xc3\xa9ruption'
p1504
tp1505
(S'VER:subp'
p1506
S'durer'
p1507
tp1508
tp1509
F-5.619267916596841
tp1510
a(((S'NOM'
p1511
S'\xc3\xa9ruption'
p1512
tp1513
(S'VER:simp'
p1514
S'arr\xc3\xaater'
p1515
tp1516
tp1517
F-5.622938532568471
tp1518
a(((S'NOM'
p1519
S'\xc3\xa9ruption'
p1520
tp1521
(S'VER:simp'
p1522
S'poursuivre'
p1523
tp1524
tp1525
F-5.655541582393421
tp1526
a(((S'NOM'
p1527
S'\xc3\xa9ruption'
p1528
tp1529
(S'VER:simp'
p1530
S'durer'
p1531
tp1532
tp1533
F-5.772763358499129
tp1534
a(((S'NOM'
p1535
S'volcan'
p1536
tp1537
(S'VER:simp'
p1538
S'\xc3\xa9jecter'
p1539
tp1540
tp1541
F-5.845938862692364
tp1542
a((g1261
(S'VER:simp'
p1543
S'provoquer'
p1544
tp1545
tp1546
F-6.002617412652668
tp1547
a((g654
(S'VER:cond'
p1548
S'descendre'
p1549
tp1550
tp1551
F-6.089958226656795
tp1552
a(((S'NOM'
p1553
S'\xc3\xa9ruption'
p1554
tp1555
(g962
g963
tp1556
tp1557
F-6.093781110668754
tp1558
a(((S'NOM'
p1559
S'cendre'
p1560
tp1561
(S'VER:simp'
p1562
S'\xc3\xa9mettre'
p1563
tp1564
tp1565
F-6.111682134384042
tp1566
a(((S'VER:simp'
p1567
S'observer'
p1568
tp1569
(S'NOM'
p1570
S'crat\xc3\xa8re'
p1571
tp1572
tp1573
F-6.17868541256272
tp1574
a(((S'NOM'
p1575
S'\xc3\xa9ruption'
p1576
tp1577
(S'VER:simp'
p1578
S'demander'
p1579
tp1580
tp1581
F-6.204362478023832
tp1582
a(((S'NOM'
p1583
S'lave'
p1584
tp1585
(S'VER:subp'
p1586
S'jaillir'
p1587
tp1588
tp1589
F-6.271133183830297
tp1590
a(((S'NOM'
p1591
S'crat\xc3\xa8re'
p1592
tp1593
(S'VER:simp'
p1594
S'provoquer'
p1595
tp1596
tp1597
F-6.289924198390253
tp1598
a(((S'NOM'
p1599
S'cendre'
p1600
tp1601
(S'VER:simp'
p1602
S'passer'
p1603
tp1604
tp1605
F-6.300907172682808
tp1606
a(((S'VER:simp'
p1607
S'parler'
p1608
tp1609
(S'NOM'
p1610
S'lave'
p1611
tp1612
tp1613
F-6.415541952653248
tp1614
a(((S'NOM'
p1615
S'volcan'
p1616
tp1617
(S'VER:simp'
p1618
S'conduire'
p1619
tp1620
tp1621
F-6.451449570027795
tp1622
a(((S'NOM'
p1623
S'cendre'
p1624
tp1625
(S'VER:subp'
p1626
S'devenir'
p1627
tp1628
tp1629
F-6.453922026588395
tp1630
a(((S'NOM'
p1631
S'gaz'
p1632
tp1633
(S'VER:subp'
p1634
S'devenir'
p1635
tp1636
tp1637
F-6.52481588932381
tp1638
a(((S'NOM'
p1639
S'gaz'
p1640
tp1641
(S'VER:simp'
p1642
S'passer'
p1643
tp1644
tp1645
F-6.52481588932381
tp1646
a(((S'NOM'
p1647
S'volcan'
p1648
tp1649
(S'VER:simp'
p1650
S'manifester'
p1651
tp1652
tp1653
F-6.594309928324166
tp1654
a(((S'NOM'
p1655
S'volcan'
p1656
tp1657
(S'VER:simp'
p1658
S'jeter'
p1659
tp1660
tp1661
F-6.594309928324166
tp1662
a(((S'NOM'
p1663
S'\xc3\xa9ruption'
p1664
tp1665
(S'VER:cond'
p1666
S'entra\xc3\xaener'
p1667
tp1668
tp1669
F-6.694335225501518
tp1670
a(((S'NOM'
p1671
S'\xc3\xa9ruption'
p1672
tp1673
(S'VER:simp'
p1674
S'tuer'
p1675
tp1676
tp1677
F-6.737167941115301
tp1678
a(((S'VER:simp'
p1679
S'honduras'
p1680
tp1681
(S'NOM'
p1682
S'volcan'
p1683
tp1684
tp1685
F-6.793117149660982
tp1686
a((g672
(g1142
g1143
tp1687
tp1688
F-6.796216090543512
tp1689
a(((S'VER:subp'
p1690
S'durer'
p1691
tp1692
(S'NOM'
p1693
S'\xc3\xa9ruption'
p1694
tp1695
tp1696
F-6.807322619690859
tp1697
a(((S'NOM'
p1698
S'crat\xc3\xa8re'
p1699
tp1700
g1644
tp1701
F-6.8347608926211745
tp1702
a((g1144
g726
tp1703
F-6.918073416057404
tp1704
a(((S'VER:subp'
p1705
S'reprendre'
p1706
tp1707
(S'NOM'
p1708
S'volcan'
p1709
tp1710
tp1711
F-7.00593598400161
tp1712
a(((S'NOM'
p1713
S'lave'
p1714
tp1715
(S'VER:simp'
p1716
S'sortir'
p1717
tp1718
tp1719
F-7.110665707668073
tp1720
a(((S'NOM'
p1721
S'volcan'
p1722
tp1723
(S'VER:simp'
p1724
S'parcourir'
p1725
tp1726
tp1727
F-7.202919542530399
tp1728
a(((S'VER:simp'
p1729
S'fuir'
p1730
tp1731
(S'NOM'
p1732
S'volcan'
p1733
tp1734
tp1735
F-7.269341328369749
tp1736
a(((S'NOM'
p1737
S'\xc3\xa9ruption'
p1738
tp1739
(S'VER:simp'
p1740
S'projeter'
p1741
tp1742
tp1743
F-7.2826931865324145
tp1744
a((g1052
(S'VER:simp'
p1745
S'atteindre'
p1746
tp1747
tp1748
F-7.357670574515315
tp1749
a(((S'NOM'
p1750
S'lave'
p1751
tp1752
(S'VER:simp'
p1753
S'\xc3\xa9lever'
p1754
tp1755
tp1756
F-7.359988241188445
tp1757
a(((S'NOM'
p1758
S'volcan'
p1759
tp1760
(S'VER:simp'
p1761
S'remplir'
p1762
tp1763
tp1764
F-7.394917444086575
tp1765
a(((S'NOM'
p1766
S'magma'
p1767
tp1768
(S'VER:simp'
p1769
S'prendre'
p1770
tp1771
tp1772
F-7.421795630160417
tp1773
a((g755
(S'NOM'
p1774
S'lave'
p1775
tp1776
tp1777
F-7.427590422987358
tp1778
a(((S'NOM'
p1779
S'volcan'
p1780
tp1781
(S'VER:simp'
p1782
S'emporter'
p1783
tp1784
tp1785
F-7.457845739686447
tp1786
a(((S'VER:cond'
p1787
S'sortir'
p1788
tp1789
(S'NOM'
p1790
S'lave'
p1791
tp1792
tp1793
F-7.566691959580539
tp1794
a(((S'VER:cond'
p1795
S'falloir'
p1796
tp1797
(S'NOM'
p1798
S'cendre'
p1799
tp1800
tp1801
F-7.68379369315656
tp1802
a(((S'VER:simp'
p1803
S'manifester'
p1804
tp1805
(S'NOM'
p1806
S'volcan'
p1807
tp1808
tp1809
F-7.68835476296668
tp1810
a(((S'NOM'
p1811
S'\xc3\xa9ruption'
p1812
tp1813
(S'VER:simp'
p1814
S'recouvrir'
p1815
tp1816
tp1817
F-7.756498041619215
tp1818
a(((g514
g515
tp1819
(S'NOM'
p1820
S'volcan'
p1821
tp1822
tp1823
F-7.76945016041869
tp1824
a(((S'NOM'
p1825
S'magma'
p1826
tp1827
(S'VER:cond'
p1828
S'venir'
p1829
tp1830
tp1831
F-7.801191188929914
tp1832
a(((S'NOM'
p1833
S'crat\xc3\xa8re'
p1834
tp1835
(S'VER:simp'
p1836
S'constituer'
p1837
tp1838
tp1839
F-7.897233472041142
tp1840
a(((S'NOM'
p1841
S'\xc3\xa9ruption'
p1842
tp1843
(S'VER:simp'
p1844
S'cr\xc3\xa9er'
p1845
tp1846
tp1847
F-7.918753030825223
tp1848
a(((S'NOM'
p1849
S'volcan'
p1850
tp1851
g1556
tp1852
F-7.938187948273086
tp1853
a(((S'VER:simp'
p1854
S'entrer'
p1855
tp1856
(S'NOM'
p1857
S'\xc3\xa9ruption'
p1858
tp1859
tp1860
F-7.956600472675885
tp1861
a(((S'NOM'
p1862
S'volcan'
p1863
tp1864
(S'VER:simp'
p1865
S'recevoir'
p1866
tp1867
tp1868
F-8.002530771598163
tp1869
a(((S'VER:simp'
p1870
S'monter'
p1871
tp1872
(S'NOM'
p1873
S'lave'
p1874
tp1875
tp1876
F-8.143102510537071
tp1877
a(((S'NOM'
p1878
S'volcan'
p1879
tp1880
(S'VER:simp'
p1881
S'durer'
p1882
tp1883
tp1884
F-8.233371701090567
tp1885
a(((S'NOM'
p1886
S'\xc3\xa9ruption'
p1887
tp1888
(S'VER:simp'
p1889
S'd\xc3\xa9truire'
p1890
tp1891
tp1892
F-8.309672104306754
tp1893
a(((S'VER:simp'
p1894
S'conna\xc3\xaetre'
p1895
tp1896
(S'NOM'
p1897
S'cendre'
p1898
tp1899
tp1900
F-8.337263172897362
tp1901
a(((S'NOM'
p1902
S'\xc3\xa9ruption'
p1903
tp1904
(S'VER:simp'
p1905
S'\xc3\xa9lever'
p1906
tp1907
tp1908
F-8.381249096098058
tp1909
a(((S'NOM'
p1910
S'\xc3\xa9ruption'
p1911
tp1912
g1484
tp1913
F-8.586719405012598
tp1914
a(((S'NOM'
p1915
S'volcan'
p1916
tp1917
(S'VER:simp'
p1918
S'tuer'
p1919
tp1920
tp1921
F-8.677201400818698
tp1922
a(((S'VER:simp'
p1923
S'd\xc3\xa9valer'
p1924
tp1925
g1917
tp1926
F-8.683788141038091
tp1927
a(((S'VER:cond'
p1928
S'd\xc3\xa9valer'
p1929
tp1930
(S'NOM'
p1931
S'volcan'
p1932
tp1933
tp1934
F-8.683788141038091
tp1935
a(((S'VER:cond'
p1936
S'expliquer'
p1937
tp1938
(S'NOM'
p1939
S'lave'
p1940
tp1941
tp1942
F-8.710288560185875
tp1943
a(((S'VER:simp'
p1944
S'faire'
p1945
tp1946
g38
tp1947
F-8.727595828390909
tp1948
a(((S'VER:simp'
p1949
S'entendre'
p1950
tp1951
(S'NOM'
p1952
S'volcan'
p1953
tp1954
tp1955
F-8.755678272130519
tp1956
a(((S'NOM'
p1957
S'crat\xc3\xa8re'
p1958
tp1959
(S'VER:cond'
p1960
S'permettre'
p1961
tp1962
tp1963
F-8.914489385310954
tp1964
a(((S'NOM'
p1965
S'volcan'
p1966
tp1967
(S'VER:simp'
p1968
S'descendre'
p1969
tp1970
tp1971
F-8.943779062771204
tp1972
a(((S'VER:simp'
p1973
S'former'
p1974
tp1975
(S'NOM'
p1976
S'crat\xc3\xa8re'
p1977
tp1978
tp1979
F-9.166356995550519
tp1980
a(((S'NOM'
p1981
S'volcan'
p1982
tp1983
(S'VER:simp'
p1984
S'r\xc3\xa9veiller'
p1985
tp1986
tp1987
F-9.193915569067943
tp1988
a(((S'NOM'
p1989
S'volcan'
p1990
tp1991
(g729
g730
tp1992
tp1993
F-9.202907963721547
tp1994
a((g1468
(S'VER:simp'
p1995
S'installer'
p1996
tp1997
tp1998
F-9.40526214528156
tp1999
a(((S'NOM'
p2000
S'volcan'
p2001
tp2002
(S'VER:simp'
p2003
S'entrer'
p2004
tp2005
tp2006
F-9.40526214528156
tp2007
a(((S'NOM'
p2008
S'volcan'
p2009
tp2010
(S'VER:simp'
p2011
S'\xc3\xa9teindre'
p2012
tp2013
tp2014
F-9.40526214528156
tp2015
a(((S'NOM'
p2016
S'lave'
p2017
tp2018
(S'VER:cond'
p2019
S'passer'
p2020
tp2021
tp2022
F-9.565890749614725
tp2023
a(((S'VER:subp'
p2024
S'durer'
p2025
tp2026
(S'NOM'
p2027
S'volcan'
p2028
tp2029
tp2030
F-9.576387562580653
tp2031
a(((S'NOM'
p2032
S'\xc3\xa9ruption'
p2033
tp2034
(g1567
g1568
tp2035
tp2036
F-9.612537306858808
tp2037
a(((S'NOM'
p2038
S'd\xc3\xb4me'
p2039
tp2040
(S'VER:cond'
p2041
S'pouvoir'
p2042
tp2043
tp2044
F-9.70179325434348
tp2045
a(((S'NOM'
p2046
S'\xc3\xa9ruption'
p2047
tp2048
(S'VER:cond'
p2049
S'commencer'
p2050
tp2051
tp2052
F-9.733622192402986
tp2053
a(((S'NOM'
p2054
S'\xc3\xa9ruption'
p2055
tp2056
(S'VER:simp'
p2057
S'suivre'
p2058
tp2059
tp2060
F-9.763674620660376
tp2061
a(((S'VER:simp'
p2062
S'\xc3\xa9mettre'
p2063
tp2064
g1489
tp2065
F-9.848907290323028
tp2066
a(((S'VER:subi'
p2067
S'\xc3\xa9mettre'
p2068
tp2069
(S'NOM'
p2070
S'lave'
p2071
tp2072
tp2073
F-9.848907290323028
tp2074
a(((S'NOM'
p2075
S'volcan'
p2076
tp2077
(S'VER:cond'
p2078
S'menacer'
p2079
tp2080
tp2081
F-9.893758599581409
tp2082
a(((S'NOM'
p2083
S'gaz'
p2084
tp2085
(S'VER:cond'
p2086
S'devoir'
p2087
tp2088
tp2089
F-9.909980487711278
tp2090
a(((S'VER:simp'
p2091
S'vouloir'
p2092
tp2093
g1181
tp2094
F-9.961433631508799
tp2095
a(((S'VER:cond'
p2096
S'devoir'
p2097
tp2098
(S'NOM'
p2099
S'gaz'
p2100
tp2101
tp2102
F-10.171153661238026
tp2103
a(((S'VER:simp'
p2104
S'descendre'
p2105
tp2106
(S'NOM'
p2107
S'volcan'
p2108
tp2109
tp2110
F-10.280401096099752
tp2111
a(((S'NOM'
p2112
S'lave'
p2113
tp2114
(S'VER:simp'
p2115
S'produire'
p2116
tp2117
tp2118
F-10.285492119227834
tp2119
a(((S'VER:subp'
p2120
S'comment'
p2121
tp2122
(S'NOM'
p2123
S'volcan'
p2124
tp2125
tp2126
F-10.392648211476406
tp2127
a(((S'VER:simp'
p2128
S'observer'
p2129
tp2130
(S'NOM'
p2131
S'\xc3\xa9ruption'
p2132
tp2133
tp2134
F-10.417765246421977
tp2135
a(((S'NOM'
p2136
S'\xc3\xa9ruption'
p2137
tp2138
(S'VER:simp'
p2139
S'\xc3\xa9mettre'
p2140
tp2141
tp2142
F-10.572891517530392
tp2143
a(((S'NOM'
p2144
S'volcan'
p2145
tp2146
(S'VER:subp'
p2147
S'pr\xc3\xa9senter'
p2148
tp2149
tp2150
F-10.630700031782656
tp2151
a(((S'VER:simp'
p2152
S'traverser'
p2153
tp2154
(S'NOM'
p2155
S'volcan'
p2156
tp2157
tp2158
F-10.748506358373461
tp2159
a(((S'VER:simp'
p2160
S'depuis'
p2161
tp2162
(S'NOM'
p2163
S'cendre'
p2164
tp2165
tp2166
F-11.068749582671904
tp2167
a(((S'NOM'
p2168
S'volcan'
p2169
tp2170
(S'VER:simp'
p2171
S'monter'
p2172
tp2173
tp2174
F-11.195472912737612
tp2175
a(((S'NOM'
p2176
S'\xc3\xa9ruption'
p2177
tp2178
g2117
tp2179
F-11.517944782406103
tp2180
a(((S'NOM'
p2181
S'\xc3\xa9ruption'
p2182
tp2183
(S'VER:cond'
p2184
S'dire'
p2185
tp2186
tp2187
F-11.587772730137162
tp2188
a(((S'NOM'
p2189
S'volcan'
p2190
tp2191
g1500
tp2192
F-11.73070685953958
tp2193
a(((S'NOM'
p2194
S'lave'
p2195
tp2196
(S'VER:simp'
p2197
S'trouver'
p2198
tp2199
tp2200
F-11.942507850221027
tp2201
a(((S'NOM'
p2202
S'volcan'
p2203
tp2204
g2035
tp2205
F-12.328964003583518
tp2206
a(((S'NOM'
p2207
S'\xc3\xa9ruption'
p2208
tp2209
(S'VER:simp'
p2210
S'atteindre'
p2211
tp2212
tp2213
F-12.495484907394335
tp2214
a(((S'VER:simp'
p2215
S'produire'
p2216
tp2217
(S'NOM'
p2218
S'\xc3\xa9ruption'
p2219
tp2220
tp2221
F-12.529418215222952
tp2222
a(((S'NOM'
p2223
S'\xc3\xa9ruption'
p2224
tp2225
(g1795
g1796
tp2226
tp2227
F-12.694295942370537
tp2228
a(((S'NOM'
p2229
S'volcan'
p2230
tp2231
(S'VER:simp'
p2232
S'provoquer'
p2233
tp2234
tp2235
F-12.860587429156604
tp2236
a(((S'NOM'
p2237
S'volcan'
p2238
tp2239
(S'VER:simp'
p2240
S'\xc3\xa9mettre'
p2241
tp2242
tp2243
F-13.551086286675572
tp2244
a(((S'NOM'
p2245
S'\xc3\xa9ruption'
p2246
tp2247
(S'VER:simp'
p2248
S'donner'
p2249
tp2250
tp2251
F-13.632693467405574
tp2252
a(((S'NOM'
p2253
S'\xc3\xa9ruption'
p2254
tp2255
(S'VER:simp'
p2256
S'conna\xc3\xaetre'
p2257
tp2258
tp2259
F-13.78731005286602
tp2260
a(((S'NOM'
p2261
S'volcan'
p2262
tp2263
g1604
tp2264
F-13.8642515402169
tp2265
a(((S'VER:cond'
p2266
S'sembler'
p2267
tp2268
(S'NOM'
p2269
S'volcan'
p2270
tp2271
tp2272
F-13.90231214348089
tp2273
a(((S'NOM'
p2274
S'volcan'
p2275
tp2276
(S'VER:cond'
p2277
S'savoir'
p2278
tp2279
tp2280
F-14.210642734737387
tp2281
a(((S'VER:simp'
p2282
S'suivre'
p2283
tp2284
(S'NOM'
p2285
S'volcan'
p2286
tp2287
tp2288
F-14.47673506740872
tp2289
a(((S'VER:cond'
p2290
S'trouver'
p2291
tp2292
(S'NOM'
p2293
S'\xc3\xa9ruption'
p2294
tp2295
tp2296
F-14.576889358567106
tp2297
a(((S'VER:simp'
p2298
S'donner'
p2299
tp2300
(S'NOM'
p2301
S'\xc3\xa9ruption'
p2302
tp2303
tp2304
F-14.646189533050695
tp2305
a(((S'NOM'
p2306
S'lave'
p2307
tp2308
(S'VER:cond'
p2309
S'devoir'
p2310
tp2311
tp2312
F-14.652229640071205
tp2313
a((g1896
(S'NOM'
p2314
S'\xc3\xa9ruption'
p2315
tp2316
tp2317
F-14.806628762669568
tp2318
a(((S'VER:simp'
p2319
S'faire'
p2320
tp2321
(S'NOM'
p2322
S'gaz'
p2323
tp2324
tp2325
F-15.23649449554988
tp2326
a(((S'VER:cond'
p2327
S'devoir'
p2328
tp2329
(S'NOM'
p2330
S'lave'
p2331
tp2332
tp2333
F-15.358426979516201
tp2334
a(((g1897
g1898
tp2335
(S'VER:simp'
p2336
S'faire'
p2337
tp2338
tp2339
F-15.413903759397048
tp2340
a((g1564
(S'NOM'
p2341
S'volcan'
p2342
tp2343
tp2344
F-15.567459156778128
tp2345
a(((S'NOM'
p2346
S'volcan'
p2347
tp2348
(S'VER:simp'
p2349
S'rester'
p2350
tp2351
tp2352
F-15.888134038525745
tp2353
a(((S'VER:simp'
p2354
S'faire'
p2355
tp2356
g1835
tp2357
F-15.982413448191286
tp2358
a((g582
(S'VER:cond'
p2359
S'atteindre'
p2360
tp2361
tp2362
F-16.039164994338975
tp2363
a(((S'NOM'
p2364
S'volcan'
p2365
tp2366
(S'VER:cond'
p2367
S'falloir'
p2368
tp2369
tp2370
F-16.253112874545202
tp2371
a(((g468
g469
tp2372
(S'VER:simp'
p2373
S'faire'
p2374
tp2375
tp2376
F-16.362884171309872
tp2377
a(((S'NOM'
p2378
S'cendre'
p2379
tp2380
(S'VER:cond'
p2381
S'pouvoir'
p2382
tp2383
tp2384
F-16.400778060830426
tp2385
a(((S'NOM'
p2386
S'gaz'
p2387
tp2388
(S'VER:cond'
p2389
S'pouvoir'
p2390
tp2391
tp2392
F-16.5741727114388
tp2393
a(((S'NOM'
p2394
S'volcan'
p2395
tp2396
(S'VER:simp'
p2397
S'prendre'
p2398
tp2399
tp2400
F-17.04898288715377
tp2401
a(((S'NOM'
p2402
S'volcan'
p2403
tp2404
g2258
tp2405
F-17.646183596441617
tp2406
a((g2098
(S'NOM'
p2407
S'\xc3\xa9ruption'
p2408
tp2409
tp2410
F-17.746506325589948
tp2411
a((g1797
(S'NOM'
p2412
S'volcan'
p2413
tp2414
tp2415
F-18.67533932906059
tp2416
a((g2162
(S'NOM'
p2417
S'\xc3\xa9ruption'
p2418
tp2419
tp2420
F-19.521603015936034
tp2421
a(((S'VER:simp'
p2422
S'donner'
p2423
tp2424
(S'NOM'
p2425
S'volcan'
p2426
tp2427
tp2428
F-19.828240555757528
tp2429
a(((S'NOM'
p2430
S'volcan'
p2431
tp2432
(S'VER:cond'
p2433
S'devoir'
p2434
tp2435
tp2436
F-21.378247059725467
tp2437
a(((S'VER:cond'
p2438
S'faire'
p2439
tp2440
(S'NOM'
p2441
S'lave'
p2442
tp2443
tp2444
F-22.939771392973164
tp2445
a((g1585
(S'VER:cond'
p2446
S'pouvoir'
p2447
tp2448
tp2449
F-23.923141593511172
tp2450
a(((S'VER:cond'
p2451
S'pouvoir'
p2452
tp2453
(S'NOM'
p2454
S'lave'
p2455
tp2456
tp2457
F-24.1369606890984
tp2458
a(((S'NOM'
p2459
S'\xc3\xa9ruption'
p2460
tp2461
(S'VER:simp'
p2462
S'faire'
p2463
tp2464
tp2465
F-25.56752335939831
tp2466
a(((g2373
g2374
tp2467
(S'NOM'
p2468
S'\xc3\xa9ruption'
p2469
tp2470
tp2471
F-26.582601439159713
tp2472
a(((S'NOM'
p2473
S'\xc3\xa9ruption'
p2474
tp2475
(S'VER:cond'
p2476
S'pouvoir'
p2477
tp2478
tp2479
F-27.177222671477995
tp2480
a(((S'VER:cond'
p2481
S'pouvoir'
p2482
tp2483
(S'NOM'
p2484
S'\xc3\xa9ruption'
p2485
tp2486
tp2487
F-27.890305386238836
tp2488
a(((S'NOM'
p2489
S'volcan'
p2490
tp2491
(S'VER:subp'
p2492
S'comme'
p2493
tp2494
tp2495
F-29.311260265763362
tp2496
a(((g1137
g1138
tp2497
g2375
tp2498
F-32.90677485128036
tp2499
a(((S'NOM'
p2500
S'volcan'
p2501
tp2502
(S'VER:cond'
p2503
S'pouvoir'
p2504
tp2505
tp2506
F-34.60591782281334
tp2507
a(((g2446
g2447
tp2508
(S'NOM'
p2509
S'volcan'
p2510
tp2511
tp2512
F-38.04919207899089
tp2513
a.