(dp0
S'eruption'
p1
(dp2
S'disarray'
p3
F1.940088730885557
sS'low-energy'
p4
F1.3040997491037711
sS'dangerous-'
p5
F1.371875308038828
sS'antidote'
p6
F1.371875308038828
sS'decapitation'
p7
F1.3040997491037711
sS'attrition'
p8
F1.3040997491037711
sS'o-kupaianaha'
p9
F2.2587670235855573
sS'coupde'
p10
F1.371875308038828
sS'predictor'
p11
F1.371875308038828
sS'ring-fracture'
p12
F1.3040997491037711
sS'browse'
p13
F1.371875308038828
sS'flood-basalt'
p14
F1.8442755518699037
sS'530s'
p15
F1.371875308038828
sS'cinc'
p16
F1.371875308038828
sS'`may'
p17
F1.371875308038828
sS'varibilitiy'
p18
F1.371875308038828
sS'steam-blast'
p19
F1.5007446535703137
sS'advanc'
p20
F1.371875308038828
sS'hase'
p21
F1.3040997491037711
sS'the1980s'
p22
F1.371875308038828
sS'event--one'
p23
F1.3040997491037711
sS'same-day'
p24
F1.3040997491037711
sS'blindness'
p25
F1.371875308038828
sS'andavoid'
p26
F1.371875308038828
sS'knowwhich'
p27
F1.371875308038828
sS'plum'
p28
F1.371875308038828
sS'detail;'
p29
F1.371875308038828
sS'surprise.'
p30
F1.371875308038828
sS'nightmare'
p31
F1.371875308038828
sS'frequency;'
p32
F1.371875308038828
ssS'scoria'
p33
(dp34
S'bomb'
p35
F1.2727904236336258
sS'form'
p36
F-1.158330089934386
sS'thread-lace'
p37
F32.06795713254765
sS'pyroclasts'
p38
F3.320849571501818
sS'pumice'
p39
F0.8896997726290865
sS'eruption'
p40
F-3.0374127065257785
sS'dome'
p41
F-0.1251408005252194
sS'height'
p42
F1.0688151217865092
sS'color'
p43
F1.757823577155844
sS'cone'
p44
F2.7335154429062376
sS'fragment'
p45
F0.4057384743834101
sS'cinder'
p46
F1.5742578879120674
sS'ash'
p47
F-1.3626097243208553
sS'bubble'
p48
F0.8501816752296992
ssS'gas'
p49
(dp50
S'sulphide'
p51
F3.6197930914073853
sS'telegram'
p52
F3.626479438077593
sS'one--rips'
p53
F3.6197930914073853
sS'slowdown'
p54
F3.6197930914073853
sS'greenhouse'
p55
F4.550080543509778
sS'monitoring-have'
p56
F3.626479438077593
sS'puffing-up'
p57
F3.6197930914073853
sS'leakage'
p58
F3.626479438077593
sS'fluorine'
p59
F2.8801583035924856
sS'ash,'
p60
F3.626479438077593
sS'buffles'
p61
F3.626479438077593
sS'letha'
p62
F3.6197930914073853
sS'won'
p63
F2.3822236985814857
sS'eye--obscured'
p64
F3.6197930914073853
sS'content'
p65
F4.2241248413194565
sS'climate-affecting'
p66
F3.6197930914073853
sS'symphony'
p67
F3.6197930914073853
sS'racing'
p68
F3.626479438077593
sS'particulate'
p69
F2.3822236985814857
sS'bubbles--that'
p70
F3.626479438077593
sS'sulfur-dioxide'
p71
F3.6197930914073853
sS'emission'
p72
F3.8857836483246517
sS'increase-signals'
p73
F3.626479438077593
sS'stays'
p74
F2.3822236985814857
sS'sampling'
p75
F2.3822236985814857
sS'light--because'
p76
F3.6197930914073853
sS'bubble of'
p77
F2.520434154763171
sS'mask'
p78
F2.4940500951396514
sS'chromatograph'
p79
F5.12859885311791
sS'seepage'
p80
F3.626479438077593
ssS'dome'
p81
(dp82
S'growth'
p83
F0.8942220038035491
sS'smoking'
p84
F0.23299679513785204
sS'low-profile'
p85
F3.9645788332232867
sS'dyke'
p86
F0.23299679513785204
sS'face-lava'
p87
F5.777333371678285
sS'hott'
p88
F5.777333371678285
sS'angle'
p89
F1.126132955115528
sS'coul\\e9e'
p90
F5.777333371678285
sS'station;'
p91
F5.777333371678285
sS'breach'
p92
F0.5671699789777289
sS'mile;'
p93
F5.777333371678285
sS'crest'
p94
F0.9514218399541043
sS'tumulus'
p95
F1.126132955115528
sS'evening'
p96
F0.055534678431779456
sS'collapse'
p97
F0.6455311694050636
sS'expansion'
p98
F0.33672003447991944
sS'tortas'
p99
F5.779142304695596
sS'formation'
p100
F0.42038354066786715
sS'pancake'
p101
F3.1385851469538273
sS'depressurization'
p102
F3.9645788332232867
sS'mound'
p103
F0.3477253421525963
sS'glow'
p104
F0.09870799162823607
sS'spine'
p105
F0.8838956165283678
sS'clump'
p106
F1.4777812983661998
sS'alarm'
p107
F0.5162793146112656
sS'accumulation'
p108
F0.09870799162823607
sS'recording'
p109
F0.8751192648645595
sS'blow--as'
p110
F5.779142304695596
sS'salt'
p111
F1.0346453252308487
sS'route'
p112
F0.19763480903044647
ssS'lava'
p113
(dp114
S'hiking'
p115
F1.6554537314465694
sS'tinypieces'
p116
F1.6554537314465694
sS'lamp,'
p117
F1.6989400173022036
sS'millstone'
p118
F1.6989400173022036
sS'gusher'
p119
F1.6989400173022036
sS'pipes--imagine'
p120
F1.6989400173022036
sS'pond'
p121
F1.9988732576904316
sS'islet'
p122
F1.6989400173022036
sS'flows;'
p123
F1.6989400173022036
sS'escaped.'
p124
F1.6989400173022036
sS'flowfield'
p125
F1.6989400173022036
sS'destructiv'
p126
F1.6989400173022036
sS'fountain'
p127
F3.7623861488475407
sS'drapery'
p128
F1.6989400173022036
sS'lam'
p129
F1.6989400173022036
sS'9.5-mile'
p130
F1.6989400173022036
sS'keepsake'
p131
F1.6989400173022036
sS'recolonize'
p132
F1.6554537314465694
sS'volcano-savvy'
p133
F1.6989400173022036
sS'delta'
p134
F4.044933628834512
sS'collar'
p135
F1.6989400173022036
sS'below--sits'
p136
F1.6554537314465694
sS'flow--is'
p137
F1.6989400173022036
sS'stalagmite'
p138
F1.6989400173022036
sS'montage'
p139
F1.6554537314465694
sS'chamber--a'
p140
F1.6989400173022036
sS'lout'
p141
F1.6989400173022036
sS'wallrocks'
p142
F1.6989400173022036
sS'projectile'
p143
F1.6989400173022036
sS'loyalist'
p144
F1.6989400173022036
ssS'basalt'
p145
(dp146
S'flood'
p147
F4.34466862602705
sS'chunk'
p148
F0.8465576230116548
sS'vary'
p149
F0.3118127957554224
sS'rind'
p150
F3.9007731381393618
sS'slew'
p151
F8.163096641688998
sS'mare'
p152
F1.507976533747238
sS'gabbro'
p153
F3.9007731381393618
sS'clasts'
p154
F2.809604711737549
sS'tephra'
p155
F0.4296380363519329
sS'column'
p156
F0.39855664777053723
sS'pahoehoe'
p157
F0.4125454770510342
sS'content'
p158
F0.1792981370595124
sS'low-viscosity'
p159
F3.4331286843293816
sS'ton'
p160
F0.5943812348913464
sS'tuff'
p161
F0.21532123447645327
sS'trachyte'
p162
F3.8991529978354675
sS'province'
p163
F6.023313016632835
sS'foam'
p164
F1.8622078378865163
sS'glass'
p165
F1.2272765868199356
sS'andesite'
p166
F0.7476230016398112
sS'vesiculation'
p167
F3.4331286843293816
sS'fragmentation'
p168
F1.373952689626568
sS'scarp'
p169
F2.237884084509565
sS'rhyolite'
p170
F0.887446383123059
sS'variety'
p171
F0.9222296908855784
sS'pillow'
p172
F2.7449296163386045
sS'outpouring'
p173
F2.9622652563704968
sS'addition'
p174
F0.7436591226088971
sS'accumulation'
p175
F0.7766849039634699
sS'left'
p176
F0.7476230016398112
ssS'magma'
p177
(dp178
S'hardening'
p179
F2.807041215437528
sS'reservoir'
p180
F4.27783530168014
sS'flows.'
p181
F1.768752186413652
sS'lower-magnesium'
p182
F2.807041215437528
sS'deplete'
p183
F1.4867112151840545
sS'up-welling'
p184
F2.8200459510558664
sS'intereaction'
p185
F2.807041215437528
sS'layman'
p186
F2.807041215437528
sS'extraction'
p187
F1.747203127132911
sS'dissolve gas'
p188
F2.807041215437528
sS'squirt'
p189
F1.768752186413652
sS'fragmen'
p190
F1.768752186413652
sS'chamber.'
p191
F2.8200459510558664
sS'solubility'
p192
F1.768752186413652
sS'builup'
p193
F2.807041215437528
sS'passageway'
p194
F1.2601881834130106
sS'lav'
p195
F1.768752186413652
sS'exsolves'
p196
F2.807041215437528
sS'intermediate-composition'
p197
F2.807041215437528
sS'vestige'
p198
F2.807041215437528
sS'diapir'
p199
F1.768752186413652
sS'cryptodome'
p200
F3.494406254265822
sS'bubbliness'
p201
F1.747203127132911
sS'batch'
p202
F2.1347955017865625
sS'-so'
p203
F2.807041215437528
sS'chamber'
p204
F1.795610448207587
sS'sives'
p205
F2.807041215437528
sS'pressure-heavy'
p206
F2.807041215437528
sS'withdrawal'
p207
F1.747203127132911
sS'surface.'
p208
F1.747203127132911
ssS'debris'
p209
(dp210
S'tonne'
p211
F2.883093172864602
sS'atmosphere'
p212
F0.516816283606531
sS'shovel'
p213
F2.3753822288061874
sS'shot'
p214
F1.0069742847435215
sS'chunk'
p215
F0.4004479013632563
sS'thedirection'
p216
F6.562344847762323
sS'avalanche'
p217
F4.087620168271026
sS'disc'
p218
F6.562344847762323
sS'water.'
p219
F2.1428344026943464
sS'shooting'
p220
F4.535807549950187
sS'log'
p221
F1.785701031006776
sS'mobilization'
p222
F6.562344847762323
sS'pile'
p223
F0.632228571686093
sS'province'
p224
F1.939262502250165
sS'dam'
p225
F0.731633933648908
sS'slump'
p226
F1.646423379976177
sS'distinguish'
p227
F1.318656108985023
sS'calculate'
p228
F0.40839645445796197
sS'stabilize'
p229
F6.562344847762323
sS'/landslide'
p230
F6.562344847762323
sS'runway'
p231
F1.4213941526002918
sS'ejection'
p232
F2.753879156181539
sS'a.d'
p233
F0.5558694051649067
sS'stratosphere'
p234
F0.7293437164463278
sS'avalanche---and'
p235
F6.563596169130291
sS'initiate'
p236
F2.138679288579473
sS'flows--mobile'
p237
F6.563596169130291
sS'velocity'
p238
F0.596746038847847
sS'six-mile'
p239
F6.563596169130291
sS'whirlwind'
p240
F6.562344847762323
ssS'fountain'
p241
(dp242
S'vent'
p243
F-1.189416870467784
sS'stream'
p244
F-0.13911355019437893
sS'dance'
p245
F3.3807086908325075
sS'photo'
p246
F-0.05273228397530497
sS'``fire'
p247
F10.239266000885952
sS'vary'
p248
F2.237817658900161
sS'fissure;'
p249
F10.23960304933674
sS'magma'
p250
F-2.991286262091851
sS'close'
p251
F-0.7030920464510966
sS'ground'
p252
F-1.0906054725995233
sS'fissure'
p253
F-0.5904419580887811
sS'water'
p254
F-2.192114765012409
sS'lava'
p255
F-4.697207306071872
sS'curtain'
p256
F2.0254877530263133
sS'product'
p257
F0.8663921342444326
sS'hose'
p258
F4.973830181581271
sS'dome'
p259
F-1.0599652632597953
sS'fire-orange'
p260
F10.23960304933674
sS'cinder'
p261
F0.5642781510574604
sS'phase'
p262
F1.2791041799203027
sS'ash'
p263
F-2.740983055645325
sS'clot'
p264
F2.9612988149867583
sS'pillar'
p265
F2.398841113159742
sS'm'
p266
F-0.43137587078019346
sS'spurt'
p267
F2.648516891078139
ssS'cone'
p268
(dp269
S'birth'
p270
F1.1502360405941905
sS'family'
p271
F-0.46392842557210495
sS'3600-meter'
p272
F5.840965384722124
sS'rest'
p273
F-0.3018181346187236
sS'extrude'
p274
F-0.26694180457113115
sS'cinder-and-spatter'
p275
F5.840965384722124
sS'row'
p276
F1.0583036525586587
sS'stratovolcano'
p277
F1.6370221330736077
sS'pause'
p278
F0.982928310804636
sS'kinds--cinder'
p279
F5.840965384722124
sS'volcano-rise'
p280
F5.842718177279538
sS'tuff'
p281
F-0.4412533554518125
sS'hornitos'
p282
F3.1811004627428483
sS'urg\\fcp'
p283
F4.01085033684946
sS'scoria'
p284
F2.7335154429062376
sS'background'
p285
F0.5987435105295549
sS'smoking'
p286
F0.24270449256254772
sS'shadow'
p287
F-0.4598482107143878
sS'scoria-and-spatter'
p288
F5.840965384722124
sS'driblet'
p289
F5.840965384722124
sS'question'
p290
F-0.567812938757746
sS'scarp'
p291
F1.3667577214531188
sS'didn'
p292
F-0.44569253937021047
sS'gelatine'
p293
F2.3102605421211644
sS'tear'
p294
F-0.16640979406576
sS'skyline'
p295
F1.6536824291483887
sS'spatter'
p296
F0.17476797861875762
sS'landform'
p297
F0.5890704171145598
sS'cinder'
p298
F0.23521902661187666
sS'side'
p299
F0.4778280928309156
ssS'vesicle'
p300
(dp301
S'sample'
p302
F2.8231376096908636
sS'wall'
p303
F1.7710329994791327
sS'water'
p304
F0.09761482405321298
sS'expansion'
p305
F5.25761151700211
sS'air'
p306
F1.225285932910271
sS'gas-bubble'
p307
F27.17077945600326
sS'line'
p308
F2.754833102398054
sS'bubble'
p309
F4.727970386462665
sS'pahoehoe'
p310
F2.32093759427487
ssS'tephra'
p311
(dp312
S'airfall'
p313
F12.499489750683738
sS'layer'
p314
F0.8372146733953025
sS'bomb'
p315
F0.2717844014467721
sS'classification'
p316
F2.1356112835258174
sS'generation'
p317
F1.5817180229934442
sS'chunk'
p318
F1.3060578404052903
sS'ejecta'
p319
F2.1372148884745914
sS'sample'
p320
F0.31161850582462697
sS'measurement'
p321
F0.14920598921337958
sS'scoria-cone'
p322
F7.023087508204905
sS'stratovolcanoes'
p323
F0.8224864573022851
sS'thing'
p324
F-0.02818707834508413
sS'stratum'
p325
F2.7252014691499413
sS'disrupt'
p326
F2.726598607465942
sS'southwest'
p327
F0.711686114102712
sS'trace'
p328
F1.4807540703837145
sS'basalt'
p329
F0.4296380363519329
sS'quiescence--lava'
p330
F10.030521985680418
sS'volume'
p331
F0.4487663021699611
sS'hyaloclastite'
p332
F6.094193446066321
sS'fallout'
p333
F2.5819896730857703
sS'kind'
p334
F0.4725749011320496
sS'silicate'
p335
F3.3008049031664046
sS'pumice'
p336
F-0.06548000722886665
sS'dispersal'
p337
F4.8664533076824945
sS'greek'
p338
F1.3079075326214675
sS'deposit'
p339
F0.0015129351925036395
sS'consistency'
p340
F3.567353068701892
sS'cinder'
p341
F0.5221618704396163
sS'accumulation'
p342
F1.229510758512431
ssS'cinder'
p343
(dp344
S'vent'
p345
F-1.0983827446227807
sS'bomb'
p346
F0.7962718106899297
sS'photo'
p347
F0.41528826191497314
sS'cone'
p348
F0.23521902661187666
sS'ash'
p349
F-1.4813977152065694
sS'tephra'
p350
F0.5221618704396163
sS'ice'
p351
F-0.2986567904110379
sS'note'
p352
F0.7296848677510662
sS'track'
p353
F1.323732682173633
sS'fountain'
p354
F0.5642781510574604
sS'split'
p355
F3.338276528597807
sS'type'
p356
F-0.34373865497922396
sS'pyroclasts'
p357
F2.5711271738751384
sS'scoria'
p358
F1.5742578879120674
sS'bit'
p359
F1.7872806348362968
sS'blast'
p360
F-0.35069778411816094
sS'plain'
p361
F1.0867276932384125
sS'km'
p362
F0.03366125070330049
sg296
F9.242254110430023
sS'deposit'
p363
F-0.18643906681619216
sS'lapillus'
p364
F3.6943062047701574
sS'mound'
p365
F2.2221382372704093
sS'accumulation'
p366
F4.173067474339335
sS'block'
p367
F0.09113405825988691
ssS'crater'
p368
(dp369
S'bathe'
p370
F0.9661324459613406
sS'vodka'
p371
F3.641153225606696
sS'reflector'
p372
F0.9455750558435358
sS'savour'
p373
F2.398183221546457
sS'testing'
p374
F1.8101821173293524
sS'500ft'
p375
F2.398183221546457
sS'rim'
p376
F2.6626728341189705
sS'statistic'
p377
F1.8101821173293524
sS'pit'
p378
F2.524750880410578
sS'out-of-this-world'
p379
F3.647734357178145
sS'impact'
p380
F1.530695172464036
sS'itself.stand'
p381
F3.647734357178145
sS'goal'
p382
F0.7752735590397415
sS'floor'
p383
F1.3722019374804328
sS'3,280ft'
p384
F3.641153225606696
sS'absence'
p385
F1.1543351057975066
sS'lip'
p386
F1.809112965270846
sS'belly'
p387
F0.9455750558435358
sS'climbingdown'
p388
F3.641153225606696
sS'brace'
p389
F0.9455750558435358
sS'cord'
p390
F1.79623050426507
sS'foreground'
p391
F0.8366531412685572
sS'horseshoe-shape'
p392
F3.641153225606696
sS'draine'
p393
F3.647734357178145
sS'clamber'
p394
F0.6315119999303948
sS'hundred-year'
p395
F3.647734357178145
sS'floor;'
p396
F3.647734357178145
sS'disruption'
p397
F0.6315119999303948
sS'runoff'
p398
F0.9455750558435358
sS'inspection'
p399
F0.9455750558435358
ssS'volcan'
p400
(dp401
S':-'
p402
F16.034065740594407
sS'shield'
p403
F0.5246092407051447
sS'vent'
p404
F-0.604785861322251
sg290
F1.5338656982456567
sS'o'
p405
F0.8697285590713594
sS'acitve'
p406
F16.033978566273824
sS'night'
p407
F0.43620305987838437
ss.