(dp0
S'basalte'
p1
(dp2
S'd\xc3\xa9filer'
p3
F3.121008095300234
sS'isotopique'
p4
F2.906476120643966
sS'alcalin'
p5
F8.940685616997358
sS'amygdalo\xc3\xafdale'
p6
F9.552376797218347
sS'mince'
p7
F1.1546501873916364
sS'\xc3\xa9pancher'
p8
F0.7919932806540472
sS'picritique'
p9
F9.552790950561146
sS'publier'
p10
F0.9268372366169204
sS'fondu'
p11
F2.1930087674479783
sS'auvergnat'
p12
F0.7672593468538046
sS'recristalliser'
p13
F6.681604868589469
sS'commun'
p14
F1.016271951643776
sS'aphyrique'
p15
F9.552790950561146
sS'appel\xc3\xa9'
p16
F1.5141834246847239
sS'consid\xc3\xa9rable'
p17
F0.8960566089921622
sS'p\xc3\xa2teux'
p18
F0.8414071664094582
sS'cube'
p19
F0.8038773559633151
sS'thol\xc3\xa9iitiques'
p20
F6.681604868589469
sS'subverticaux'
p21
F9.552376797218347
sS'injecter'
p22
F1.3195105036038925
sS'corder'
p23
F2.302825146543003
sS'mou'
p24
F3.6884460266528825
sS'imbattable'
p25
F9.552790950561146
sS'noter'
p26
F1.232470594943112
sS'allonger'
p27
F2.725957500183003
sS'empiler'
p28
F2.4285899434374136
sS'g\xc3\xa9ochimique'
p29
F5.214502938191179
sS'cuirasser'
p30
F6.680927473890907
sS'laver'
p31
F1.0850436005261381
sS'sombre'
p32
F3.990743785616504
ssS't\xc3\xa9phra'
p33
(dp34
sS'gaz'
p35
(dp36
sS'fontaine'
p37
(dp38
sS'lave'
p39
(dp40
sS'cendre'
p41
(dp42
sS'magma'
p43
(dp44
sS'scorie'
p45
(dp46
S'br\xc3\xbblant'
p47
F1.4424881525962296
sS'basaltique'
p48
F1.342708386590978
sS'coiffer'
p49
F3.48741756955149
sS'enserrer'
p50
F6.566786838577116
sS'incandescent'
p51
F1.2884065929230073
sS'rouge'
p52
F0.5289415238822168
sS'aller'
p53
F0.03684717624427498
sS'l\xc3\xa9ger'
p54
F1.7329005878221628
sS'noir'
p55
F1.3369672564536845
sS'devenir'
p56
F0.07050040227334686
sS'succ\xc3\xa9der'
p57
F1.6517167494668128
sS'd\xc3\xa9rouler'
p58
F2.7387988155247394
sS'parsemer'
p59
F2.811622821767735
sS'oc\xc3\xa9anique'
p60
F0.2581445008430608
sS'h\xc3\xa9risser'
p61
F6.566786838577116
sS'hui'
p62
F-0.2956142743672093
sS'former'
p63
F0.3528214338690671
sS'superficiel'
p64
F1.6517167494668128
sS'cro\xc3\xaetre'
p65
F3.3674679808690136
sS'souder'
p66
F3.256508500568065
sS'nombreux'
p67
F-0.008756022641145634
sS'saupoudrer'
p68
F4.537898397157223
sS'volcanique'
p69
F-1.5068209666374623
ssS'c\xc3\xb4ne'
p70
(dp71
S'b\xc3\xa2tir'
p72
F1.991237933445719
sS'surtseyenne'
p73
F5.201359837996538
sS'petit'
p74
F2.901910432645638
sS'\xc3\xa9lancer'
p75
F6.522285662874674
sS'superbe'
p76
F1.8419751135944893
sS'v\xc3\xa9roler'
p77
F7.4882069247602
sS'isol\xc3\xa9'
p78
F1.9945532360784686
sS'aplatir'
p79
F1.9945532360784686
sS'adventif'
p80
F15.233315793233492
sS'stup\xc3\xa9faire'
p81
F7.4882069247602
sS'constitutif'
p82
F2.1430735106993404
sS'terminal'
p83
F7.357781704340212
sS'escalader'
p84
F1.4549457701953163
sS'mixte'
p85
F3.7535101200455774
sS'composite'
p86
F3.5476352259750716
sS'enneiger'
p87
F3.114387010135792
sS'velouter'
p88
F7.489057484694915
sS'surbaisser'
p89
F10.591117136296743
sS'littoral'
p90
F2.322856990009559
sS'parfait'
p91
F12.381007588162872
sS'superposer'
p92
F1.5452423468144714
sS'r\xc3\xa9gulier'
p93
F4.742766666656052
sS'ponctuer'
p94
F1.8586588244345563
sS'inonder'
p95
F1.9945532360784686
sS'dru'
p96
F3.5455435137559412
sS'massacrer'
p97
F7.489057484694915
sS'surbaiss\xc3\xa9'
p98
F7.489057484694915
sS'couronner'
p99
F1.7449189029932595
sS'sym\xc3\xa9trique'
p100
F3.114387010135792
sS'\xc3\xa9parpiller'
p101
F2.7894291724899074
ssS'd\xc3\xb4me'
p102
(dp103
sS'\xc3\xa9ruption'
p104
(dp105
sS'd\xc3\xa9bris'
p106
(dp107
S'rocheux'
p108
F1.64239621480467
sS'br\xc3\xbblant'
p109
F1.1074316501694523
sS'\xc3\xa9jecter'
p110
F1.6088778564091242
sS'volcanique'
p111
F1.879072207906122
sS'chaud'
p112
F-0.849486861024031
sS'm\xc3\xa9langer'
p113
F2.2857966173446904
sS'soufrer'
p114
F3.8815613760793473
sS'retomber'
p115
F0.9473211883138681
sS'd\xc3\xa9blayer'
p116
F7.397489043021853
sS'fin'
p117
F-0.3519984077178347
sS'divers'
p118
F1.0509139486718992
sS'essentiel'
p119
F1.3754380658388867
sS'tomber'
p120
F0.7048229052378784
sS'\xc3\xa9voluer'
p121
F2.420224051841872
sS'min\xc3\xa9ral'
p122
F-0.12412874460219084
sS'combler'
p123
F2.493957753256507
sS'gros'
p124
F-0.013886165522464257
sS'former'
p125
F-0.7443818276164379
sS'organique'
p126
F3.1989411438884674
sS'd\xc3\xa9truire'
p127
F0.23313102436363253
sS'\xc3\xa9mettre'
p128
F-0.1499354329158706
sS'exclamer'
p129
F9.11440843388298
sS'issu'
p130
F0.9641203670061994
sS'pyroclastique'
p131
F9.730383847587666
sS'fondre'
p132
F1.0510696962970822
sS'emporter'
p133
F1.0509139486718992
sS'charger'
p134
F3.215792543216756
sS'\xc3\xa9pais'
p135
F1.473601799773665
sS'sombre'
p136
F1.6084350227603008
sS'd\xc3\xa9clencher'
p137
F1.2774985054641181
ssS'crat\xc3\xa8re'
p138
(dp139
S'larder'
p140
F3.645431494992931
sS'imprenable'
p141
F2.390534324760981
sS'hurlant'
p142
F1.8129382286835225
sS'mignon'
p143
F3.6519909639766563
sS'jumeau'
p144
F2.5637849241901347
sS'gr\xc3\xaal\xc3\xa9'
p145
F3.645431494992931
sS'b\xc3\xa9ant'
p146
F2.0392291824193
sS'rugissant'
p147
F1.8129382286835225
sS'principal'
p148
F1.974771010791612
sS'embo\xc3\xaeter'
p149
F4.496027019680976
sS'cribler'
p150
F3.645431494992931
sS'-magma'
p151
F3.645431494992931
sS'sacrer'
p152
F2.401376516617557
sS'adjacent'
p153
F1.8129382286835225
sS'sommital'
p154
F12.589809300582523
sS'sorti'
p155
F3.645431494992931
sS'engorger'
p156
F3.645431494992931
sg89
F2.390534324760981
sS'd\xc3\xa9pourvue'
p157
F2.390534324760981
sS'rougeoyer'
p158
F2.390534324760981
sS'assortir'
p159
F1.799035350568914
sS'verdoyant'
p160
F1.799035350568914
sS'affairer'
p161
F2.390534324760981
sS'\xc3\xa9gueul\xc3\xa9'
p162
F3.6519909639766563
sS'm\xc3\xa9t\xc3\xa9oritique'
p163
F1.8372315473422747
sS'ecoutant'
p164
F3.6519909639766563
sg99
F3.598070701137828
sS'stagner'
p165
F2.255440943010259
sS'intercepter'
p166
F1.442058306274581
sS'surnaturel'
p167
F2.390534324760981
ssS'volcan'
p168
(dp169
sS'v\xc3\xa9sicule'
p170
(dp171
s.