(lp0
(((S'VVP'
p1
S'rework'
p2
tp3
(S'NN'
p4
S'debris'
p5
tp6
tp7
F1.5834980915890617
tp8
a(((S'NN'
p9
S'debris'
p10
tp11
(S'VVZ'
p12
S'steepen'
p13
tp14
tp15
F1.2364942676040527
tp16
a(((S'NN'
p17
S'debris'
p18
tp19
(S'VVP'
p20
S'clown'
p21
tp22
tp23
F0.7819218699666635
tp24
a(((S'VVZ'
p25
S'flare'
p26
tp27
(S'NN'
p28
S'crater'
p29
tp30
tp31
F0.7752735590397415
tp32
a(((S'NN'
p33
S'cinder'
p34
tp35
(S'VVZ'
p36
S'refer'
p37
tp38
tp39
F0.41843835242074995
tp40
a(((S'NNS'
p41
S'cone'
p42
tp43
(S'VVZ'
p44
S'encircle'
p45
tp46
tp47
F0.39004800953531993
tp48
a(((S'VVZ'
p49
S'conquer'
p50
tp51
(S'NN'
p52
S'crater'
p53
tp54
tp55
F0.34678050237027447
tp56
a(((S'VVP'
p57
S'strengthen'
p58
tp59
(S'NN'
p60
S'cone'
p61
tp62
tp63
F0.24270449256254772
tp64
a(((S'NN'
p65
S'cinder'
p66
tp67
(S'VVZ'
p68
S'sit'
p69
tp70
tp71
F0.11712287337768498
tp72
a(((S'VVZ'
p73
S'nestle'
p74
tp75
(S'NN'
p76
S'crater'
p77
tp78
tp79
F0.052440258307944417
tp80
a(((S'NNS'
p81
S'cone'
p82
tp83
(S'VVP'
p84
S'comprise'
p85
tp86
tp87
F-0.15187511758557845
tp88
a(((S'VVZ'
p89
S'honor'
p90
tp91
(S'NN'
p92
S'crater'
p93
tp94
tp95
F-0.17480703622653337
tp96
a(((S'NN'
p97
S'crater'
p98
tp99
(S'VVP'
p100
S'bathe'
p101
tp102
tp103
F-0.3222842588872297
tp104
a(((S'VVZ'
p105
S'beat'
p106
tp107
(S'NN'
p108
S'crater'
p109
tp110
tp111
F-0.36196981478438717
tp112
a(((S'VVZ'
p113
S'examine'
p114
tp115
(S'NN'
p116
S'basalt'
p117
tp118
tp119
F-0.36686729334680024
tp120
a(((S'NN'
p121
S'cone'
p122
tp123
(S'VVZ'
p124
S'loom'
p125
tp126
tp127
F-0.44327937867535605
tp128
a(((S'NNS'
p129
S'cone'
p130
tp131
(S'VVP'
p132
S'represent'
p133
tp134
tp135
F-0.49254052143546817
tp136
a(((S'VVZ'
p137
S'roam'
p138
tp139
(S'NN'
p140
S'crater'
p141
tp142
tp143
F-0.52249894965333
tp144
a(((S'VVZ'
p145
S'yell'
p146
tp147
(S'NN'
p148
S'crater'
p149
tp150
tp151
F-0.52249894965333
tp152
a(((S'NNS'
p153
S'crater'
p154
tp155
(S'VVP'
p156
S'emanate'
p157
tp158
tp159
F-0.6181953483934498
tp160
a(((S'NN'
p161
S'basalt'
p162
tp163
(S'VVP'
p164
S'accumulate'
p165
tp166
tp167
F-0.6192605203889083
tp168
a(((S'VVP'
p169
S'solidify'
p170
tp171
(S'NNS'
p172
S'cinder'
p173
tp174
tp175
F-0.6312759771907689
tp176
a(((S'VVP'
p177
S'emanate'
p178
tp179
(S'NN'
p180
S'crater'
p181
tp182
tp183
F-0.6640309722695764
tp184
a(((S'NNS'
p185
S'crater'
p186
tp187
(S'VVZ'
p188
S'imply'
p189
tp190
tp191
F-0.742711404842045
tp192
a(((S'VVZ'
p193
S'reside'
p194
tp195
(S'NN'
p196
S'crater'
p197
tp198
tp199
F-0.7913080487341804
tp200
a(((S'NNS'
p201
S'cinder'
p202
tp203
(S'VVP'
p204
S'contain'
p205
tp206
tp207
F-0.8094022156888451
tp208
a(((S'NN'
p209
S'basalt'
p210
tp211
(S'VVZ'
p212
S'ooze'
p213
tp214
tp215
F-0.8335509921559832
tp216
a(((S'VVP'
p217
S'hover'
p218
tp219
(S'VVZ'
p220
S'crater'
p221
tp222
tp223
F-0.9074741016300975
tp224
a(((S'NN'
p225
S'basalt'
p226
tp227
(S'VVP'
p228
S'consist'
p229
tp230
tp231
F-0.9519084537103331
tp232
a(((S'VVZ'
p233
S'vary'
p234
tp235
(S'NN'
p236
S'basalt'
p237
tp238
tp239
F-0.9823115855987178
tp240
a(((S'NN'
p241
S'crater'
p242
tp243
(S'VVZ'
p244
S'exceed'
p245
tp246
tp247
F-0.9954785038389814
tp248
a(((S'NNS'
p249
S'basalt'
p250
tp251
(S'VVZ'
p252
S'enter'
p253
tp254
tp255
F-1.056341602657963
tp256
a(((S'NN'
p257
S'basalt'
p258
tp259
g254
tp260
F-1.056341602657963
tp261
a(((S'NNS'
p262
S'cinder'
p263
tp264
(S'VVZ'
p265
S'flood'
p266
tp267
tp268
F-1.0618652097689523
tp269
a(((S'VVZ'
p270
S'wear'
p271
tp272
(S'NN'
p273
S'cone'
p274
tp275
tp276
F-1.0636279454344721
tp277
a(((S'NN'
p278
S'cone'
p279
tp280
(S'VVZ'
p281
S'disappear'
p282
tp283
tp284
F-1.0824592857063204
tp285
a(((g164
g165
tp286
(S'NN'
p287
S'debris'
p288
tp289
tp290
F-1.093059064631976
tp291
a(((S'NN'
p292
S'cinder'
p293
tp294
(S'VVP'
p295
S'break'
p296
tp297
tp298
F-1.1375257917914854
tp299
a(((S'NN'
p300
S'debris'
p301
tp302
(S'VVZ'
p303
S'roll'
p304
tp305
tp306
F-1.1391560550296547
tp307
a(((S'NP'
p308
S'crater'
p309
tp310
(S'VVP'
p311
S'overlook'
p312
tp313
tp314
F-1.1501854105476967
tp315
a(((S'NNS'
p316
S'cone'
p317
tp318
(S'VVP'
p319
S'dot'
p320
tp321
tp322
F-1.1591170607398902
tp323
a(((S'NP'
p324
S'crater'
p325
tp326
(S'VVZ'
p327
S'occupy'
p328
tp329
tp330
F-1.2119983151748592
tp331
a(((S'NNS'
p332
S'basalt'
p333
tp334
(S'VVZ'
p335
S'describe'
p336
tp337
tp338
F-1.2181510263440432
tp339
a(((S'NN'
p340
S'cone'
p341
tp342
(S'VVZ'
p343
S'consist'
p344
tp345
tp346
F-1.2667616558982706
tp347
a(((g204
g205
tp348
(S'NNS'
p349
S'cinder'
p350
tp351
tp352
F-1.335482896357976
tp353
a(((S'NN'
p354
S'cinder'
p355
tp356
(S'VVZ'
p357
S'contain'
p358
tp359
tp360
F-1.3453538615847862
tp361
a(((S'NN'
p362
S'basalt'
p363
tp364
(S'VVP'
p365
S'tend'
p366
tp367
tp368
F-1.451472745089873
tp369
a(((S'VVP'
p370
S'display'
p371
tp372
(S'NN'
p373
S'cone'
p374
tp375
tp376
F-1.4889564253370775
tp377
a(((S'NN'
p378
S'basalt'
p379
tp380
(S'VVZ'
p381
S'hit'
p382
tp383
tp384
F-1.594982292633288
tp385
a(((S'VVZ'
p386
S'settle'
p387
tp388
(S'NN'
p389
S'cone'
p390
tp391
tp392
F-1.6100584725669855
tp393
a(((S'VVZ'
p394
S'coat'
p395
tp396
(S'NN'
p397
S'crater'
p398
tp399
tp400
F-1.611207039056881
tp401
a(((S'VVP'
p402
S'fall'
p403
tp404
g174
tp405
F-1.6654757470623938
tp406
a(((S'NN'
p407
S'cone'
p408
tp409
(S'VVP'
p410
S'exist'
p411
tp412
tp413
F-1.6707086266923878
tp414
a(((S'NN'
p415
S'cone'
p416
tp417
(S'VVZ'
p418
S'raise'
p419
tp420
tp421
F-1.7256229595798758
tp422
a(((S'NNS'
p423
S'cone'
p424
tp425
(S'VVP'
p426
S'reflect'
p427
tp428
tp429
F-1.7256229595798758
tp430
a(((S'VVZ'
p431
S'mix'
p432
tp433
(S'NN'
p434
S'debris'
p435
tp436
tp437
F-1.7418914415288071
tp438
a((g94
(S'VVZ'
p439
S'paint'
p440
tp441
tp442
F-1.742931440777758
tp443
a(((S'NN'
p444
S'crater'
p445
tp446
(S'VVZ'
p447
S'overflow'
p448
tp449
tp450
F-1.742931440777758
tp451
a(((S'VVZ'
p452
S'occupy'
p453
tp454
(S'NN'
p455
S'crater'
p456
tp457
tp458
F-1.750236236814903
tp459
a(((S'VVP'
p460
S'look'
p461
tp462
(S'NNS'
p463
S'cinder'
p464
tp465
tp466
F-1.7635974317122662
tp467
a(((S'VVP'
p468
S'throw'
p469
tp470
(S'NN'
p471
S'debris'
p472
tp473
tp474
F-1.8062696735162136
tp475
a(((S'VVZ'
p476
S'explain'
p477
tp478
(S'NN'
p479
S'basalt'
p480
tp481
tp482
F-1.8590329540572335
tp483
a(((S'VVP'
p484
S'originate'
p485
tp486
(S'NNS'
p487
S'crater'
p488
tp489
tp490
F-1.8801779460724057
tp491
a(((S'NN'
p492
S'basalt'
p493
tp494
(S'VVZ'
p495
S'spread'
p496
tp497
tp498
F-1.9717280014056653
tp499
a(((S'VVZ'
p500
S'remember'
p501
tp502
(S'NN'
p503
S'crater'
p504
tp505
tp506
F-2.0025268861732513
tp507
a(((S'VVP'
p508
S'compare'
p509
tp510
(S'NN'
p511
S'debris'
p512
tp513
tp514
F-2.0074407702111565
tp515
a(((S'VVZ'
p516
S'conclude'
p517
tp518
(S'NNS'
p519
S'crater'
p520
tp521
tp522
F-2.061219813444303
tp523
a(((S'NN'
p524
S'basalt'
p525
tp526
(S'VVZ'
p527
S'fill'
p528
tp529
tp530
F-2.071768211481903
tp531
a(((S'NN'
p532
S'cone'
p533
tp534
(S'VVZ'
p535
S'signal'
p536
tp537
tp538
F-2.096866309931239
tp539
a(((S'VVZ'
p540
S'flatten'
p541
tp542
(S'NN'
p543
S'crater'
p544
tp545
tp546
F-2.1742281621646606
tp547
a(((S'NN'
p548
S'crater'
p549
tp550
(S'VVZ'
p551
S'tunnel'
p552
tp553
tp554
F-2.196803835785844
tp555
a(((S'VVP'
p556
S'locate'
p557
tp558
(S'NN'
p559
S'debris'
p560
tp561
tp562
F-2.226839475396617
tp563
a(((S'NN'
p564
S'crater'
p565
tp566
(S'VVZ'
p567
S'prevent'
p568
tp569
tp570
F-2.247623224550918
tp571
a(((S'NN'
p572
S'cone'
p573
tp574
g70
tp575
F-2.2688267598472867
tp576
a(((S'NNS'
p577
S'crater'
p578
tp579
(S'VVP'
p580
S'dot'
p581
tp582
tp583
F-2.297398707609
tp584
a(((S'VVP'
p585
S'suggest'
p586
tp587
(S'NN'
p588
S'basalt'
p589
tp590
tp591
F-2.3392004080231454
tp592
a(((S'VVP'
p593
S'suggest'
p594
tp595
(S'NNS'
p596
S'basalt'
p597
tp598
tp599
F-2.3392004080231454
tp600
a(((S'NN'
p601
S'crater'
p602
tp603
(S'VVZ'
p604
S'refer'
p605
tp606
tp607
F-2.346190277842203
tp608
a(((S'NNS'
p609
S'crater'
p610
tp611
(S'VVP'
p612
S'interpret'
p613
tp614
tp615
F-2.3940525398735995
tp616
a(((S'VVZ'
p617
S'drop'
p618
tp619
(S'NN'
p620
S'cone'
p621
tp622
tp623
F-2.424753734516091
tp624
a(((S'NNS'
p625
S'cone'
p626
tp627
(S'VVZ'
p628
S'mean'
p629
tp630
tp631
F-2.5528511613228875
tp632
a(((S'VVP'
p633
S'want'
p634
tp635
(S'NN'
p636
S'debris'
p637
tp638
tp639
F-2.6585536206723717
tp640
a(((S'NNS'
p641
S'basalt'
p642
tp643
(S'VVP'
p644
S'cover'
p645
tp646
tp647
F-2.6684278498427676
tp648
a(((S'NN'
p649
S'basalt'
p650
tp651
(S'VVZ'
p652
S'cover'
p653
tp654
tp655
F-2.6684278498427676
tp656
a(((S'VVP'
p657
S'roll'
p658
tp659
(S'NN'
p660
S'crater'
p661
tp662
tp663
F-2.7173695962798132
tp664
a(((S'VVP'
p665
S'carry'
p666
tp667
(S'NN'
p668
S'debris'
p669
tp670
tp671
F-2.731350706988037
tp672
a(((S'NN'
p673
S'crater'
p674
tp675
(S'VVP'
p676
S'let'
p677
tp678
tp679
F-2.790026269170516
tp680
a(((S'VVZ'
p681
S'indicate'
p682
tp683
(S'NN'
p684
S'debris'
p685
tp686
tp687
F-2.830237205933334
tp688
a(((S'VVZ'
p689
S'create'
p690
tp691
(S'NN'
p692
S'basalt'
p693
tp694
tp695
F-2.8595610940560743
tp696
a(((S'VVP'
p697
S'hike'
p698
tp699
(S'NNS'
p700
S'crater'
p701
tp702
tp703
F-2.890724346586898
tp704
a(((S'NN'
p705
S'debris'
p706
tp707
(S'VVZ'
p708
S'avalanche'
p709
tp710
tp711
F-2.906346569446912
tp712
a(((S'NN'
p713
S'crater'
p714
tp715
(S'VVP'
p716
S'step'
p717
tp718
tp719
F-2.91063904971373
tp720
a(((S'VVZ'
p721
S'cool'
p722
tp723
(S'NN'
p724
S'basalt'
p725
tp726
tp727
F-2.9651751081775726
tp728
a(((S'VVP'
p729
S'hurl'
p730
tp731
(S'NN'
p732
S'crater'
p733
tp734
tp735
F-3.014416067545087
tp736
a(((S'NN'
p737
S'cone'
p738
tp739
(S'VVZ'
p740
S'slide'
p741
tp742
tp743
F-3.0416978677097863
tp744
a(((S'NN'
p745
S'basalt'
p746
tp747
(S'VVZ'
p748
S'reach'
p749
tp750
tp751
F-3.0613480354922133
tp752
a(((S'VVZ'
p753
S'extrude'
p754
tp755
(S'NN'
p756
S'crater'
p757
tp758
tp759
F-3.094210665511313
tp760
a(((S'VVP'
p761
S'generate'
p762
tp763
(S'NN'
p764
S'basalt'
p765
tp766
tp767
F-3.1005598082866204
tp768
a(((S'NN'
p769
S'cone'
p770
tp771
(S'VVZ'
p772
S'fill'
p773
tp774
tp775
F-3.1214333268387278
tp776
a(((S'NNS'
p777
S'cone'
p778
tp779
(S'VVP'
p780
S'develop'
p781
tp782
tp783
F-3.1838738770354906
tp784
a(((S'VVP'
p785
S'develop'
p786
tp787
(S'NN'
p788
S'cone'
p789
tp790
tp791
F-3.2120028363880384
tp792
a(((S'NN'
p793
S'basalt'
p794
tp795
(S'VVZ'
p796
S'remain'
p797
tp798
tp799
F-3.2374831115664238
tp800
a(((S'VVP'
p801
S'descend'
p802
tp803
(S'NN'
p804
S'crater'
p805
tp806
tp807
F-3.248073343586009
tp808
a(((S'VVZ'
p809
S'monitor'
p810
tp811
(S'NN'
p812
S'debris'
p813
tp814
tp815
F-3.32924729574788
tp816
a(((S'NN'
p817
S'debris'
p818
tp819
(S'VVZ'
p820
S'contain'
p821
tp822
tp823
F-3.3770616638935747
tp824
a(((S'VVP'
p825
S'send'
p826
tp827
(S'NN'
p828
S'debris'
p829
tp830
tp831
F-3.3996696214844473
tp832
a(((S'VVP'
p833
S'believe'
p834
tp835
(S'NN'
p836
S'debris'
p837
tp838
tp839
F-3.411268107802773
tp840
a(((S'NNS'
p841
S'crater'
p842
tp843
(S'VVP'
p844
S'expose'
p845
tp846
tp847
F-3.4198150063047428
tp848
a(((S'NN'
p849
S'cone'
p850
tp851
(S'VVP'
p852
S'suggest'
p853
tp854
tp855
F-3.4660594009535286
tp856
a(((S'NN'
p857
S'cone'
p858
tp859
(S'VVZ'
p860
S'lie'
p861
tp862
tp863
F-3.578635369832609
tp864
a(((S'NN'
p865
S'debris'
p866
tp867
(S'VVP'
p868
S'destroy'
p869
tp870
tp871
F-3.6501749428609838
tp872
a(((S'NN'
p873
S'debris'
p874
tp875
(S'VVZ'
p876
S'move'
p877
tp878
tp879
F-3.6501749428609838
tp880
a(((S'NNS'
p881
S'cone'
p882
tp883
(S'VVZ'
p884
S'appear'
p885
tp886
tp887
F-3.7014574236107105
tp888
a(((S'NN'
p889
S'cone'
p890
tp891
(S'VVZ'
p892
S'turn'
p893
tp894
tp895
F-3.7014574236107105
tp896
a(((S'NN'
p897
S'cone'
p898
tp899
(S'VVZ'
p900
S'appear'
p901
tp902
tp903
F-3.7014574236107105
tp904
a(((S'NNS'
p905
S'cone'
p906
tp907
(S'VVP'
p908
S'appear'
p909
tp910
tp911
F-3.7014574236107105
tp912
a(((S'VVP'
p913
S'emerge'
p914
tp915
(S'NN'
p916
S'crater'
p917
tp918
tp919
F-3.7379772900623203
tp920
a(((S'NNS'
p921
S'basalt'
p922
tp923
(S'VVP'
p924
S'make'
p925
tp926
tp927
F-3.8207743509806753
tp928
a(((S'NN'
p929
S'cone'
p930
tp931
(S'VVZ'
p932
S'measure'
p933
tp934
tp935
F-3.859546544104267
tp936
a(((S'NN'
p937
S'debris'
p938
tp939
(S'VVP'
p940
S'fall'
p941
tp942
tp943
F-3.936533062351928
tp944
a(((S'VVZ'
p945
S'drift'
p946
tp947
(S'NN'
p948
S'crater'
p949
tp950
tp951
F-3.9606067748967817
tp952
a(((S'NN'
p953
S'debris'
p954
tp955
(S'VVP'
p956
S'generate'
p957
tp958
tp959
F-3.9671806553812177
tp960
a(((S'VVP'
p961
S'produce'
p962
tp963
(S'NN'
p964
S'basalt'
p965
tp966
tp967
F-4.063865687888028
tp968
a(((S'NNS'
p969
S'cone'
p970
tp971
(S'VVP'
p972
S'create'
p973
tp974
tp975
F-4.158954391333143
tp976
a(((S'VVP'
p977
S'build'
p978
tp979
(S'NN'
p980
S'cone'
p981
tp982
tp983
F-4.164646024386765
tp984
a(((S'VVP'
p985
S'enter'
p986
tp987
(S'NN'
p988
S'crater'
p989
tp990
tp991
F-4.229856810087548
tp992
a(((S'VVP'
p993
S'enter'
p994
tp995
(S'NNS'
p996
S'crater'
p997
tp998
tp999
F-4.229856810087548
tp1000
a(((S'VVZ'
p1001
S'note'
p1002
tp1003
(S'NN'
p1004
S'crater'
p1005
tp1006
tp1007
F-4.2874175873838105
tp1008
a((g891
(S'VVZ'
p1009
S'cool'
p1010
tp1011
tp1012
F-4.301420278095976
tp1013
a(((S'VVZ'
p1014
S'climb'
p1015
tp1016
(S'NNS'
p1017
S'crater'
p1018
tp1019
tp1020
F-4.315912788087635
tp1021
a(((S'NN'
p1022
S'crater'
p1023
tp1024
(S'VVZ'
p1025
S'sit'
p1026
tp1027
tp1028
F-4.31930006330954
tp1029
a(((S'NN'
p1030
S'crater'
p1031
tp1032
(S'VVP'
p1033
S'sit'
p1034
tp1035
tp1036
F-4.31930006330954
tp1037
a(((S'VVP'
p1038
S'include'
p1039
tp1040
(S'NN'
p1041
S'debris'
p1042
tp1043
tp1044
F-4.331320767561537
tp1045
a(((S'VVZ'
p1046
S'hold'
p1047
tp1048
(S'NP'
p1049
S'crater'
p1050
tp1051
tp1052
F-4.344222776577725
tp1053
a(((S'VVZ'
p1054
S'begin'
p1055
tp1056
(S'NN'
p1057
S'basalt'
p1058
tp1059
tp1060
F-4.3461762939346595
tp1061
a(((S'NN'
p1062
S'crater'
p1063
tp1064
(S'VVZ'
p1065
S'feel'
p1066
tp1067
tp1068
F-4.346191661568911
tp1069
a(((S'NNS'
p1070
S'crater'
p1071
tp1072
(S'VVZ'
p1073
S'describe'
p1074
tp1075
tp1076
F-4.346191661568911
tp1077
a(((S'VVP'
p1078
S'plan'
p1079
tp1080
(S'NN'
p1081
S'crater'
p1082
tp1083
tp1084
F-4.400301162048124
tp1085
a(((S'NN'
p1086
S'cone'
p1087
tp1088
(S'VVZ'
p1089
S'continue'
p1090
tp1091
tp1092
F-4.428306228722635
tp1093
a(((S'VVZ'
p1094
S'continue'
p1095
tp1096
(S'NN'
p1097
S'cone'
p1098
tp1099
tp1100
F-4.444176479554141
tp1101
a(((S'NNS'
p1102
S'cone'
p1103
tp1104
(S'VVP'
p1105
S'generate'
p1106
tp1107
tp1108
F-4.484892980892314
tp1109
a(((S'VVZ'
p1110
S'explode'
p1111
tp1112
(S'NN'
p1113
S'crater'
p1114
tp1115
tp1116
F-4.6178633460806555
tp1117
a(((S'NNS'
p1118
S'cone'
p1119
tp1120
(S'VVP'
p1121
S'remain'
p1122
tp1123
tp1124
F-4.65087459918839
tp1125
a(((S'NN'
p1126
S'cone'
p1127
tp1128
(S'VVZ'
p1129
S'remain'
p1130
tp1131
tp1132
F-4.65087459918839
tp1133
a(((S'VVZ'
p1134
S'look'
p1135
tp1136
(S'NN'
p1137
S'cone'
p1138
tp1139
tp1140
F-4.651985619228078
tp1141
a(((S'VVZ'
p1142
S'show'
p1143
tp1144
(S'NN'
p1145
S'debris'
p1146
tp1147
tp1148
F-4.674619377380583
tp1149
a(((S'NN'
p1150
S'crater'
p1151
tp1152
(S'VVZ'
p1153
S'fill'
p1154
tp1155
tp1156
F-4.684073254551044
tp1157
a(((S'VVZ'
p1158
S'show'
p1159
tp1160
(S'NN'
p1161
S'cone'
p1162
tp1163
tp1164
F-4.726800333730484
tp1165
a(((S'VVZ'
p1166
S'clear'
p1167
tp1168
(S'NN'
p1169
S'crater'
p1170
tp1171
tp1172
F-4.748816900949796
tp1173
a(((S'NN'
p1174
S'cone'
p1175
tp1176
(S'VVZ'
p1177
S'do'
p1178
tp1179
tp1180
F-4.769247957687151
tp1181
a(((S'VVZ'
p1182
S'go'
p1183
tp1184
(S'NN'
p1185
S'cone'
p1186
tp1187
tp1188
F-4.77861073532548
tp1189
a(((g1177
g1178
tp1190
g891
tp1191
F-4.77861073532548
tp1192
a(((S'VVZ'
p1193
S'cascade'
p1194
tp1195
(S'NNS'
p1196
S'crater'
p1197
tp1198
tp1199
F-4.800204680377898
tp1200
a(((S'VVP'
p1201
S'cascade'
p1202
tp1203
(S'NN'
p1204
S'crater'
p1205
tp1206
tp1207
F-4.800204680377898
tp1208
a(((S'NN'
p1209
S'cone'
p1210
tp1211
(S'VVZ'
p1212
S'collapse'
p1213
tp1214
tp1215
F-4.822182522105196
tp1216
a(((S'VVP'
p1217
S'occur'
p1218
tp1219
(S'NN'
p1220
S'debris'
p1221
tp1222
tp1223
F-4.882084798210975
tp1224
a(((S'VVZ'
p1225
S'show'
p1226
tp1227
(S'NP'
p1228
S'cone'
p1229
tp1230
tp1231
F-4.912264684368659
tp1232
a(((S'VVZ'
p1233
S'build'
p1234
tp1235
(S'NNS'
p1236
S'cone'
p1237
tp1238
tp1239
F-4.952490045714831
tp1240
a(((S'VVP'
p1241
S'build'
p1242
tp1243
(S'NNS'
p1244
S'cone'
p1245
tp1246
tp1247
F-4.952490045714831
tp1248
a(((S'VVZ'
p1249
S'build'
p1250
tp1251
(S'NN'
p1252
S'cone'
p1253
tp1254
tp1255
F-4.952490045714831
tp1256
a(((S'VVP'
p1257
S'live'
p1258
tp1259
(S'NNS'
p1260
S'cone'
p1261
tp1262
tp1263
F-4.992527666239677
tp1264
a(((S'NN'
p1265
S'crater'
p1266
tp1267
(S'VVP'
p1268
S'rim'
p1269
tp1270
tp1271
F-4.996741394088737
tp1272
a(((S'NN'
p1273
S'cone'
p1274
tp1275
(g1158
g1159
tp1276
tp1277
F-5.101256653992501
tp1278
a(((S'NN'
p1279
S'debris'
p1280
tp1281
(S'VVZ'
p1282
S'come'
p1283
tp1284
tp1285
F-5.102498200253977
tp1286
a(((S'VVP'
p1287
S'need'
p1288
tp1289
(S'NN'
p1290
S'crater'
p1291
tp1292
tp1293
F-5.169445723283552
tp1294
a(((S'NNS'
p1295
S'crater'
p1296
tp1297
(S'VVZ'
p1298
S'indicate'
p1299
tp1300
tp1301
F-5.203808079381648
tp1302
a(((S'VVP'
p1303
S'edge'
p1304
tp1305
(S'NN'
p1306
S'crater'
p1307
tp1308
tp1309
F-5.240188383169727
tp1310
a(((S'VVP'
p1311
S'make'
p1312
tp1313
g627
tp1314
F-5.422711984640639
tp1315
a(((S'NNS'
p1316
S'crater'
p1317
tp1318
(g585
g586
tp1319
tp1320
F-5.5749811130517335
tp1321
a(((S'NP'
p1322
S'crater'
p1323
tp1324
(S'VVZ'
p1325
S'suggest'
p1326
tp1327
tp1328
F-5.5749811130517335
tp1329
a(((S'NN'
p1330
S'cone'
p1331
tp1332
(S'VVZ'
p1333
S'rise'
p1334
tp1335
tp1336
F-5.637216591052036
tp1337
a(((S'VVZ'
p1338
S'produce'
p1339
tp1340
g1332
tp1341
F-5.795586398376542
tp1342
a(((S'VVP'
p1343
S'know'
p1344
tp1345
(S'NN'
p1346
S'cone'
p1347
tp1348
tp1349
F-5.897807253246938
tp1350
a(((S'VVZ'
p1351
S'lie'
p1352
tp1353
(S'NNS'
p1354
S'crater'
p1355
tp1356
tp1357
F-5.901328295056262
tp1358
a(((S'VVZ'
p1359
S'lie'
p1360
tp1361
(S'NN'
p1362
S'crater'
p1363
tp1364
tp1365
F-5.901328295056262
tp1366
a(((S'VVZ'
p1367
S'form'
p1368
tp1369
(S'NN'
p1370
S'basalt'
p1371
tp1372
tp1373
F-6.01693545620781
tp1374
a(((S'VVZ'
p1375
S'begin'
p1376
tp1377
(S'NN'
p1378
S'cone'
p1379
tp1380
tp1381
F-6.018261994721951
tp1382
a(((S'NNS'
p1383
S'crater'
p1384
tp1385
(S'VVP'
p1386
S'contain'
p1387
tp1388
tp1389
F-6.12076774611564
tp1390
a(((S'NN'
p1391
S'crater'
p1392
tp1393
(S'VVZ'
p1394
S'contain'
p1395
tp1396
tp1397
F-6.12076774611564
tp1398
a(((S'NN'
p1399
S'crater'
p1400
tp1401
g934
tp1402
F-6.159387058793764
tp1403
a(((S'NN'
p1404
S'basalt'
p1405
tp1406
(S'VVZ'
p1407
S'form'
p1408
tp1409
tp1410
F-6.202478526308599
tp1411
a(((S'NNS'
p1412
S'cone'
p1413
tp1414
(S'VVP'
p1415
S'begin'
p1416
tp1417
tp1418
F-6.2150652755000975
tp1419
a(((S'VVP'
p1420
S'contain'
p1421
tp1422
(S'NN'
p1423
S'crater'
p1424
tp1425
tp1426
F-6.284282565876331
tp1427
a(((S'NN'
p1428
S'crater'
p1429
tp1430
(S'VVP'
p1431
S'report'
p1432
tp1433
tp1434
F-6.386517803955088
tp1435
a(((S'NN'
p1436
S'crater'
p1437
tp1438
(S'VVP'
p1439
S'provide'
p1440
tp1441
tp1442
F-6.55204793535448
tp1443
a(((S'NP'
p1444
S'crater'
p1445
tp1446
(S'VVZ'
p1447
S'give'
p1448
tp1449
tp1450
F-6.570201049839772
tp1451
a(((S'NN'
p1452
S'crater'
p1453
tp1454
(S'VVP'
p1455
S'think'
p1456
tp1457
tp1458
F-6.837137925731623
tp1459
a(((S'NN'
p1460
S'crater'
p1461
tp1462
(S'VVP'
p1463
S'reach'
p1464
tp1465
tp1466
F-6.992781451395354
tp1467
a(((S'VVP'
p1468
S'reach'
p1469
tp1470
(S'NN'
p1471
S'crater'
p1472
tp1473
tp1474
F-7.161277035175397
tp1475
a(((S'VVZ'
p1476
S'reach'
p1477
tp1478
(S'NN'
p1479
S'crater'
p1480
tp1481
tp1482
F-7.161277035175397
tp1483
a(((S'VVZ'
p1484
S'fall'
p1485
tp1486
(S'NNS'
p1487
S'crater'
p1488
tp1489
tp1490
F-7.2125551320725005
tp1491
a(((S'VVZ'
p1492
S'fall'
p1493
tp1494
(S'NN'
p1495
S'crater'
p1496
tp1497
tp1498
F-7.2125551320725005
tp1499
a(((S'NN'
p1500
S'crater'
p1501
tp1502
(S'VVZ'
p1503
S'look'
p1504
tp1505
tp1506
F-7.327779277335907
tp1507
a(((S'VVP'
p1508
S'crater'
p1509
tp1510
(S'VVZ'
p1511
S'look'
p1512
tp1513
tp1514
F-7.327779277335907
tp1515
a(((S'NN'
p1516
S'crater'
p1517
tp1518
(S'VVZ'
p1519
S'do'
p1520
tp1521
tp1522
F-7.389983493376142
tp1523
a(((S'VVP'
p1524
S'look'
p1525
tp1526
(S'NN'
p1527
S'crater'
p1528
tp1529
tp1530
F-7.496517291436562
tp1531
a(((S'VVZ'
p1532
S'remain'
p1533
tp1534
(S'NN'
p1535
S'crater'
p1536
tp1537
tp1538
F-7.5128871358798595
tp1539
a(((S'NN'
p1540
S'crater'
p1541
tp1542
(S'VVZ'
p1543
S'take'
p1544
tp1545
tp1546
F-7.554201087812678
tp1547
a(((g1519
g1520
tp1548
(S'NN'
p1549
S'crater'
p1550
tp1551
tp1552
F-7.690658740313132
tp1553
a(((S'NNS'
p1554
S'crater'
p1555
tp1556
(S'VVP'
p1557
S'include'
p1558
tp1559
tp1560
F-7.712237136605915
tp1561
a(((S'VVZ'
p1562
S'include'
p1563
tp1564
(S'NNS'
p1565
S'crater'
p1566
tp1567
tp1568
F-7.880023714012196
tp1569
a(((S'VVZ'
p1570
S'build'
p1571
tp1572
(S'NN'
p1573
S'crater'
p1574
tp1575
tp1576
F-7.957597268176915
tp1577
a(((S'VVP'
p1578
S'build'
p1579
tp1580
(g1399
g1400
tp1581
tp1582
F-7.957597268176915
tp1583
a(((S'VVP'
p1584
S'say'
p1585
tp1586
(S'NN'
p1587
S'basalt'
p1588
tp1589
tp1590
F-8.212718040319054
tp1591
a(((S'VVZ'
p1592
S'erupt'
p1593
tp1594
g1238
tp1595
F-8.219981809334394
tp1596
a((g1227
(S'NP'
p1597
S'crater'
p1598
tp1599
tp1600
F-8.225192148286828
tp1601
a(((g1225
g1226
tp1602
(S'NN'
p1603
S'crater'
p1604
tp1605
tp1606
F-8.225192148286828
tp1607
a(((S'NP'
p1608
S'crater'
p1609
tp1610
(S'VVZ'
p1611
S'show'
p1612
tp1613
tp1614
F-8.30266089848642
tp1615
a(((S'NN'
p1616
S'basalt'
p1617
tp1618
(S'VVZ'
p1619
S'flow'
p1620
tp1621
tp1622
F-8.32956898405191
tp1623
a(((S'VVP'
p1624
S'form'
p1625
tp1626
(S'NN'
p1627
S'cone'
p1628
tp1629
tp1630
F-8.340759005804232
tp1631
a(((S'VVP'
p1632
S'form'
p1633
tp1634
g971
tp1635
F-8.340759005804232
tp1636
a(((S'VVZ'
p1637
S'dome'
p1638
tp1639
(S'NNS'
p1640
S'crater'
p1641
tp1642
tp1643
F-8.364082400976597
tp1644
a(((S'VVZ'
p1645
S'form'
p1646
tp1647
(S'NN'
p1648
S'cone'
p1649
tp1650
tp1651
F-8.459006756874546
tp1652
a(((S'VVZ'
p1653
S'make'
p1654
tp1655
(S'NN'
p1656
S'crater'
p1657
tp1658
tp1659
F-8.681242487119
tp1660
a(((S'VVP'
p1661
S'make'
p1662
tp1663
(S'NN'
p1664
S'crater'
p1665
tp1666
tp1667
F-8.681242487119
tp1668
a(((S'NNS'
p1669
S'crater'
p1670
tp1671
(S'VVP'
p1672
S'leave'
p1673
tp1674
tp1675
F-8.76058814238171
tp1676
a((g1115
(S'VVZ'
p1677
S'rise'
p1678
tp1679
tp1680
F-9.090718537837729
tp1681
a(((S'VVZ'
p1682
S'rise'
p1683
tp1684
(S'NN'
p1685
S'crater'
p1686
tp1687
tp1688
F-9.243338803868362
tp1689
a(((S'NP'
p1690
S'crater'
p1691
tp1692
(S'VVZ'
p1693
S'come'
p1694
tp1695
tp1696
F-9.305148966762191
tp1697
a(((S'VVZ'
p1698
S'flow'
p1699
tp1700
(S'NN'
p1701
S'debris'
p1702
tp1703
tp1704
F-9.802830709759299
tp1705
a((g638
(S'VVZ'
p1706
S'flow'
p1707
tp1708
tp1709
F-10.231334001514375
tp1710
a(((S'VVZ'
p1711
S'say'
p1712
tp1713
(S'NN'
p1714
S'cone'
p1715
tp1716
tp1717
F-11.47866222916191
tp1718
a(((S'VVZ'
p1719
S'gas'
p1720
tp1721
(S'NNS'
p1722
S'crater'
p1723
tp1724
tp1725
F-12.914574282852927
tp1726
a((g521
(S'VVP'
p1727
S'form'
p1728
tp1729
tp1730
F-13.200971231121313
tp1731
a(((S'VVZ'
p1732
S's'
p1733
tp1734
(S'NN'
p1735
S'debris'
p1736
tp1737
tp1738
F-15.114088831819695
tp1739
a(((S'VVZ'
p1740
S'flow'
p1741
tp1742
(S'NN'
p1743
S'crater'
p1744
tp1745
tp1746
F-17.362898710875186
tp1747
a(((S'NN'
p1748
S'crater'
p1749
tp1750
(S'VVZ'
p1751
S'flow'
p1752
tp1753
tp1754
F-17.884625082914827
tp1755
a(((S'VVP'
p1756
S'say'
p1757
tp1758
(S'NN'
p1759
S'crater'
p1760
tp1761
tp1762
F-18.104372751917996
tp1763
a(((S'NN'
p1764
S'crater'
p1765
tp1766
(S'VVZ'
p1767
S'say'
p1768
tp1769
tp1770
F-18.758816326099886
tp1771
a(((S'VVZ'
p1772
S's'
p1773
tp1774
(S'NN'
p1775
S'crater'
p1776
tp1777
tp1778
F-26.624615702199215
tp1779
a(((S'VVZ'
p1780
S's'
p1781
tp1782
(S'NNS'
p1783
S'crater'
p1784
tp1785
tp1786
F-26.663380799048973
tp1787
a(((S'NN'
p1788
S'crater'
p1789
tp1790
(S'VVZ'
p1791
S's'
p1792
tp1793
tp1794
F-30.220934426514084
tp1795
a.