(dp0
S'eruption'
p1
(dp2
S'clog'
p3
F-2.6782858939217977
sS'wane'
p4
F-1.8338302678590135
sS'foul'
p5
F-0.6760546226382638
sS'denote'
p6
F-1.41410907599824
sS'elude'
p7
F-0.6760546226382638
sS'typify'
p8
F-2.6782858939217977
sS'reckon'
p9
F-2.4293236646489698
sS'notify'
p10
F0.02942789907102604
sS'arise'
p11
F-2.657865820191561
sS'guess'
p12
F-2.9151434573494015
sS'squat'
p13
F-2.4196410785827838
sS'do.'
p14
F-0.13092394298514806
sS'interact'
p15
F-2.6782858939217977
sS'can.'
p16
F-1.8042505895586358
sS'intersect'
p17
F-2.4196410785827838
sS'fast-forwards'
p18
F0.02942789907102604
sS'presage'
p19
F-1.8042505895586358
sS'cite'
p20
F-1.8042505895586358
sS'originated'
p21
F-1.41410907599824
sS'specialise'
p22
F-1.41410907599824
sS'qualify'
p23
F-0.9122500231608112
sS'foretell'
p24
F-1.8042505895586358
sS'delineate'
p25
F-2.2243513133483934
sS'correlate'
p26
F-1.8042505895586358
sS'warrant'
p27
F-1.296181801372331
sS'invade'
p28
F-1.1210376987203663
sS'herald'
p29
F-2.6782858939217977
sS'repel'
p30
F0.02942789907102604
sS'gush'
p31
F-2.4756755088455686
sS'aliv'
p32
F-0.9122500231608112
ssS'scoria'
p33
(dp34
S'erupt'
p35
F-2.7509926761049375
sS'appear'
p36
F-0.1122643622830339
sS'form'
p37
F-2.2134491081849186
sS'refer'
p38
F2.3833962735820498
ssS'gas'
p39
(dp40
S'clog'
p41
F-0.49015906630144135
sS'consume'
p42
F-1.1620176449185269
sS'propel'
p43
F-1.5560415268136174
sg4
F-0.867433952751121
sS'overwhelm'
p44
F-0.06162659364934101
sS'float'
p45
F-1.9387053865055344
sS'brave'
p46
F-1.3099871127052212
sS'diminish'
p47
F-0.1106019751076409
sS'leak'
p48
F-1.070249170362358
sS'bite'
p49
F0.07448506294593847
sS'seep'
p50
F-1.6252423580941835
sS'inject'
p51
F-1.8952293215417864
sS'behave'
p52
F-2.07697448475333
sS'dissipate'
p53
F0.3642003191580489
sS'swirl'
p54
F-1.409195209899216
sS'smell'
p55
F-2.1066135052853654
sS'fizz'
p56
F0.07448506294593847
sS'originated'
p57
F0.3359176922292423
sS'suppress'
p58
F2.2327591566931146
sS'emit'
p59
F-2.0016611183464468
sS'react'
p60
F-0.7948171695308008
sS'gets.'
p61
F1.5787991404540587
sS'put'
p62
F-1.692000432241557
sS'discharge'
p63
F-1.3099871127052212
sg22
F0.3359176922292423
sS'exsolve'
p64
F3.7227328148138463
sS'corrode'
p65
F0.3642003191580489
sS'argue'
p66
F-1.6252423580941835
sS'effuse'
p67
F3.670425085698912
sS'agree'
p68
F-1.9961000341436528
ssS'dome'
p69
(dp70
S'represent'
p71
F-1.521742972161822
sS'generate'
p72
F-4.32308994037561
sS'measure'
p73
F-3.9047639900196764
sS'seal'
p74
F-0.253217548507586
sS'blow'
p75
F-3.49310354258899
sS'differ'
p76
F0.5214256052278781
sS'squeeze'
p77
F-0.9143504839848876
sS'appear'
p78
F-3.7452191944716957
sS'suggest'
p79
F-3.535851138710055
sS'create'
p80
F-4.206962366653474
sS'cave'
p81
F-1.1325566464653372
sS'enlarge'
p82
F1.3577896429124916
sS'send'
p83
F-3.8917011737763993
sS'tend'
p84
F-2.0293603599081456
sS'sidle'
p85
F1.8029565612578402
sS'suspect'
p86
F-0.661595351285015
sS'shear'
p87
F-0.7492878015950732
sS'resume'
p88
F-0.6973125527501468
sS'intrude'
p89
F-0.4816232715581241
sS'lift'
p90
F-1.1280882697412054
sS'hold'
p91
F-2.2225215570186494
sS'grow'
p92
F-3.756809689444106
sS'sound'
p93
F-2.41725917369153
sS'loom'
p94
F-0.464503784693093
sS'consist'
p95
F-1.3254114177853797
sS'remain'
p96
F-4.716928147702417
sS'yield'
p97
F-0.3443047181255843
sS'switch'
p98
F0.10242889800541595
sS'continue'
p99
F-4.478857147724304
sS'push'
p100
F-2.0293603599081456
ssS'lava'
p101
(dp102
S'ignite'
p103
F-2.523655859251708
sS'thicken'
p104
F-1.9161657381777184
sS'grade'
p105
F-1.419041500354971
sS'emanate'
p106
F-2.349753051625947
sS'denote'
p107
F-1.0189729386827284
sS'twist'
p108
F-2.523655859251708
sS'hook'
p109
F-1.0189729386827284
sS'quench'
p110
F-1.6489237735142301
sS'shoe'
p111
F-2.1430082149803393
sS'portray'
p112
F-1.662467279741582
sg76
F-2.622956932270861
sS'lave'
p113
F-0.5576770362358064
sS'hypothesize'
p114
F-1.662467279741582
sS'whichattracts'
p115
F0.28988536017020183
sS'insulate'
p116
F-1.5268203988563909
sS'adhere'
p117
F-0.4071018488948829
sS'favor'
p118
F-1.1536041233773944
sS'empty'
p119
F-2.8020692937498772
sg16
F-1.3705756873018968
sS'volatilize'
p120
F-0.4071018488948829
sS'spray'
p121
F-2.5858147757451966
sS'break out'
p122
F-2.372863328458951
sS'wrinkle'
p123
F-0.5576770362358064
sS'undermine'
p124
F-0.5576770362358064
sS'drape'
p125
F-1.6489237735142301
sS'spout'
p126
F-2.540781246980502
sS'culminate'
p127
F-1.3705756873018968
sg98
F-2.540781246980502
sg31
F-1.2470037625138766
sS'furnish'
p128
F-1.1536041233773944
ssS'basalt'
p129
(dp130
S'flow'
p131
F-8.32956898405191
sS'describe'
p132
F-1.2181510263440432
sS'vary'
p133
F-0.9823115855987178
sS'examine'
p134
F-0.36686729334680024
sS'create'
p135
F-2.8595610940560743
sS'fill'
p136
F-2.071768211481903
sS'suggest'
p137
F-2.3392004080231454
sS'make'
p138
F-3.8207743509806753
sS'tend'
p139
F-1.451472745089873
sS'spread'
p140
F-1.551412375706632
sS'begin'
p141
F-4.3461762939346595
sS'hit'
p142
F-1.594982292633288
sS'form'
p143
F-6.01693545620781
sS'reach'
p144
F-3.0613480354922133
sS'produce'
p145
F-4.063865687888028
sS'accumulate'
p146
F0.11877988208600122
sS'generate'
p147
F-3.1005598082866204
sS'cool'
p148
F-2.9651751081775726
sS'consist'
p149
F-0.9519084537103331
sS'spill'
p150
F-0.40272976933370863
sS'cover'
p151
F-2.6684278498427676
sS'say'
p152
F-8.212718040319054
sS'remain'
p153
F-3.2374831115664238
sS'ooze'
p154
F-0.8335509921559832
sS'enter'
p155
F-1.056341602657963
sS'explain'
p156
F-1.8590329540572335
sS'travel'
p157
F-2.4140469608486397
ssS'magma'
p158
(dp159
S'reside'
p160
F-1.326454232831925
sS'incorporate'
p161
F-1.2297219967194248
sg3
F-0.3093412390478667
sS'envision'
p162
F-0.6547428669514392
sS'exert'
p163
F0.6413754113460365
sg44
F-0.766423610506908
sS'toss'
p164
F-0.3093412390478667
sS'imply'
p165
F-1.326454232831925
sg11
F-1.072453963429551
sS'ripple'
p166
F-1.5790207212553637
sS'churn'
p167
F-0.9493192698326701
sS'goes--just'
p168
F1.0512635819227374
sS'disintegrate'
p169
F-0.0639386150198581
sS'interact'
p170
F-0.9434479340490336
sg4
F-1.4572379401063473
sS'migrate'
p171
F-1.4438411020967794
sS'encourage'
p172
F-1.4721092000482752
sg53
F-0.11916104728566598
sS'inflate'
p173
F-1.4548131199889487
sS'empty'
p174
F-0.403378048643259
sS'reckon'
p175
F-1.1845928021723813
sg58
F1.5295749355811323
sS'deflate'
p176
F-1.4721092000482752
sS'impede'
p177
F-0.0639386150198581
sS'relinquish'
p178
F1.0816015672402148
sS'exsolve'
p179
F1.4867112151840545
sS'omit'
p180
F-0.11916104728566598
sS'equal'
p181
F-1.0934057542475115
sS'initiate'
p182
F-0.9434479340490336
sS'swallow'
p183
F-1.3552798239090804
ssS'debris'
p184
(dp185
S'compare'
p186
F-2.0074407702111565
sS'steepen'
p187
F1.2364942676040527
sS'show'
p188
F-4.674619377380583
sS'move'
p189
F-3.6501749428609838
sS'avalanche'
p190
F-2.906346569446912
sS'want'
p191
F-2.6585536206723717
sS'carry'
p192
F-2.731350706988037
sS'occur'
p193
F-4.882084798210975
sS'monitor'
p194
F-3.32924729574788
sS'mix'
p195
F-1.7418914415288071
sS'send'
p196
F-3.3996696214844473
sS'generate'
p197
F-3.9671806553812177
sS'indicate'
p198
F-2.830237205933334
sS'destroy'
p199
F-3.6501749428609838
sS'include'
p200
F-4.331320767561537
sS'roll'
p201
F-1.1391560550296547
sS'locate'
p202
F-2.226839475396617
sS'fall'
p203
F-3.936533062351928
sg146
F-0.4950174863344128
sS'believe'
p204
F-3.411268107802773
sS'come'
p205
F-5.102498200253977
sS'throw'
p206
F-1.3577384897930411
sS'flow'
p207
F-10.231334001514375
sS'clown'
p208
F0.7819218699666635
sS's'
p209
F-15.114088831819695
sS'contain'
p210
F-3.3770616638935747
sS'rework'
p211
F1.5834980915890617
sS'emit'
p212
F-1.3010118365973435
ssS'fountain'
p213
(dp214
S'shoot'
p215
F-0.5422766353752267
sS'do'
p216
F-2.1906763161986627
sS'live'
p217
F-2.6772962833348686
sS'include'
p218
F-2.595851870378658
sS'show'
p219
F-2.192729901391308
sS's'
p220
F-11.384224062530631
sg126
F1.2961473008807372
sS'pose'
p221
F0.14411939714271738
sS'reach'
p222
F-2.3195000341980063
sS'state'
p223
F-1.2505266951361846
sS'start'
p224
F-1.7049405259575872
sg121
F1.8330290917388192
sS'build'
p225
F-2.6517797149551727
sS'measure'
p226
F-1.955459005872285
sS'begin'
p227
F-3.4309508795664385
sS'spurt'
p228
F0.967585750302017
sS'fall'
p229
F-2.3410290143469847
sS'believe'
p230
F-1.9640657690981518
sg67
F10.86830090578715
sS'travel'
p231
F-1.76710677764973
ssS'cone'
p232
(dp233
S'represent'
p234
F-0.49254052143546817
sS'strengthen'
p235
F0.24270449256254772
sS'float'
p236
F-0.8713198184785457
sS'exist'
p237
F-1.6707086266923878
sS'measure'
p238
F-3.859546544104267
sS'disappear'
p239
F-1.0824592857063204
sS'fill'
p240
F-3.1214333268387278
sS'lie'
p241
F-3.578635369832609
sS'develop'
p242
F-3.2120028363880384
sS'raise'
p243
F-1.7256229595798758
sS'sit'
p244
F-2.2688267598472867
sS'suggest'
p245
F-3.4660594009535286
sS'start'
p246
F-4.0982487506910115
sS'build'
p247
F-3.967685019054749
sS'encircle'
p248
F0.39004800953531993
sS'run'
p249
F-3.024795730544268
sS'reflect'
p250
F-1.7256229595798758
sS'wear'
p251
F-1.0636279454344721
sg36
F-3.7014574236107105
sS'loom'
p252
F-0.44327937867535605
sS'consist'
p253
F-1.2667616558982706
sS'signal'
p254
F-2.096866309931239
sS'drop'
p255
F-2.424753734516091
sS'turn'
p256
F-3.7014574236107105
sS'slide'
p257
F-3.0416978677097863
sS'settle'
p258
F-1.6100584725669855
sS'comprise'
p259
F-0.15187511758557845
sS'display'
p260
F-1.4889564253370775
sS'dot'
p261
F-1.1591170607398902
sS'mean'
p262
F-2.5528511613228875
ssS'vesicle'
p263
(dp264
S'tend'
p265
F1.0816387688628586
sS'contain'
p266
F1.3428884072128717
ssS'tephra'
p267
(dp268
S'map'
p269
F-1.7038007060869358
sg221
F-0.6432468979144278
sS'do'
p270
F-2.606845578559987
sS'point'
p271
F-1.8219067468955412
sS'fragment'
p272
F-2.029663479760755
sS'erupt'
p273
F-4.847479301052156
sS'make'
p274
F-2.988922245803862
sS'describe'
p275
F0.5222655820066827
sS'cover'
p276
F-2.0464435939133465
sS'leave'
p277
F-3.1232320477400206
sS'produce'
p278
F-2.647021412861857
sS'contain'
p279
F-2.004264511913632
sS'accumulate'
p280
F1.5971902204369606
sg262
F-1.136022269696605
ssS'cinder'
p281
(dp282
S'look'
p283
F-1.7635974317122662
sg244
F0.11712287337768498
sS'fall'
p284
F-1.6654757470623938
sS'break'
p285
F-1.1375257917914854
sS'flood'
p286
F-0.4577253050812212
sS'produce'
p287
F-2.3512135634286
sS'solidify'
p288
F-0.6312759771907689
sS'contain'
p289
F-0.8094022156888451
sg38
F1.6500670970299687
ssS'crater'
p290
(dp291
S'reside'
p292
F-0.7913080487341804
sS'bathe'
p293
F-0.3222842588872297
sS'exceed'
p294
F-0.9954785038389814
sS'conclude'
p295
F-2.061219813444303
sS'emanate'
p296
F-0.6640309722695764
sS'imply'
p297
F-0.742711404842045
sg111
F-0.52249894965333
sS'prevent'
p298
F-2.247623224550918
sS'occupy'
p299
F-1.750236236814903
sS'overlook'
p300
F-1.1501854105476967
sS'paint'
p301
F-1.742931440777758
sS'roll'
p302
F-2.7173695962798132
sS'refer'
p303
F-2.346190277842203
sS'hover'
p304
F-0.9074741016300975
sS'beat'
p305
F-0.36196981478438717
sS'roam'
p306
F-0.52249894965333
sS'conquer'
p307
F0.34678050237027447
sS'hurl'
p308
F-2.703166697686901
sS'overflow'
p309
F-1.742931440777758
sS'interpret'
p310
F-2.3940525398735995
sS'remember'
p311
F-2.0025268861732513
sS'tunnel'
p312
F-2.196803835785844
sS'coat'
p313
F-1.611207039056881
sS'originate'
p314
F-1.8801779460724057
sS'nestle'
p315
F0.052440258307944417
sS'flare'
p316
F0.7752735590397415
sS'yell'
p317
F-0.52249894965333
sS'honor'
p318
F-0.17480703622653337
sS'dot'
p319
F-2.297398707609
sS'flatten'
p320
F-2.1742281621646606
ssS'volcan'
p321
(dp322
S'erupt'
p323
F-2.8537960797656923
sS'end'
p324
F-0.9149566550434082
sS'tear'
p325
F0.5728928407014702
sS's'
p326
F-5.952783213657671
sS'make'
p327
F-1.6101002296950735
sS'drive'
p328
F-0.4102720612400903
sS'live'
p329
F-1.3899071659991515
sS'continue'
p330
F-1.1516707348040733
ss.