(lp0
(((S'NN'
p1
S'debris'
p2
tp3
(S'NN'
p4
S'avalanche'
p5
tp6
tp7
F15.447151401803351
tp8
a(((S'NN'
p9
S'scoria'
p10
tp11
(S'NNS'
p12
S'cone'
p13
tp14
tp15
F15.086401896801569
tp16
a(((S'NN'
p17
S'cinder'
p18
tp19
(S'NN'
p20
S'spatter'
p21
tp22
tp23
F9.242254110430023
tp24
a(((S'NNS'
p25
S'slew'
p26
tp27
(S'NN'
p28
S'basalt'
p29
tp30
tp31
F8.163096641688998
tp32
a(((S'NN'
p33
S'pit'
p34
tp35
(S'NNS'
p36
S'crater'
p37
tp38
tp39
F7.389877455692169
tp40
a(((S'NN'
p41
S'flood'
p42
tp43
(S'NNS'
p44
S'basalt'
p45
tp46
tp47
F7.218164765566195
tp48
a(((S'NN'
p49
S'debris'
p50
tp51
(S'NN'
p52
S'six-mile'
p53
tp54
tp55
F6.563596169130291
tp56
a(((S'NN'
p57
S'debris'
p58
tp59
(S'NN'
p60
S'avalanche---and'
p61
tp62
tp63
F6.563596169130291
tp64
a(((S'NN'
p65
S'debris'
p66
tp67
(S'NN'
p68
S'flows--mobile'
p69
tp70
tp71
F6.563596169130291
tp72
a(((S'NN'
p73
S'/landslide'
p74
tp75
(S'NN'
p76
S'debris'
p77
tp78
tp79
F6.562344847762323
tp80
a(((S'NN'
p81
S'disc'
p82
tp83
(S'NN'
p84
S'debris'
p85
tp86
tp87
F6.562344847762323
tp88
a(((S'VV'
p89
S'stabilize'
p90
tp91
(S'NN'
p92
S'debris'
p93
tp94
tp95
F6.562344847762323
tp96
a(((S'NNS'
p97
S'whirlwind'
p98
tp99
(S'NN'
p100
S'debris'
p101
tp102
tp103
F6.562344847762323
tp104
a(((S'NN'
p105
S'mobilization'
p106
tp107
(S'NN'
p108
S'debris'
p109
tp110
tp111
F6.562344847762323
tp112
a(((S'NN'
p113
S'thedirection'
p114
tp115
(S'NN'
p116
S'debris'
p117
tp118
tp119
F6.562344847762323
tp120
a(((S'NN'
p121
S'basalt'
p122
tp123
(S'NNS'
p124
S'province'
p125
tp126
tp127
F6.023313016632835
tp128
a(((S'NN'
p129
S'cone'
p130
tp131
(S'NN'
p132
S'volcano-rise'
p133
tp134
tp135
F5.842718177279538
tp136
a(((S'NN'
p137
S'kinds--cinder'
p138
tp139
(S'NNS'
p140
S'cone'
p141
tp142
tp143
F5.840965384722124
tp144
a(((S'NN'
p145
S'scoria-and-spatter'
p146
tp147
(S'NN'
p148
S'cone'
p149
tp150
tp151
F5.840965384722124
tp152
a(((S'NN'
p153
S'3600-meter'
p154
tp155
(S'NN'
p156
S'cone'
p157
tp158
tp159
F5.840965384722124
tp160
a(((S'NN'
p161
S'driblet'
p162
tp163
(S'NNS'
p164
S'cone'
p165
tp166
tp167
F5.840965384722124
tp168
a(((S'NN'
p169
S'cinder-and-spatter'
p170
tp171
(S'NN'
p172
S'cone'
p173
tp174
tp175
F5.840965384722124
tp176
a((g22
(S'NN'
p177
S'cone'
p178
tp179
tp180
F5.474853264920547
tp181
a(((S'NN'
p182
S'debris'
p183
tp184
(S'NN'
p185
S'shooting'
p186
tp187
tp188
F4.535807549950187
tp189
a(((S'NN'
p190
S'flood'
p191
tp192
(S'NN'
p193
S'basalt'
p194
tp195
tp196
F4.34466862602705
tp197
a(((S'NN'
p198
S'accumulation'
p199
tp200
(S'NNS'
p201
S'cinder'
p202
tp203
tp204
F4.173067474339335
tp205
a(((S'NN'
p206
S'debris'
p207
tp208
(S'NNS'
p209
S'avalanche'
p210
tp211
tp212
F4.087620168271026
tp213
a(((S'NN'
p214
S'urg\\fcp'
p215
tp216
(S'NNS'
p217
S'cone'
p218
tp219
tp220
F4.01085033684946
tp221
a(((S'NN'
p222
S'pillow'
p223
tp224
(S'NN'
p225
S'basalt'
p226
tp227
tp228
F3.9407221253533216
tp229
a(((S'NN'
p230
S'basalt'
p231
tp232
(S'NNS'
p233
S'rind'
p234
tp235
tp236
F3.9007731381393618
tp237
a(((S'NN'
p238
S'basalt'
p239
tp240
(S'NN'
p241
S'gabbro'
p242
tp243
tp244
F3.9007731381393618
tp245
a(((S'NN'
p246
S'trachyte'
p247
tp248
(S'NN'
p249
S'basalt'
p250
tp251
tp252
F3.8991529978354675
tp253
a(((S'NNS'
p254
S'cinder'
p255
tp256
(S'NNS'
p257
S'lapillus'
p258
tp259
tp260
F3.6943062047701574
tp261
a(((S'NN'
p262
S'crater'
p263
tp264
(S'NN'
p265
S'hundred-year'
p266
tp267
tp268
F3.647734357178145
tp269
a(((S'VVP'
p270
S'crater'
p271
tp272
(S'NN'
p273
S'draine'
p274
tp275
tp276
F3.647734357178145
tp277
a(((S'NN'
p278
S'crater'
p279
tp280
(S'NN'
p281
S'itself.stand'
p282
tp283
tp284
F3.647734357178145
tp285
a(((S'NN'
p286
S'crater'
p287
tp288
(S'NN'
p289
S'out-of-this-world'
p290
tp291
tp292
F3.647734357178145
tp293
a(((S'NN'
p294
S'crater'
p295
tp296
(S'NN'
p297
S'floor;'
p298
tp299
tp300
F3.647734357178145
tp301
a(((S'NN'
p302
S'climbingdown'
p303
tp304
(S'NN'
p305
S'crater'
p306
tp307
tp308
F3.641153225606696
tp309
a(((S'NN'
p310
S'horseshoe-shape'
p311
tp312
(S'NN'
p313
S'crater'
p314
tp315
tp316
F3.641153225606696
tp317
a(((S'NN'
p318
S'vodka'
p319
tp320
(S'NN'
p321
S'crater'
p322
tp323
tp324
F3.641153225606696
tp325
a(((S'NN'
p326
S'3,280ft'
p327
tp328
(S'NN'
p329
S'crater'
p330
tp331
tp332
F3.641153225606696
tp333
a(((S'NN'
p334
S'mare'
p335
tp336
(S'NNS'
p337
S'basalt'
p338
tp339
tp340
F3.5173098557510696
tp341
a(((S'NN'
p342
S'low-viscosity'
p343
tp344
(S'NNS'
p345
S'basalt'
p346
tp347
tp348
F3.4331286843293816
tp349
a(((S'NN'
p350
S'vesiculation'
p351
tp352
(S'NN'
p353
S'basalt'
p354
tp355
tp356
F3.4331286843293816
tp357
a(((S'NNS'
p358
S'cinder'
p359
tp360
(S'NN'
p361
S'split'
p362
tp363
tp364
F3.338276528597807
tp365
a(((S'NN'
p366
S'spatter'
p367
tp368
(S'NNS'
p369
S'cone'
p370
tp371
tp372
F3.2033881422197807
tp373
a(((S'NNS'
p374
S'cone'
p375
tp376
(S'NNS'
p377
S'hornitos'
p378
tp379
tp380
F3.1811004627428483
tp381
a(((S'NN'
p382
S'outpouring'
p383
tp384
(S'NN'
p385
S'basalt'
p386
tp387
tp388
F2.9622652563704968
tp389
a(((S'NNS'
p390
S'tonne'
p391
tp392
(S'NN'
p393
S'debris'
p394
tp395
tp396
F2.883093172864602
tp397
a(((S'NNS'
p398
S'clasts'
p399
tp400
(S'NN'
p401
S'basalt'
p402
tp403
tp404
F2.809604711737549
tp405
a(((S'NN'
p406
S'ejection'
p407
tp408
(S'NN'
p409
S'debris'
p410
tp411
tp412
F2.753879156181539
tp413
a(((S'NN'
p414
S'pillow'
p415
tp416
(S'NNS'
p417
S'basalt'
p418
tp419
tp420
F2.7449296163386045
tp421
a(((S'NN'
p422
S'scoria'
p423
tp424
(S'NN'
p425
S'cone'
p426
tp427
tp428
F2.7335154429062376
tp429
a(((S'NN'
p430
S'crater'
p431
tp432
(S'NN'
p433
S'rim'
p434
tp435
tp436
F2.6626728341189705
tp437
a(((S'NNS'
p438
S'cinder'
p439
tp440
(S'NNS'
p441
S'pyroclasts'
p442
tp443
tp444
F2.5711271738751384
tp445
a(((S'NN'
p446
S'pit'
p447
tp448
(S'NN'
p449
S'crater'
p450
tp451
tp452
F2.524750880410578
tp453
a(((S'NN'
p454
S'crater'
p455
tp456
(S'NN'
p457
S'500ft'
p458
tp459
tp460
F2.398183221546457
tp461
a(((S'VVZ'
p462
S'crater'
p463
tp464
(S'VV'
p465
S'savour'
p466
tp467
tp468
F2.398183221546457
tp469
a(((S'NN'
p470
S'debris'
p471
tp472
(S'NN'
p473
S'shovel'
p474
tp475
tp476
F2.3753822288061874
tp477
a(((S'NN'
p478
S'gelatine'
p479
tp480
(S'NN'
p481
S'cone'
p482
tp483
tp484
F2.3102605421211644
tp485
a(((S'NN'
p486
S'basalt'
p487
tp488
(S'NN'
p489
S'scarp'
p490
tp491
tp492
F2.237884084509565
tp493
a(((S'NN'
p494
S'mound'
p495
tp496
(S'NNS'
p497
S'cinder'
p498
tp499
tp500
F2.2221382372704093
tp501
a(((S'NN'
p502
S'debris'
p503
tp504
(S'NN'
p505
S'water.'
p506
tp507
tp508
F2.1428344026943464
tp509
a(((S'VV'
p510
S'initiate'
p511
tp512
(S'NN'
p513
S'debris'
p514
tp515
tp516
F2.138679288579473
tp517
a(((S'NN'
p518
S'debris'
p519
tp520
(S'NNS'
p521
S'province'
p522
tp523
tp524
F1.939262502250165
tp525
a(((S'NN'
p526
S'basalt'
p527
tp528
(S'NN'
p529
S'foam'
p530
tp531
tp532
F1.8622078378865163
tp533
a(((S'NN'
p534
S'crater'
p535
tp536
(S'NNS'
p537
S'statistic'
p538
tp539
tp540
F1.8101821173293524
tp541
a(((S'NN'
p542
S'crater'
p543
tp544
(S'NN'
p545
S'testing'
p546
tp547
tp548
F1.8101821173293524
tp549
a(((S'NN'
p550
S'lip'
p551
tp552
(S'NN'
p553
S'crater'
p554
tp555
tp556
F1.809112965270846
tp557
a(((S'NN'
p558
S'cord'
p559
tp560
(S'NN'
p561
S'crater'
p562
tp563
tp564
F1.79623050426507
tp565
a(((S'VV'
p566
S'cinder'
p567
tp568
(S'NNS'
p569
S'bit'
p570
tp571
tp572
F1.7872806348362968
tp573
a(((S'NNS'
p574
S'log'
p575
tp576
(S'NN'
p577
S'debris'
p578
tp579
tp580
F1.785701031006776
tp581
a(((S'NN'
p582
S'cone'
p583
tp584
(S'NN'
p585
S'skyline'
p586
tp587
tp588
F1.6536824291483887
tp589
a(((S'NN'
p590
S'debris'
p591
tp592
(S'NNS'
p593
S'slump'
p594
tp595
tp596
F1.6513787748786803
tp597
a(((S'NNS'
p598
S'slump'
p599
tp600
g208
tp601
F1.646423379976177
tp602
a(((S'NN'
p603
S'slump'
p604
tp605
(S'NN'
p606
S'debris'
p607
tp608
tp609
F1.646423379976177
tp610
a(((S'NN'
p611
S'cone'
p612
tp613
(S'NN'
p614
S'stratovolcano'
p615
tp616
tp617
F1.6370221330736077
tp618
a(((S'NN'
p619
S'scoria'
p620
tp621
(S'NN'
p622
S'cinder'
p623
tp624
tp625
F1.5742578879120674
tp626
a(((S'NN'
p627
S'impact'
p628
tp629
(S'NNS'
p630
S'crater'
p631
tp632
tp633
F1.530695172464036
tp634
a(((S'NN'
p635
S'mare'
p636
tp637
(S'NN'
p638
S'basalt'
p639
tp640
tp641
F1.507976533747238
tp642
a(((S'NN'
p643
S'debris'
p644
tp645
(S'NN'
p646
S'runway'
p647
tp648
tp649
F1.4213941526002918
tp650
a(((S'NN'
p651
S'basalt'
p652
tp653
(S'NN'
p654
S'fragmentation'
p655
tp656
tp657
F1.373952689626568
tp658
a(((S'NN'
p659
S'crater'
p660
tp661
(S'NN'
p662
S'floor'
p663
tp664
tp665
F1.3722019374804328
tp666
a(((S'NN'
p667
S'scarp'
p668
tp669
(S'NN'
p670
S'cone'
p671
tp672
tp673
F1.3667577214531188
tp674
a(((S'NN'
p675
S'cinder'
p676
tp677
(S'NN'
p678
S'track'
p679
tp680
tp681
F1.323732682173633
tp682
a(((S'VV'
p683
S'distinguish'
p684
tp685
(S'NN'
p686
S'debris'
p687
tp688
tp689
F1.318656108985023
tp690
a(((S'NN'
p691
S'basalt'
p692
tp693
(S'NN'
p694
S'glass'
p695
tp696
tp697
F1.2272765868199356
tp698
a(((S'NN'
p699
S'absence'
p700
tp701
(S'NNS'
p702
S'crater'
p703
tp704
tp705
F1.1543351057975066
tp706
a(((S'NN'
p707
S'birth'
p708
tp709
(S'NN'
p710
S'cone'
p711
tp712
tp713
F1.1502360405941905
tp714
a(((S'VVN'
p715
S'cinder'
p716
tp717
(S'NN'
p718
S'plain'
p719
tp720
tp721
F1.0867276932384125
tp722
a(((S'NNS'
p723
S'row'
p724
tp725
(S'NNS'
p726
S'cone'
p727
tp728
tp729
F1.0583036525586587
tp730
a(((S'NN'
p731
S'shot'
p732
tp733
(S'NN'
p734
S'debris'
p735
tp736
tp737
F1.0069742847435215
tp738
a(((S'NN'
p739
S'cone'
p740
tp741
(S'VV'
p742
S'pause'
p743
tp744
tp745
F0.982928310804636
tp746
a(((S'NNS'
p747
S'crater'
p748
tp749
(S'NNS'
p750
S'bathe'
p751
tp752
tp753
F0.9661324459613406
tp754
a(((S'NN'
p755
S'runoff'
p756
tp757
(S'NN'
p758
S'crater'
p759
tp760
tp761
F0.9455750558435358
tp762
a(((S'NN'
p763
S'belly'
p764
tp765
(S'NN'
p766
S'crater'
p767
tp768
tp769
F0.9455750558435358
tp770
a(((S'NN'
p771
S'reflector'
p772
tp773
(S'NN'
p774
S'crater'
p775
tp776
tp777
F0.9455750558435358
tp778
a(((S'NNS'
p779
S'inspection'
p780
tp781
(S'NN'
p782
S'crater'
p783
tp784
tp785
F0.9455750558435358
tp786
a(((S'NN'
p787
S'brace'
p788
tp789
(S'NN'
p790
S'crater'
p791
tp792
tp793
F0.9455750558435358
tp794
a(((S'NN'
p795
S'variety'
p796
tp797
(S'NN'
p798
S'basalt'
p799
tp800
tp801
F0.9222296908855784
tp802
a(((S'NN'
p803
S'basalt'
p804
tp805
(S'NN'
p806
S'rhyolite'
p807
tp808
tp809
F0.887446383123059
tp810
a(((S'NNS'
p811
S'chunk'
p812
tp813
(S'NN'
p814
S'basalt'
p815
tp816
tp817
F0.8465576230116548
tp818
a(((S'NN'
p819
S'crater'
p820
tp821
(S'NN'
p822
S'foreground'
p823
tp824
tp825
F0.8366531412685572
tp826
a(((S'NNS'
p827
S'bomb'
p828
tp829
(S'NN'
p830
S'cinder'
p831
tp832
tp833
F0.7962718106899297
tp834
a(((S'NN'
p835
S'accumulation'
p836
tp837
(S'NN'
p838
S'basalt'
p839
tp840
tp841
F0.7766849039634699
tp842
a(((S'NNS'
p843
S'goal'
p844
tp845
(S'NNS'
p846
S'crater'
p847
tp848
tp849
F0.7752735590397415
tp850
a(((S'NN'
p851
S'basalt'
p852
tp853
(S'NN'
p854
S'left'
p855
tp856
tp857
F0.7476230016398112
tp858
a(((S'NN'
p859
S'basalt'
p860
tp861
(S'NN'
p862
S'andesite'
p863
tp864
tp865
F0.7476230016398112
tp866
a(((S'NN'
p867
S'addition'
p868
tp869
(S'NN'
p870
S'basalt'
p871
tp872
tp873
F0.7436591226088971
tp874
a(((S'NN'
p875
S'debris'
p876
tp877
(S'NNS'
p878
S'dam'
p879
tp880
tp881
F0.731633933648908
tp882
a(((S'NN'
p883
S'debris'
p884
tp885
(S'NN'
p886
S'dam'
p887
tp888
tp889
F0.731633933648908
tp890
a(((S'VV'
p891
S'note'
p892
tp893
(S'NNS'
p894
S'cinder'
p895
tp896
tp897
F0.7296848677510662
tp898
a(((S'NN'
p899
S'debris'
p900
tp901
(S'NN'
p902
S'stratosphere'
p903
tp904
tp905
F0.7293437164463278
tp906
a(((S'NN'
p907
S'debris'
p908
tp909
(S'NNS'
p910
S'pile'
p911
tp912
tp913
F0.6395325835278072
tp914
a(((S'NN'
p915
S'pile'
p916
tp917
g472
tp918
F0.632228571686093
tp919
a(((S'NNS'
p920
S'pile'
p921
tp922
(S'NN'
p923
S'debris'
p924
tp925
tp926
F0.632228571686093
tp927
a(((S'VV'
p928
S'clamber'
p929
tp930
(S'NN'
p931
S'crater'
p932
tp933
tp934
F0.6315119999303948
tp935
a(((S'NN'
p936
S'disruption'
p937
tp938
(S'NN'
p939
S'crater'
p940
tp941
tp942
F0.6315119999303948
tp943
a(((S'VV'
p944
S'inspect'
p945
tp946
(S'NN'
p947
S'crater'
p948
tp949
tp950
F0.6315119999303948
tp951
a(((S'VVN'
p952
S'crater'
p953
tp954
(S'NNS'
p955
S'highland'
p956
tp957
tp958
F0.5992155870140067
tp959
a(((S'NN'
p960
S'cone'
p961
tp962
(S'NN'
p963
S'background'
p964
tp965
tp966
F0.5987435105295549
tp967
a(((S'NN'
p968
S'debris'
p969
tp970
(S'NNS'
p971
S'velocity'
p972
tp973
tp974
F0.596746038847847
tp975
a(((S'NNS'
p976
S'ton'
p977
tp978
(S'NN'
p979
S'basalt'
p980
tp981
tp982
F0.5943812348913464
tp983
a(((S'NN'
p984
S'landform'
p985
tp986
(S'NN'
p987
S'cone'
p988
tp989
tp990
F0.5890704171145598
tp991
a((g896
(S'NN'
p992
S'fountain'
p993
tp994
tp995
F0.5642781510574604
tp996
a(((S'VV'
p997
S'breach'
p998
tp999
(S'NN'
p1000
S'crater'
p1001
tp1002
tp1003
F0.5617874558070903
tp1004
a(((S'NN'
p1005
S'debris'
p1006
tp1007
(S'NN'
p1008
S'a.d'
p1009
tp1010
tp1011
F0.5558694051649067
tp1012
a((g203
(S'NN'
p1013
S'tephra'
p1014
tp1015
tp1016
F0.5221618704396163
tp1017
a(((S'NN'
p1018
S'debris'
p1019
tp1020
(S'NN'
p1021
S'atmosphere'
p1022
tp1023
tp1024
F0.516816283606531
tp1025
a(((S'NN'
p1026
S'surveillance'
p1027
tp1028
(S'NN'
p1029
S'crater'
p1030
tp1031
tp1032
F0.5070634350495259
tp1033
a(((S'NNS'
p1034
S'side'
p1035
tp1036
(S'NN'
p1037
S'cone'
p1038
tp1039
tp1040
F0.4778280928309156
tp1041
a(((S'NN'
p1042
S'summit'
p1043
tp1044
(S'NN'
p1045
S'crater'
p1046
tp1047
tp1048
F0.44687096043861124
tp1049
a(((S'NN'
p1050
S'basalt'
p1051
tp1052
(S'NN'
p1053
S'tephra'
p1054
tp1055
tp1056
F0.4296380363519329
tp1057
a(((S'NN'
p1058
S'meteorite'
p1059
tp1060
(S'NNS'
p1061
S'crater'
p1062
tp1063
tp1064
F0.42264891889727146
tp1065
a(((S'NN'
p1066
S'photo'
p1067
tp1068
(S'NNS'
p1069
S'cinder'
p1070
tp1071
tp1072
F0.41729854487685564
tp1073
a(((S'NNS'
p1074
S'cinder'
p1075
tp1076
(S'NN'
p1077
S'photo'
p1078
tp1079
tp1080
F0.41528826191497314
tp1081
a(((S'NN'
p1082
S'pahoehoe'
p1083
tp1084
(S'NN'
p1085
S'basalt'
p1086
tp1087
tp1088
F0.4125454770510342
tp1089
a(((S'NN'
p1090
S'debris'
p1091
tp1092
(S'VV'
p1093
S'calculate'
p1094
tp1095
tp1096
F0.40839645445796197
tp1097
a(((S'NN'
p1098
S'chunk'
p1099
tp1100
g1092
tp1101
F0.4004479013632563
tp1102
a(((S'NNS'
p1103
S'column'
p1104
tp1105
g1052
tp1106
F0.39855664777053723
tp1107
a(((S'VV'
p1108
S'transport'
p1109
tp1110
(S'NN'
p1111
S'debris'
p1112
tp1113
tp1114
F0.36687764322726674
tp1115
a(((S'NN'
p1116
S'crater'
p1117
tp1118
(S'NN'
p1119
S'wall'
p1120
tp1121
tp1122
F0.3461799021486212
tp1123
a(((S'NN'
p1124
S'crater'
p1125
tp1126
(S'NN'
p1127
S'offering'
p1128
tp1129
tp1130
F0.32705242306620813
tp1131
a(((S'VV'
p1132
S'vary'
p1133
tp1134
g805
tp1135
F0.3118127957554224
tp1136
a(((S'NNS'
p1137
S'mirror'
p1138
tp1139
(S'NN'
p1140
S'crater'
p1141
tp1142
tp1143
F0.2988579166134238
tp1144
a(((S'NN'
p1145
S'smoking'
p1146
tp1147
(S'NN'
p1148
S'cone'
p1149
tp1150
tp1151
F0.24270449256254772
tp1152
a(((S'NN'
p1153
S'cone'
p1154
tp1155
(S'NN'
p1156
S'cinder'
p1157
tp1158
tp1159
F0.23521902661187666
tp1160
a(((S'NN'
p1161
S'tuff'
p1162
tp1163
(S'NN'
p1164
S'basalt'
p1165
tp1166
tp1167
F0.21532123447645327
tp1168
a(((S'NN'
p1169
S'descent'
p1170
tp1171
(S'NN'
p1172
S'crater'
p1173
tp1174
tp1175
F0.20963709805836764
tp1176
a(((S'NN'
p1177
S'cone'
p1178
tp1179
(S'NN'
p1180
S'spatter'
p1181
tp1182
tp1183
F0.18927097958591532
tp1184
a(((S'NNS'
p1185
S'cone'
p1186
tp1187
(S'NN'
p1188
S'spatter'
p1189
tp1190
tp1191
F0.18927097958591532
tp1192
a(((S'NN'
p1193
S'content'
p1194
tp1195
(S'NN'
p1196
S'basalt'
p1197
tp1198
tp1199
F0.1792981370595124
tp1200
a(((S'NN'
p1201
S'spatter'
p1202
tp1203
(S'NP'
p1204
S'cone'
p1205
tp1206
tp1207
F0.17476797861875762
tp1208
a(((S'NN'
p1209
S'cinder'
p1210
tp1211
(S'NNS'
p1212
S'block'
p1213
tp1214
tp1215
F0.09113405825988691
tp1216
a(((S'NN'
p1217
S'crater'
p1218
tp1219
(S'NN'
p1220
S'crest'
p1221
tp1222
tp1223
F0.08427287041638842
tp1224
a(((S'NN'
p1225
S'basalt'
p1226
tp1227
(S'NN'
p1228
S'spatter'
p1229
tp1230
tp1231
F0.08273628189971222
tp1232
a(((S'NN'
p1233
S'debris'
p1234
tp1235
(S'NNS'
p1236
S'lahars'
p1237
tp1238
tp1239
F0.07703434378504914
tp1240
a(((S'NN'
p1241
S'viscosity'
p1242
tp1243
(S'NN'
p1244
S'basalt'
p1245
tp1246
tp1247
F0.0628116344137064
tp1248
a(((S'NN'
p1249
S'canal'
p1250
tp1251
(S'NN'
p1252
S'crater'
p1253
tp1254
tp1255
F0.052440258307944417
tp1256
a(((S'NN'
p1257
S'rim'
p1258
tp1259
(S'NN'
p1260
S'crater'
p1261
tp1262
tp1263
F0.047326906132349474
tp1264
a(((S'NNS'
p1265
S'cinder'
p1266
tp1267
(S'NN'
p1268
S'km'
p1269
tp1270
tp1271
F0.03366125070330049
tp1272
a(((S'NN'
p1273
S'debris'
p1274
tp1275
(S'NN'
p1276
S'settle'
p1277
tp1278
tp1279
F0.021674752478446538
tp1280
a(((S'NN'
p1281
S'seafloor'
p1282
tp1283
(S'NN'
p1284
S'basalt'
p1285
tp1286
tp1287
F-0.02714223334742149
tp1288
a(((S'NN'
p1289
S'dust'
p1290
tp1291
(S'NN'
p1292
S'debris'
p1293
tp1294
tp1295
F-0.04527682459358118
tp1296
a(((S'NN'
p1297
S'exploration'
p1298
tp1299
(S'NN'
p1300
S'crater'
p1301
tp1302
tp1303
F-0.08344431256306892
tp1304
a(((S'NN'
p1305
S'debris'
p1306
tp1307
(S'VV'
p1308
S'consist'
p1309
tp1310
tp1311
F-0.08635025667861258
tp1312
a(((S'NN'
p1313
S'mud'
p1314
tp1315
(S'NN'
p1316
S'debris'
p1317
tp1318
tp1319
F-0.0909268906266652
tp1320
a(((S'NN'
p1321
S'sample'
p1322
tp1323
(S'NN'
p1324
S'basalt'
p1325
tp1326
tp1327
F-0.09642588117016035
tp1328
a(((S'NNS'
p1329
S'volume'
p1330
tp1331
(S'NN'
p1332
S'basalt'
p1333
tp1334
tp1335
F-0.12686202564064317
tp1336
a(((S'VV'
p1337
S'capture'
p1338
tp1339
(S'NN'
p1340
S'crater'
p1341
tp1342
tp1343
F-0.14522369050873923
tp1344
a(((S'NN'
p1345
S'basalt'
p1346
tp1347
(S'NN'
p1348
S'dark'
p1349
tp1350
tp1351
F-0.1575956445517375
tp1352
a(((S'NNS'
p1353
S'tear'
p1354
tp1355
(S'NN'
p1356
S'cone'
p1357
tp1358
tp1359
F-0.16640979406576
tp1360
a(((S'NN'
p1361
S'crater'
p1362
tp1363
(S'NN'
p1364
S'dawn'
p1365
tp1366
tp1367
F-0.16755603906226854
tp1368
a(((S'NNS'
p1369
S'deposit'
p1370
tp1371
(S'NNS'
p1372
S'cinder'
p1373
tp1374
tp1375
F-0.18643906681619216
tp1376
a(((S'NNS'
p1377
S'stone'
p1378
tp1379
(S'NN'
p1380
S'debris'
p1381
tp1382
tp1383
F-0.19356164300396206
tp1384
a(((S'VV'
p1385
S'seep'
p1386
tp1387
(S'NN'
p1388
S'crater'
p1389
tp1390
tp1391
F-0.25895607125665343
tp1392
a(((S'NN'
p1393
S'cone'
p1394
tp1395
(S'VV'
p1396
S'extrude'
p1397
tp1398
tp1399
F-0.26694180457113115
tp1400
a(((S'NN'
p1401
S'crater'
p1402
tp1403
(S'NN'
p1404
S'breach'
p1405
tp1406
tp1407
F-0.2737235687689563
tp1408
a(((S'NN'
p1409
S'basalt'
p1410
tp1411
(S'VV'
p1412
S'solidify'
p1413
tp1414
tp1415
F-0.2768713279051242
tp1416
a(((S'NN'
p1417
S'ice'
p1418
tp1419
(S'NNS'
p1420
S'cinder'
p1421
tp1422
tp1423
F-0.2986567904110379
tp1424
a(((S'NN'
p1425
S'rest'
p1426
tp1427
(S'NN'
p1428
S'cone'
p1429
tp1430
tp1431
F-0.3018181346187236
tp1432
a(((S'NN'
p1433
S'breach'
p1434
tp1435
(S'NN'
p1436
S'crater'
p1437
tp1438
tp1439
F-0.31165392208687126
tp1440
a(((S'NN'
p1441
S'composition'
p1442
tp1443
(S'NN'
p1444
S'basalt'
p1445
tp1446
tp1447
F-0.31355516471996586
tp1448
a(((S'NN'
p1449
S'crater'
p1450
tp1451
(S'VV'
p1452
S'check'
p1453
tp1454
tp1455
F-0.32313502387519427
tp1456
a(((S'NN'
p1457
S'debris'
p1458
tp1459
(S'NNS'
p1460
S'particle'
p1461
tp1462
tp1463
F-0.3240456512499194
tp1464
a(((S'NNS'
p1465
S'particle'
p1466
tp1467
(S'NN'
p1468
S'debris'
p1469
tp1470
tp1471
F-0.33370852229115333
tp1472
a(((S'NNS'
p1473
S'cinder'
p1474
tp1475
(S'NN'
p1476
S'type'
p1477
tp1478
tp1479
F-0.34373865497922396
tp1480
a(((S'NNS'
p1481
S'blast'
p1482
tp1483
(S'NN'
p1484
S'cinder'
p1485
tp1486
tp1487
F-0.35069778411816094
tp1488
a(((S'NN'
p1489
S'basalt'
p1490
tp1491
(S'NNS'
p1492
S'column'
p1493
tp1494
tp1495
F-0.4148802979798919
tp1496
a(((S'NN'
p1497
S'crater'
p1498
tp1499
(S'NNS'
p1500
S'remnant'
p1501
tp1502
tp1503
F-0.4158170592284021
tp1504
a(((S'NN'
p1505
S'tuff'
p1506
tp1507
(S'NN'
p1508
S'cone'
p1509
tp1510
tp1511
F-0.4412533554518125
tp1512
a(((S'NN'
p1513
S'cone'
p1514
tp1515
(S'NN'
p1516
S'didn'
p1517
tp1518
tp1519
F-0.44569253937021047
tp1520
a(((S'NNS'
p1521
S'bird'
p1522
tp1523
(S'NN'
p1524
S'crater'
p1525
tp1526
tp1527
F-0.4563848406712282
tp1528
a(((S'NN'
p1529
S'shadow'
p1530
tp1531
(S'NNS'
p1532
S'cone'
p1533
tp1534
tp1535
F-0.4598482107143878
tp1536
a(((S'NNS'
p1537
S'cone'
p1538
tp1539
(S'NN'
p1540
S'family'
p1541
tp1542
tp1543
F-0.46392842557210495
tp1544
a(((S'VV'
p1545
S'escape'
p1546
tp1547
(S'NN'
p1548
S'basalt'
p1549
tp1550
tp1551
F-0.4664768600485095
tp1552
a(((S'NN'
p1553
S'space'
p1554
tp1555
(S'NN'
p1556
S'debris'
p1557
tp1558
tp1559
F-0.4727569071833014
tp1560
a(((S'NNS'
p1561
S'kilometer'
p1562
tp1563
(S'NN'
p1564
S'basalt'
p1565
tp1566
tp1567
F-0.48910331239637744
tp1568
a(((S'NNS'
p1569
S'datum'
p1570
tp1571
(S'NNS'
p1572
S'basalt'
p1573
tp1574
tp1575
F-0.5314296325186186
tp1576
a(((S'NNS'
p1577
S'mudflows'
p1578
tp1579
(S'NN'
p1580
S'debris'
p1581
tp1582
tp1583
F-0.5433478344299769
tp1584
a(((S'NN'
p1585
S'development'
p1586
tp1587
(S'NN'
p1588
S'debris'
p1589
tp1590
tp1591
F-0.5433478344299769
tp1592
a(((S'NN'
p1593
S'expansion'
p1594
tp1595
(S'NN'
p1596
S'crater'
p1597
tp1598
tp1599
F-0.5437471071535317
tp1600
a(((S'NNS'
p1601
S'trek'
p1602
tp1603
g288
tp1604
F-0.5437471071535317
tp1605
a(((S'NN'
p1606
S'tip'
p1607
tp1608
(S'NN'
p1609
S'crater'
p1610
tp1611
tp1612
F-0.5437471071535317
tp1613
a(((S'NN'
p1614
S'basalt'
p1615
tp1616
(S'NN'
p1617
S'volcanism'
p1618
tp1619
tp1620
F-0.5649432466709682
tp1621
a(((S'NN'
p1622
S'cone'
p1623
tp1624
(S'NN'
p1625
S'question'
p1626
tp1627
tp1628
F-0.567812938757746
tp1629
a(((S'NN'
p1630
S'crater'
p1631
tp1632
(S'NN'
p1633
S'beginning'
p1634
tp1635
tp1636
F-0.5814460481801099
tp1637
a(((S'NN'
p1638
S'smoke'
p1639
tp1640
(S'NN'
p1641
S'debris'
p1642
tp1643
tp1644
F-0.58378136406013
tp1645
a(((S'NNS'
p1646
S'crater'
p1647
tp1648
(S'NNS'
p1649
S'farmer'
p1650
tp1651
tp1652
F-0.6195060417801231
tp1653
a(((S'NN'
p1654
S'description'
p1655
tp1656
(S'NNS'
p1657
S'crater'
p1658
tp1659
tp1660
F-0.6640309722695764
tp1661
a(((S'NN'
p1662
S'smoking'
p1663
tp1664
g1126
tp1665
F-0.6640309722695764
tp1666
a(((S'NNS'
p1667
S'flood'
p1668
tp1669
(S'NN'
p1670
S'basalt'
p1671
tp1672
tp1673
F-0.6839496181664544
tp1674
a(((S'VV'
p1675
S'warn'
p1676
tp1677
(S'NN'
p1678
S'debris'
p1679
tp1680
tp1681
F-0.6976630186087431
tp1682
a(((S'NN'
p1683
S'tunnel'
p1684
tp1685
(S'NN'
p1686
S'crater'
p1687
tp1688
tp1689
F-0.701690130446984
tp1690
a(((S'NN'
p1691
S'drift'
p1692
tp1693
(S'NN'
p1694
S'cone'
p1695
tp1696
tp1697
F-0.7237770564319538
tp1698
a(((S'VV'
p1699
S'climb'
p1700
tp1701
(S'NN'
p1702
S'crater'
p1703
tp1704
tp1705
F-0.7239396295687743
tp1706
a(((S'NNS'
p1707
S'meter'
p1708
tp1709
(S'NN'
p1710
S'debris'
p1711
tp1712
tp1713
F-0.7291894336110012
tp1714
a(((S'NN'
p1715
S'debris'
p1716
tp1717
(S'NN'
p1718
S'fact'
p1719
tp1720
tp1721
F-0.7585958180498164
tp1722
a(((S'NN'
p1723
S'position'
p1724
tp1725
(S'NN'
p1726
S'crater'
p1727
tp1728
tp1729
F-0.773866752493309
tp1730
a(((S'NN'
p1731
S'avalanche'
p1732
tp1733
(S'NN'
p1734
S'debris'
p1735
tp1736
tp1737
F-0.7876841827932513
tp1738
a(((S'NNS'
p1739
S'avalanche'
p1740
tp1741
(S'NN'
p1742
S'debris'
p1743
tp1744
tp1745
F-0.7876841827932513
tp1746
a(((S'NN'
p1747
S'crater'
p1748
tp1749
(S'NN'
p1750
S'left'
p1751
tp1752
tp1753
F-0.7942586541737343
tp1754
a(((S'NN'
p1755
S'volume'
p1756
tp1757
(S'NN'
p1758
S'basalt'
p1759
tp1760
tp1761
F-0.8055705642734761
tp1762
a(((S'NN'
p1763
S'glow'
p1764
tp1765
(S'NP'
p1766
S'crater'
p1767
tp1768
tp1769
F-0.8085241177247823
tp1770
a(((S'NN'
p1771
S'mass'
p1772
tp1773
(S'NN'
p1774
S'debris'
p1775
tp1776
tp1777
F-0.8352521867169863
tp1778
a(((S'NN'
p1779
S'cascade'
p1780
tp1781
(S'NN'
p1782
S'debris'
p1783
tp1784
tp1785
F-0.8568570794974856
tp1786
a(((S'NN'
p1787
S'formation'
p1788
tp1789
(S'NN'
p1790
S'cone'
p1791
tp1792
tp1793
F-0.8778816908409547
tp1794
a(((S'NN'
p1795
S'cone'
p1796
tp1797
(S'NN'
p1798
S'shape'
p1799
tp1800
tp1801
F-0.8781572800383346
tp1802
a(((S'NNS'
p1803
S'spew'
p1804
tp1805
(S'NN'
p1806
S'cone'
p1807
tp1808
tp1809
F-0.8910544877025787
tp1810
a(((S'NN'
p1811
S'information'
p1812
tp1813
g970
tp1814
F-0.8990662112439656
tp1815
a(((S'NN'
p1816
S'land'
p1817
tp1818
(S'NN'
p1819
S'basalt'
p1820
tp1821
tp1822
F-0.9035377870916848
tp1823
a(((S'NN'
p1824
S'impact'
p1825
tp1826
(S'NN'
p1827
S'crater'
p1828
tp1829
tp1830
F-0.9127696813424564
tp1831
a((g1390
(S'VV'
p1832
S'contact'
p1833
tp1834
tp1835
F-0.9191148071462769
tp1836
a(((S'NN'
p1837
S'debris'
p1838
tp1839
(S'VV'
p1840
S'trigger'
p1841
tp1842
tp1843
F-0.9408738998391806
tp1844
a(((S'NN'
p1845
S'debris'
p1846
tp1847
(S'NNS'
p1848
S'landslide'
p1849
tp1850
tp1851
F-0.9508940171456987
tp1852
a(((S'NNS'
p1853
S'yard'
p1854
tp1855
(S'NN'
p1856
S'crater'
p1857
tp1858
tp1859
F-0.9697370047036245
tp1860
a(((S'NN'
p1861
S'journey'
p1862
tp1863
(S'NN'
p1864
S'crater'
p1865
tp1866
tp1867
F-0.9697370047036245
tp1868
a(((S'NN'
p1869
S'afternoon'
p1870
tp1871
(S'NNS'
p1872
S'crater'
p1873
tp1874
tp1875
F-0.9697370047036245
tp1876
a(((S'NN'
p1877
S'crater'
p1878
tp1879
(S'NN'
p1880
S'basin'
p1881
tp1882
tp1883
F-0.9775744990714492
tp1884
a(((S'NN'
p1885
S'crater'
p1886
tp1887
(S'VV'
p1888
S'demonstrate'
p1889
tp1890
tp1891
F-0.9775744990714492
tp1892
a(((S'NN'
p1893
S'cone'
p1894
tp1895
(S'NN'
p1896
S'height'
p1897
tp1898
tp1899
F-0.9889550897630057
tp1900
a((g195
(S'NN'
p1901
S'p'
p1902
tp1903
tp1904
F-1.0098563176860107
tp1905
a(((S'NN'
p1906
S'base'
p1907
tp1908
(S'NN'
p1909
S'cone'
p1910
tp1911
tp1912
F-1.0183095472422345
tp1913
a(((S'NN'
p1914
S'number'
p1915
tp1916
g909
tp1917
F-1.0280747091708005
tp1918
a(((S'NN'
p1919
S'debris'
p1920
tp1921
(S'VV'
p1922
S'bury'
p1923
tp1924
tp1925
F-1.047505242865037
tp1926
a(((S'NN'
p1927
S'debris'
p1928
tp1929
(S'NN'
p1930
S'stream'
p1931
tp1932
tp1933
F-1.047505242865037
tp1934
a(((S'NN'
p1935
S'cone'
p1936
tp1937
(S'NN'
p1938
S'structure'
p1939
tp1940
tp1941
F-1.0598078569146179
tp1942
a(((S'NN'
p1943
S'crater'
p1944
tp1945
(S'VV'
p1946
S'hike'
p1947
tp1948
tp1949
F-1.0610559087783584
tp1950
a(((S'NN'
p1951
S'crater'
p1952
tp1953
(S'NN'
p1954
S'attempt'
p1955
tp1956
tp1957
F-1.0610559087783584
tp1958
a(((S'NN'
p1959
S'basalt'
p1960
tp1961
(S'NN'
p1962
S'layer'
p1963
tp1964
tp1965
F-1.0782625498647322
tp1966
a(((S'NNS'
p1967
S'cinder'
p1968
tp1969
(S'NN'
p1970
S'vent'
p1971
tp1972
tp1973
F-1.0983827446227807
tp1974
a(((S'NNS'
p1975
S'pond'
p1976
tp1977
g661
tp1978
F-1.1146344342269108
tp1979
a(((S'NN'
p1980
S'lack'
p1981
tp1982
(S'VVG'
p1983
S'crater'
p1984
tp1985
tp1986
F-1.1146344342269108
tp1987
a(((S'NN'
p1988
S'shield'
p1989
tp1990
(S'NNS'
p1991
S'cone'
p1992
tp1993
tp1994
F-1.1257804812303973
tp1995
a(((S'NN'
p1996
S'formation'
p1997
tp1998
(S'NP'
p1999
S'crater'
p2000
tp2001
tp2002
F-1.1279561437433023
tp2003
a(((S'NN'
p2004
S'debris'
p2005
tp2006
(S'NNS'
p2007
S'shape'
p2008
tp2009
tp2010
F-1.1383203813154625
tp2011
a(((S'NN'
p2012
S'cinder'
p2013
tp2014
(S'NN'
p2015
S'ash'
p2016
tp2017
tp2018
F-1.1557837960767932
tp2019
a(((S'NN'
p2020
S'middle'
p2021
tp2022
(S'NN'
p2023
S'crater'
p2024
tp2025
tp2026
F-1.1689063373105932
tp2027
a(((S'NP'
p2028
S'crater'
p2029
tp2030
(S'NN'
p2031
S'trail'
p2032
tp2033
tp2034
F-1.1906554742076958
tp2035
a(((S'NN'
p2036
S'cone'
p2037
tp2038
(S'NN'
p2039
S'photo'
p2040
tp2041
tp2042
F-1.2029272476768833
tp2043
a(((S'NN'
p2044
S'o'
p2045
tp2046
(S'NN'
p2047
S'cone'
p2048
tp2049
tp2050
F-1.2076462933241425
tp2051
a(((S'NNS'
p2052
S'moment'
p2053
tp2054
(S'NN'
p2055
S'crater'
p2056
tp2057
tp2058
F-1.221355820577924
tp2059
a(((S'NN'
p2060
S'debris'
p2061
tp2062
(S'VV'
p2063
S'set'
p2064
tp2065
tp2066
F-1.2325427637133575
tp2067
a(((S'NN'
p2068
S'deformation'
p2069
tp2070
(S'NN'
p2071
S'crater'
p2072
tp2073
tp2074
F-1.24694636257308
tp2075
a(((S'NNS'
p2076
S'metre'
p2077
tp2078
(S'NN'
p2079
S'debris'
p2080
tp2081
tp2082
F-1.2484459598542361
tp2083
a(((S'NNS'
p2084
S'temperature'
p2085
tp2086
(S'NN'
p2087
S'basalt'
p2088
tp2089
tp2090
F-1.2557205147053678
tp2091
a(((S'NN'
p2092
S'rim'
p2093
tp2094
(S'NN'
p2095
S'cone'
p2096
tp2097
tp2098
F-1.2596806130157254
tp2099
a(((S'NN'
p2100
S'basalt'
p2101
tp2102
(S'VV'
p2103
S'generate'
p2104
tp2105
tp2106
F-1.2674616984659286
tp2107
a(((S'NN'
p2108
S'debris'
p2109
tp2110
(S'NN'
p2111
S'travel'
p2112
tp2113
tp2114
F-1.2817451432021263
tp2115
a(((S'NN'
p2116
S'cone'
p2117
tp2118
(S'NN'
p2119
S'centre'
p2120
tp2121
tp2122
F-1.2950310206390325
tp2123
a(((S'NNS'
p2124
S'cone'
p2125
tp2126
(S'VV'
p2127
S'develop'
p2128
tp2129
tp2130
F-1.3148268115607749
tp2131
a(((S'NNS'
p2132
S'depression'
p2133
tp2134
(S'NP'
p2135
S'crater'
p2136
tp2137
tp2138
F-1.345475225775959
tp2139
a(((S'NNS'
p2140
S'thousand'
p2141
tp2142
(S'NN'
p2143
S'basalt'
p2144
tp2145
tp2146
F-1.3489961284118892
tp2147
a(((S'NN'
p2148
S'crater'
p2149
tp2150
(S'VV'
p2151
S'direct'
p2152
tp2153
tp2154
F-1.3560080577016342
tp2155
a(((S'NN'
p2156
S'debris'
p2157
tp2158
(S'NNS'
p2159
S'field'
p2160
tp2161
tp2162
F-1.3607118232130606
tp2163
a(((S'NN'
p2164
S'debris'
p2165
tp2166
(S'NN'
p2167
S'field'
p2168
tp2169
tp2170
F-1.3607118232130606
tp2171
a(((S'VV'
p2172
S'shoot'
p2173
tp2174
(S'NN'
p2175
S'crater'
p2176
tp2177
tp2178
F-1.3692234055169827
tp2179
a(((S'NN'
p2180
S'ice'
p2181
tp2182
(S'NN'
p2183
S'debris'
p2184
tp2185
tp2186
F-1.3856853455082663
tp2187
a(((S'NN'
p2188
S'nature'
p2189
tp2190
(S'NN'
p2191
S'cone'
p2192
tp2193
tp2194
F-1.3971451448632652
tp2195
a(((S'NN'
p2196
S'm'
p2197
tp2198
(S'NN'
p2199
S'debris'
p2200
tp2201
tp2202
F-1.3976343354626204
tp2203
a(((S'NNS'
p2204
S'flank'
p2205
tp2206
(S'NN'
p2207
S'cone'
p2208
tp2209
tp2210
F-1.4025732002757854
tp2211
a(((S'NNS'
p2212
S'hole'
p2213
tp2214
(S'NN'
p2215
S'crater'
p2216
tp2217
tp2218
F-1.4157507909664315
tp2219
a(((S'VV'
p2220
S'measure'
p2221
tp2222
(S'NN'
p2223
S'debris'
p2224
tp2225
tp2226
F-1.4567166836733156
tp2227
a(((S'NN'
p2228
S'debris'
p2229
tp2230
(S'NNS'
p2231
S'fragment'
p2232
tp2233
tp2234
F-1.4583472804221955
tp2235
a(((S'NN'
p2236
S'ash'
p2237
tp2238
(S'NNS'
p2239
S'cinder'
p2240
tp2241
tp2242
F-1.4813977152065694
tp2243
a(((S'NNS'
p2244
S'material'
p2245
tp2246
(S'NN'
p2247
S'debris'
p2248
tp2249
tp2250
F-1.5003714965654102
tp2251
a(((S'NN'
p2252
S'cone'
p2253
tp2254
(S'NNS'
p2255
S'metre'
p2256
tp2257
tp2258
F-1.5102043655590438
tp2259
a(((S'NNS'
p2260
S'metre'
p2261
tp2262
(S'NN'
p2263
S'cone'
p2264
tp2265
tp2266
F-1.5243863148758
tp2267
a(((S'VV'
p2268
S'expose'
p2269
tp2270
(S'NN'
p2271
S'crater'
p2272
tp2273
tp2274
F-1.526930790366678
tp2275
a(((S'NN'
p2276
S'cone'
p2277
tp2278
(S'NN'
p2279
S'right'
p2280
tp2281
tp2282
F-1.5451552911354758
tp2283
a(((S'NN'
p2284
S'debris'
p2285
tp2286
(S'NNS'
p2287
S'slope'
p2288
tp2289
tp2290
F-1.5811786618100425
tp2291
a(((S'NN'
p2292
S'debris'
p2293
tp2294
(S'NNS'
p2295
S'layer'
p2296
tp2297
tp2298
F-1.5855500282274044
tp2299
a(((S'NN'
p2300
S'start'
p2301
tp2302
(S'NN'
p2303
S'debris'
p2304
tp2305
tp2306
F-1.5896266766101386
tp2307
a(((S'NNS'
p2308
S'layer'
p2309
tp2310
g1275
tp2311
F-1.5896266766101386
tp2312
a(((S'NN'
p2313
S'cone'
p2314
tp2315
(S'NN'
p2316
S'today'
p2317
tp2318
tp2319
F-1.621531744678456
tp2320
a(((S'NNS'
p2321
S'cone'
p2322
tp2323
(S'VV'
p2324
S'turn'
p2325
tp2326
tp2327
F-1.6381050789966536
tp2328
a(((S'NNS'
p2329
S'deposit'
p2330
tp2331
(S'NN'
p2332
S'debris'
p2333
tp2334
tp2335
F-1.6817829177430417
tp2336
a(((S'NN'
p2337
S'crater'
p2338
tp2339
(S'VV'
p2340
S'collect'
p2341
tp2342
tp2343
F-1.6838052550720408
tp2344
a(((S'NNS'
p2345
S'crater'
p2346
tp2347
(S'NN'
p2348
S'glacier'
p2349
tp2350
tp2351
F-1.7210471541284718
tp2352
a(((S'NNS'
p2353
S'event'
p2354
tp2355
(S'NN'
p2356
S'debris'
p2357
tp2358
tp2359
F-1.7512163416108528
tp2360
a(((S'NNS'
p2361
S'cut'
p2362
tp2363
(S'NNS'
p2364
S'crater'
p2365
tp2366
tp2367
F-1.769316085012082
tp2368
a(((S'NN'
p2369
S'crater'
p2370
tp2371
(S'NN'
p2372
S'helicopter'
p2373
tp2374
tp2375
F-1.7756434566093298
tp2376
a(((S'NN'
p2377
S'group'
p2378
tp2379
g1887
tp2380
F-1.7813305467309037
tp2381
a(((S'NN'
p2382
S'debris'
p2383
tp2384
(S'VV'
p2385
S'generate'
p2386
tp2387
tp2388
F-1.7994515296590925
tp2389
a(((S'NP'
p2390
S'crater'
p2391
tp2392
(S'NN'
p2393
S'pit'
p2394
tp2395
tp2396
F-1.8288202939816594
tp2397
a(((S'NN'
p2398
S'crater'
p2399
tp2400
(S'NN'
p2401
S'pit'
p2402
tp2403
tp2404
F-1.8288202939816594
tp2405
a(((S'NN'
p2406
S'edge'
p2407
tp2408
(S'NN'
p2409
S'crater'
p2410
tp2411
tp2412
F-1.8331359334867714
tp2413
a(((S'NN'
p2414
S'helicopter'
p2415
tp2416
(S'NN'
p2417
S'crater'
p2418
tp2419
tp2420
F-1.8438839921843213
tp2421
a(((S'NN'
p2422
S'level'
p2423
tp2424
(S'NN'
p2425
S'cone'
p2426
tp2427
tp2428
F-1.8462160871599618
tp2429
a(((S'NN'
p2430
S'debris'
p2431
tp2432
(S'NN'
p2433
S'air'
p2434
tp2435
tp2436
F-1.8481908606782258
tp2437
a(((S'NNS'
p2438
S'hawaii'
p2439
tp2440
(S'NN'
p2441
S'basalt'
p2442
tp2443
tp2444
F-1.8590329540572335
tp2445
a(((S'NN'
p2446
S'stay'
p2447
tp2448
(S'NN'
p2449
S'crater'
p2450
tp2451
tp2452
F-1.8687239324398555
tp2453
a(((S'NN'
p2454
S'type'
p2455
tp2456
(S'NN'
p2457
S'debris'
p2458
tp2459
tp2460
F-1.87743031082224
tp2461
a(((S'VV'
p2462
S'pour'
p2463
tp2464
(S'NN'
p2465
S'crater'
p2466
tp2467
tp2468
F-1.8801779460724057
tp2469
a(((S'NN'
p2470
S'crater'
p2471
tp2472
(S'NNS'
p2473
S'wall'
p2474
tp2475
tp2476
F-1.885144522856312
tp2477
a(((S'NNS'
p2478
S'well'
p2479
tp2480
(S'NN'
p2481
S'crater'
p2482
tp2483
tp2484
F-1.8980914607545045
tp2485
a(((S'NN'
p2486
S'drop'
p2487
tp2488
(S'NN'
p2489
S'crater'
p2490
tp2491
tp2492
F-1.8980914607545045
tp2493
a(((S'NN'
p2494
S'debris'
p2495
tp2496
(S'NNS'
p2497
S'thousand'
p2498
tp2499
tp2500
F-1.9017683274595887
tp2501
a(((S'VV'
p2502
S'destroy'
p2503
tp2504
(S'NN'
p2505
S'cone'
p2506
tp2507
tp2508
F-1.91198837598529
tp2509
a(((S'NN'
p2510
S'crater'
p2511
tp2512
(S'NN'
p2513
S'formation'
p2514
tp2515
tp2516
F-1.9145638025612388
tp2517
a(((S'NN'
p2518
S'smoke'
p2519
tp2520
(S'NN'
p2521
S'crater'
p2522
tp2523
tp2524
F-1.915854272458961
tp2525
a(((S'NN'
p2526
S'material'
p2527
tp2528
(S'NN'
p2529
S'debris'
p2530
tp2531
tp2532
F-1.9292493389370557
tp2533
a(((S'NNS'
p2534
S'basalt'
p2535
tp2536
(S'VV'
p2537
S'come'
p2538
tp2539
tp2540
F-1.9414696781054017
tp2541
a(((S'NN'
p2542
S'trip'
p2543
tp2544
(S'NN'
p2545
S'crater'
p2546
tp2547
tp2548
F-1.9509417754416096
tp2549
a(((S'NN'
p2550
S'wall'
p2551
tp2552
(S'NN'
p2553
S'crater'
p2554
tp2555
tp2556
F-1.9697743554151574
tp2557
a(((S'NN'
p2558
S'debris'
p2559
tp2560
(S'NNS'
p2561
S'result'
p2562
tp2563
tp2564
F-1.976993707465724
tp2565
a(((S'NN'
p2566
S'debris'
p2567
tp2568
(S'NN'
p2569
S'collapse'
p2570
tp2571
tp2572
F-1.9826804709853525
tp2573
a(((S'NN'
p2574
S'path'
p2575
tp2576
g1879
tp2577
F-2.036255083539689
tp2578
a((g1063
(S'VV'
p2579
S'expect'
p2580
tp2581
tp2582
F-2.107667404386959
tp2583
a(((S'NNS'
p2584
S'cone'
p2585
tp2586
(S'VV'
p2587
S'generate'
p2588
tp2589
tp2590
F-2.1098293232446075
tp2591
a(((S'NNS'
p2592
S'term'
p2593
tp2594
g2400
tp2595
F-2.1184190354616192
tp2596
a(((S'NN'
p2597
S'rim'
p2598
tp2599
(S'NNS'
p2600
S'crater'
p2601
tp2602
tp2603
F-2.128733844407127
tp2604
a(((S'NNS'
p2605
S'crater'
p2606
tp2607
(S'NN'
p2608
S'period'
p2609
tp2610
tp2611
F-2.138329451136006
tp2612
a(((S'NN'
p2613
S'ash'
p2614
tp2615
(S'NN'
p2616
S'debris'
p2617
tp2618
tp2619
F-2.1502658149254605
tp2620
a(((S'NN'
p2621
S'debris'
p2622
tp2623
(S'NN'
p2624
S'dome'
p2625
tp2626
tp2627
F-2.1946624656887606
tp2628
a(((S'NN'
p2629
S'crater'
p2630
tp2631
(S'NN'
p2632
S'mineral'
p2633
tp2634
tp2635
F-2.2133064409316585
tp2636
a(((S'NN'
p2637
S'debris'
p2638
tp2639
(S'NN'
p2640
S'ground'
p2641
tp2642
tp2643
F-2.236026863433374
tp2644
a(((S'NN'
p2645
S'snow'
p2646
tp2647
(S'NN'
p2648
S'crater'
p2649
tp2650
tp2651
F-2.2593387915062517
tp2652
a(((S'NN'
p2653
S'reservoir'
p2654
tp2655
(S'NN'
p2656
S'crater'
p2657
tp2658
tp2659
F-2.2744941471793383
tp2660
a(((S'NNS'
p2661
S'cone'
p2662
tp2663
(S'NN'
p2664
S'result'
p2665
tp2666
tp2667
F-2.302056986554259
tp2668
a(((S'NN'
p2669
S'case'
p2670
tp2671
(S'NNS'
p2672
S'crater'
p2673
tp2674
tp2675
F-2.304524968094069
tp2676
a(((S'NN'
p2677
S'cone'
p2678
tp2679
(S'VV'
p2680
S'collapse'
p2681
tp2682
tp2683
F-2.3082250074965307
tp2684
a(((S'NN'
p2685
S'debris'
p2686
tp2687
(S'NN'
p2688
S'slope'
p2689
tp2690
tp2691
F-2.3317599188974136
tp2692
a((g331
(S'NNS'
p2693
S'minute'
p2694
tp2695
tp2696
F-2.356758549914723
tp2697
a(((S'NN'
p2698
S'cone'
p2699
tp2700
(S'VV'
p2701
S'build'
p2702
tp2703
tp2704
F-2.3811585466230523
tp2705
a(((S'VV'
p2706
S'build'
p2707
tp2708
g1937
tp2709
F-2.384017065886558
tp2710
a(((S'NNS'
p2711
S'visit'
p2712
tp2713
(S'NNS'
p2714
S'crater'
p2715
tp2716
tp2717
F-2.406858181038139
tp2718
a(((S'NN'
p2719
S'stop'
p2720
tp2721
(S'NP'
p2722
S'crater'
p2723
tp2724
tp2725
F-2.421144195611548
tp2726
a(((S'NN'
p2727
S'crater'
p2728
tp2729
(S'NN'
p2730
S'lake'
p2731
tp2732
tp2733
F-2.4303534095230193
tp2734
a(((S'NN'
p2735
S'crater'
p2736
tp2737
(S'NN'
p2738
S'center'
p2739
tp2740
tp2741
F-2.47938296783169
tp2742
a(((S'NN'
p2743
S'life'
p2744
tp2745
(S'NNS'
p2746
S'cone'
p2747
tp2748
tp2749
F-2.48749065380286
tp2750
a(((S'NN'
p2751
S'light'
p2752
tp2753
(S'NN'
p2754
S'crater'
p2755
tp2756
tp2757
F-2.4914106361637063
tp2758
a(((S'VV'
p2759
S'break'
p2760
tp2761
(S'NN'
p2762
S'crater'
p2763
tp2764
tp2765
F-2.502190803548954
tp2766
a(((S'NN'
p2767
S'cone'
p2768
tp2769
(S'NN'
p2770
S'cone'
p2771
tp2772
tp2773
F-2.504341582770677
tp2774
a(((S'NN'
p2775
S'crater'
p2776
tp2777
(S'NNS'
p2778
S'kilometre'
p2779
tp2780
tp2781
F-2.5190431433964755
tp2782
a(((S'NN'
p2783
S'center'
p2784
tp2785
(S'NN'
p2786
S'crater'
p2787
tp2788
tp2789
F-2.5598445982968254
tp2790
a(((S'NNS'
p2791
S'kilometre'
p2792
tp2793
(S'NN'
p2794
S'crater'
p2795
tp2796
tp2797
F-2.600081001068111
tp2798
a(((S'NNS'
p2799
S'wall'
p2800
tp2801
(S'NN'
p2802
S'crater'
p2803
tp2804
tp2805
F-2.607645749189713
tp2806
a(((S'NN'
p2807
S'debris'
p2808
tp2809
(S'NN'
p2810
S'town'
p2811
tp2812
tp2813
F-2.6278365088910305
tp2814
a(((S'VV'
p2815
S'make'
p2816
tp2817
(S'NN'
p2818
S'cone'
p2819
tp2820
tp2821
F-2.6566971732455174
tp2822
a(((S'NN'
p2823
S'slope'
p2824
tp2825
(S'NN'
p2826
S'cone'
p2827
tp2828
tp2829
F-2.683031665451472
tp2830
a(((S'NN'
p2831
S'floor'
p2832
tp2833
(S'NN'
p2834
S'crater'
p2835
tp2836
tp2837
F-2.742780163967866
tp2838
a(((S'NN'
p2839
S'summit'
p2840
tp2841
(S'NN'
p2842
S'cone'
p2843
tp2844
tp2845
F-2.744386387014352
tp2846
a(((S'NN'
p2847
S'inside'
p2848
tp2849
(S'NN'
p2850
S'crater'
p2851
tp2852
tp2853
F-2.7957405857148534
tp2854
a(((S'NN'
p2855
S'west'
p2856
tp2857
(S'NN'
p2858
S'crater'
p2859
tp2860
tp2861
F-2.817688562209563
tp2862
a(((S'NNS'
p2863
S'break'
p2864
tp2865
g1118
tp2866
F-2.8299875115511623
tp2867
a(((S'NNS'
p2868
S'crater'
p2869
tp2870
(S'NNS'
p2871
S'site'
p2872
tp2873
tp2874
F-2.841426419286998
tp2875
a(((S'NN'
p2876
S'cone'
p2877
tp2878
(S'VV'
p2879
S'rise'
p2880
tp2881
tp2882
F-2.8767051307391345
tp2883
a(((S'NNS'
p2884
S'meter'
p2885
tp2886
(S'NN'
p2887
S'crater'
p2888
tp2889
tp2890
F-2.9027243182613547
tp2891
a(((S'NN'
p2892
S'tube'
p2893
tp2894
(S'NP'
p2895
S'crater'
p2896
tp2897
tp2898
F-2.91467650030692
tp2899
a(((S'NN'
p2900
S'point'
p2901
tp2902
(S'NN'
p2903
S'crater'
p2904
tp2905
tp2906
F-2.91467650030692
tp2907
a(((S'NNS'
p2908
S'point'
p2909
tp2910
(S'NN'
p2911
S'crater'
p2912
tp2913
tp2914
F-2.91467650030692
tp2915
a(((S'NNS'
p2916
S'wall'
p2917
tp2918
(S'NNS'
p2919
S'crater'
p2920
tp2921
tp2922
F-2.926581446076991
tp2923
a(((S'NN'
p2924
S'cone'
p2925
tp2926
(S'NN'
p2927
S'caldera'
p2928
tp2929
tp2930
F-2.92727005581647
tp2931
a(((S'NN'
p2932
S'crater'
p2933
tp2934
(S'NN'
p2935
S'fissure'
p2936
tp2937
tp2938
F-2.9861352249384834
tp2939
a(((S'NN'
p2940
S'foot'
p2941
tp2942
(S'NN'
p2943
S'cone'
p2944
tp2945
tp2946
F-2.994991792129487
tp2947
a(((S'VVP'
p2948
S'crater'
p2949
tp2950
(S'VV'
p2951
S'monitor'
p2952
tp2953
tp2954
F-3.001787054172215
tp2955
a(((S'NN'
p2956
S'today'
p2957
tp2958
(S'NN'
p2959
S'crater'
p2960
tp2961
tp2962
F-3.0086378112624685
tp2963
a(((S'NN'
p2964
S'turn'
p2965
tp2966
(S'NP'
p2967
S'crater'
p2968
tp2969
tp2970
F-3.0316866786316203
tp2971
a(((S'NN'
p2972
S'team'
p2973
tp2974
(S'NNS'
p2975
S'crater'
p2976
tp2977
tp2978
F-3.0316866786316203
tp2979
a(((S'NNS'
p2980
S'area'
p2981
tp2982
(S'NN'
p2983
S'debris'
p2984
tp2985
tp2986
F-3.0353432096798327
tp2987
a(((S'NN'
p2988
S'summit'
p2989
tp2990
(S'NNS'
p2991
S'cone'
p2992
tp2993
tp2994
F-3.047152302462513
tp2995
a(((S'NN'
p2996
S'cone'
p2997
tp2998
(S'NN'
p2999
S't'
p3000
tp3001
tp3002
F-3.0505447746520025
tp3003
a(((S'NN'
p3004
S'crater'
p3005
tp3006
(S'NNS'
p3007
S'lake'
p3008
tp3009
tp3010
F-3.069365909021219
tp3011
a(((S'NN'
p3012
S'm'
p3013
tp3014
(S'NN'
p3015
S'crater'
p3016
tp3017
tp3018
F-3.0772811684511345
tp3019
a(((S'NN'
p3020
S'km'
p3021
tp3022
(S'NN'
p3023
S'crater'
p3024
tp3025
tp3026
F-3.0772811684511345
tp3027
a(((S'NN'
p3028
S'basalt'
p3029
tp3030
(S'NNS'
p3031
S'form'
p3032
tp3033
tp3034
F-3.097390208184512
tp3035
a(((S'NN'
p3036
S'view'
p3037
tp3038
(S'NN'
p3039
S'crater'
p3040
tp3041
tp3042
F-3.1444667772318295
tp3043
a(((S'NN'
p3044
S'crater'
p3045
tp3046
(S'NN'
p3047
S'p'
p3048
tp3049
tp3050
F-3.1652911054229307
tp3051
a(((S'NNS'
p3052
S'fragment'
p3053
tp3054
(S'NN'
p3055
S'crater'
p3056
tp3057
tp3058
F-3.1775405933844745
tp3059
a(((S'NN'
p3060
S'movement'
p3061
tp3062
(S'NN'
p3063
S'crater'
p3064
tp3065
tp3066
F-3.188490864920494
tp3067
a(((S'VV'
p3068
S'grow'
p3069
tp3070
(S'NN'
p3071
S'crater'
p3072
tp3073
tp3074
F-3.2427009240816327
tp3075
a(((S'NN'
p3076
S'debris'
p3077
tp3078
(S'NNS'
p3079
S'mile'
p3080
tp3081
tp3082
F-3.308437013890611
tp3083
a(((S'NN'
p3084
S'day'
p3085
tp3086
(S'NNS'
p3087
S'cone'
p3088
tp3089
tp3090
F-3.3521249805343563
tp3091
a(((S'NN'
p3092
S'day'
p3093
tp3094
(S'NN'
p3095
S'cone'
p3096
tp3097
tp3098
F-3.3521249805343563
tp3099
a((g2523
(S'VV'
p3100
S'force'
p3101
tp3102
tp3103
F-3.4317152111318627
tp3104
a(((S'NN'
p3105
S'gas'
p3106
tp3107
(S'NN'
p3108
S'debris'
p3109
tp3110
tp3111
F-3.436542619538616
tp3112
a(((S'NN'
p3113
S'cone'
p3114
tp3115
(S'NN'
p3116
S'mountain'
p3117
tp3118
tp3119
F-3.4414947047598
tp3120
a(((S'NN'
p3121
S'activity'
p3122
tp3123
(S'NN'
p3124
S'cone'
p3125
tp3126
tp3127
F-3.49282081514354
tp3128
a(((S'NN'
p3129
S'crater'
p3130
tp3131
(S'NNS'
p3132
S'month'
p3133
tp3134
tp3135
F-3.548492562892045
tp3136
a(((S'VV'
p3137
S'close'
p3138
tp3139
(S'NN'
p3140
S'crater'
p3141
tp3142
tp3143
F-3.570597809829741
tp3144
a(((S'NN'
p3145
S'river'
p3146
tp3147
(S'NN'
p3148
S'crater'
p3149
tp3150
tp3151
F-3.5817533677862987
tp3152
a(((S'NN'
p3153
S'rock'
p3154
tp3155
(S'NN'
p3156
S'debris'
p3157
tp3158
tp3159
F-3.6288929930553104
tp3160
a(((S'NN'
p3161
S'debris'
p3162
tp3163
(S'NNS'
p3164
S'flow'
p3165
tp3166
tp3167
F-3.664301985803917
tp3168
a(((S'NN'
p3169
S'basalt'
p3170
tp3171
(S'NN'
p3172
S'rock'
p3173
tp3174
tp3175
F-3.694408065311899
tp3176
a(((S'NNS'
p3177
S'rock'
p3178
tp3179
(S'NN'
p3180
S'basalt'
p3181
tp3182
tp3183
F-3.706464228395947
tp3184
a(((S'NN'
p3185
S'debris'
p3186
tp3187
(S'NN'
p3188
S'water'
p3189
tp3190
tp3191
F-3.7310345220609107
tp3192
a(((S'NN'
p3193
S'debris'
p3194
tp3195
(S'NN'
p3196
S'crater'
p3197
tp3198
tp3199
F-3.76128988227379
tp3200
a(((S'NN'
p3201
S'air'
p3202
tp3203
(S'NN'
p3204
S'crater'
p3205
tp3206
tp3207
F-3.770575147066317
tp3208
a(((S'NN'
p3209
S'crater'
p3210
tp3211
(S'NNS'
p3212
S'week'
p3213
tp3214
tp3215
F-3.781208277098887
tp3216
a(((S'NN'
p3217
S'debris'
p3218
tp3219
(S'NNS'
p3220
S'gas'
p3221
tp3222
tp3223
F-3.784695407241123
tp3224
a(((S'NN'
p3225
S'basalt'
p3226
tp3227
(S'NN'
p3228
S'flow'
p3229
tp3230
tp3231
F-3.8111909296792916
tp3232
a((g840
(S'NNS'
p3233
S'flow'
p3234
tp3235
tp3236
F-3.8111909296792916
tp3237
a(((S'NN'
p3238
S'look'
p3239
tp3240
(S'NN'
p3241
S'crater'
p3242
tp3243
tp3244
F-3.825820173481501
tp3245
a(((S'VV'
p3246
S'form'
p3247
tp3248
(S'NN'
p3249
S'debris'
p3250
tp3251
tp3252
F-3.845614155340509
tp3253
a(((S'NN'
p3254
S'crater'
p3255
tp3256
(S'NNS'
p3257
S'flank'
p3258
tp3259
tp3260
F-3.896312689063655
tp3261
a((g981
(S'NN'
p3262
S'year'
p3263
tp3264
tp3265
F-3.925080318083695
tp3266
a(((S'NN'
p3267
S'rock'
p3268
tp3269
(S'NN'
p3270
S'basalt'
p3271
tp3272
tp3273
F-3.9470301484119554
tp3274
a(((S'NN'
p3275
S'debris'
p3276
tp3277
(S'VV'
p3278
S'form'
p3279
tp3280
tp3281
F-3.9520723351144693
tp3282
a(((S'NN'
p3283
S'way'
p3284
tp3285
g1945
tp3286
F-3.9760891993481393
tp3287
a(((S'NN'
p3288
S'collapse'
p3289
tp3290
(S'NN'
p3291
S'crater'
p3292
tp3293
tp3294
F-3.9782375946586788
tp3295
a(((S'NN'
p3296
S'surface'
p3297
tp3298
(S'NN'
p3299
S'cone'
p3300
tp3301
tp3302
F-3.9823378301996297
tp3303
a(((S'NN'
p3304
S'crater'
p3305
tp3306
(S'NN'
p3307
S'crust'
p3308
tp3309
tp3310
F-4.027360206519429
tp3311
a(((S'NNS'
p3312
S'cone'
p3313
tp3314
(S'NNS'
p3315
S'crater'
p3316
tp3317
tp3318
F-4.028160858985151
tp3319
a(((S'NNS'
p3320
S'flow'
p3321
tp3322
(S'NN'
p3323
S'basalt'
p3324
tp3325
tp3326
F-4.037481286881583
tp3327
a(((S'NNS'
p3328
S'crater'
p3329
tp3330
(S'NN'
p3331
S'place'
p3332
tp3333
tp3334
F-4.1036567943148174
tp3335
a(((S'NN'
p3336
S'crater'
p3337
tp3338
(S'NN'
p3339
S'place'
p3340
tp3341
tp3342
F-4.1036567943148174
tp3343
a(((S'VV'
p3344
S'live'
p3345
tp3346
(S'NN'
p3347
S'crater'
p3348
tp3349
tp3350
F-4.116597539388332
tp3351
a(((S'NNS'
p3352
S'foot'
p3353
tp3354
g432
tp3355
F-4.116668845756158
tp3356
a(((S'NNS'
p3357
S'crater'
p3358
tp3359
(S'NNS'
p3360
S'flank'
p3361
tp3362
tp3363
F-4.128808713719717
tp3364
a(((S'NN'
p3365
S'earth'
p3366
tp3367
g1797
tp3368
F-4.13966669977886
tp3369
a(((S'NNS'
p3370
S'crater'
p3371
tp3372
(S'NN'
p3373
S'life'
p3374
tp3375
tp3376
F-4.145500985768632
tp3377
a(((S'NN'
p3378
S'crater'
p3379
tp3380
(S'NN'
p3381
S'cone'
p3382
tp3383
tp3384
F-4.170427675455139
tp3385
a(((S'NN'
p3386
S'time'
p3387
tp3388
(S'NNS'
p3389
S'cone'
p3390
tp3391
tp3392
F-4.170427675455139
tp3393
a(((S'NP'
p3394
S'crater'
p3395
tp3396
(S'NN'
p3397
S'cone'
p3398
tp3399
tp3400
F-4.170427675455139
tp3401
a(((S'NNS'
p3402
S'flank'
p3403
tp3404
(S'NN'
p3405
S'crater'
p3406
tp3407
tp3408
F-4.2174211427945
tp3409
a((g2852
(S'NN'
p3410
S'dome'
p3411
tp3412
tp3413
F-4.219887452672236
tp3414
a((g1792
(S'NN'
p3415
S'crater'
p3416
tp3417
tp3418
F-4.258733519895749
tp3419
a(((S'NN'
p3420
S'summit'
p3421
tp3422
(S'NNS'
p3423
S'crater'
p3424
tp3425
tp3426
F-4.276063192712727
tp3427
a(((S'NP'
p3428
S'basalt'
p3429
tp3430
(S'NNS'
p3431
S'flow'
p3432
tp3433
tp3434
F-4.283617962317807
tp3435
a(((S'NN'
p3436
S'debris'
p3437
tp3438
(S'NN'
p3439
S'ash'
p3440
tp3441
tp3442
F-4.302745186406524
tp3443
a(((S'NN'
p3444
S'dome'
p3445
tp3446
(S'NN'
p3447
S'crater'
p3448
tp3449
tp3450
F-4.307790358986856
tp3451
a(((S'NNS'
p3452
S'explosion'
p3453
tp3454
g1219
tp3455
F-4.332112373838996
tp3456
a(((S'NN'
p3457
S'form'
p3458
tp3459
(S'NNS'
p3460
S'cone'
p3461
tp3462
tp3463
F-4.363514098353744
tp3464
a(((S'VV'
p3465
S'form'
p3466
tp3467
(S'NN'
p3468
S'cone'
p3469
tp3470
tp3471
F-4.363514098353744
tp3472
a(((S'NN'
p3473
S'crater'
p3474
tp3475
(S'NNS'
p3476
S'change'
p3477
tp3478
tp3479
F-4.467672071879496
tp3480
a(((S'VV'
p3481
S'make'
p3482
tp3483
(S'NN'
p3484
S'crater'
p3485
tp3486
tp3487
F-4.483114625424396
tp3488
a(((S'NN'
p3489
S'slope'
p3490
tp3491
g280
tp3492
F-4.522020855449841
tp3493
a(((S'VV'
p3494
S'occur'
p3495
tp3496
g3359
tp3497
F-4.560597743398713
tp3498
a(((S'NN'
p3499
S'crater'
p3500
tp3501
(S'NN'
p3502
S'summit'
p3503
tp3504
tp3505
F-4.59387272937297
tp3506
a((g688
(S'NN'
p3507
S'flow'
p3508
tp3509
tp3510
F-4.621274148128934
tp3511
a((g2145
(S'NN'
p3512
S'lava'
p3513
tp3514
tp3515
F-4.640407497964104
tp3516
a(((S'NN'
p3517
S'lake'
p3518
tp3519
(S'NN'
p3520
S'crater'
p3521
tp3522
tp3523
F-4.644347400648741
tp3524
a(((S'NN'
p3525
S'caldera'
p3526
tp3527
(S'NN'
p3528
S'crater'
p3529
tp3530
tp3531
F-4.661304527510525
tp3532
a(((S'NN'
p3533
S'caldera'
p3534
tp3535
(S'NP'
p3536
S'crater'
p3537
tp3538
tp3539
F-4.661304527510525
tp3540
a(((S'NN'
p3541
S'magma'
p3542
tp3543
g2432
tp3544
F-4.679463507668987
tp3545
a((g2555
(S'VV'
p3546
S'produce'
p3547
tp3548
tp3549
F-4.718819499384042
tp3550
a(((S'NNS'
p3551
S'crater'
p3552
tp3553
(S'NN'
p3554
S'caldera'
p3555
tp3556
tp3557
F-4.785318005369189
tp3558
a(((S'NN'
p3559
S'crater'
p3560
tp3561
(S'NN'
p3562
S'caldera'
p3563
tp3564
tp3565
F-4.785318005369189
tp3566
a(((S'NP'
p3567
S'crater'
p3568
tp3569
(S'NN'
p3570
S'caldera'
p3571
tp3572
tp3573
F-4.785318005369189
tp3574
a(((S'NNS'
p3575
S'crater'
p3576
tp3577
(S'NNS'
p3578
S'caldera'
p3579
tp3580
tp3581
F-4.785318005369189
tp3582
a(((S'NNS'
p3583
S'crater'
p3584
tp3585
(S'NN'
p3586
S'summit'
p3587
tp3588
tp3589
F-4.7905853430822765
tp3590
a(((S'NNS'
p3591
S'rock'
p3592
tp3593
g3078
tp3594
F-4.798461208892264
tp3595
a(((S'NN'
p3596
S'summit'
p3597
tp3598
(S'VVZ'
p3599
S'crater'
p3600
tp3601
tp3602
F-4.866429961856645
tp3603
a((g3470
(S'NN'
p3604
S'ash'
p3605
tp3606
tp3607
F-4.904520815507012
tp3608
a(((S'NN'
p3609
S'crater'
p3610
tp3611
(S'NN'
p3612
S'day'
p3613
tp3614
tp3615
F-5.276231528436665
tp3616
a(((S'NNS'
p3617
S'year'
p3618
tp3619
(S'NN'
p3620
S'cone'
p3621
tp3622
tp3623
F-5.3474231537982115
tp3624
a(((S'NN'
p3625
S'vent'
p3626
tp3627
(S'NN'
p3628
S'crater'
p3629
tp3630
tp3631
F-5.378109331756956
tp3632
a(((S'NN'
p3633
S'crater'
p3634
tp3635
(S'NN'
p3636
S'vent'
p3637
tp3638
tp3639
F-5.497013832388371
tp3640
a(((S'NNS'
p3641
S'day'
p3642
tp3643
g544
tp3644
F-5.52048636757583
tp3645
a(((S'NNS'
p3646
S'vent'
p3647
tp3648
g3256
tp3649
F-5.558478514944684
tp3650
a(((S'NNS'
p3651
S'rock'
p3652
tp3653
(S'NN'
p3654
S'cone'
p3655
tp3656
tp3657
F-5.637530950162402
tp3658
a((g1031
(S'NN'
p3659
S'area'
p3660
tp3661
tp3662
F-5.6391948452421685
tp3663
a(((S'NP'
p3664
S'crater'
p3665
tp3666
(S'NN'
p3667
S'area'
p3668
tp3669
tp3670
F-5.6391948452421685
tp3671
a(((S'NN'
p3672
S'area'
p3673
tp3674
(S'NN'
p3675
S'crater'
p3676
tp3677
tp3678
F-5.695623027011311
tp3679
a(((S'NNS'
p3680
S'mile'
p3681
tp3682
(S'NN'
p3683
S'crater'
p3684
tp3685
tp3686
F-5.8495764321238815
tp3687
a(((S'NN'
p3688
S'basalt'
p3689
tp3690
(S'NNS'
p3691
S'lava'
p3692
tp3693
tp3694
F-5.880696467153583
tp3695
a(((S'NN'
p3696
S'crater'
p3697
tp3698
(S'NN'
p3699
S'mountain'
p3700
tp3701
tp3702
F-5.927435488829499
tp3703
a(((S'NN'
p3704
S'cone'
p3705
tp3706
(S'NNS'
p3707
S'flow'
p3708
tp3709
tp3710
F-6.059905983819791
tp3711
a((g3530
(S'NNS'
p3712
S'mile'
p3713
tp3714
tp3715
F-6.143451357349004
tp3716
a(((S'NN'
p3717
S'surface'
p3718
tp3719
(S'NN'
p3720
S'crater'
p3721
tp3722
tp3723
F-6.161818625459977
tp3724
a(((S'NNS'
p3725
S'crater'
p3726
tp3727
(S'NNS'
p3728
S'scientist'
p3729
tp3730
tp3731
F-6.4384128940884136
tp3732
a(((S'NP'
p3733
S'crater'
p3734
tp3735
(S'NN'
p3736
S'surface'
p3737
tp3738
tp3739
F-6.455665308389379
tp3740
a(((S'NN'
p3741
S'mile'
p3742
tp3743
(S'NN'
p3744
S'crater'
p3745
tp3746
tp3747
F-6.474060818796072
tp3748
a(((S'NN'
p3749
S'crater'
p3750
tp3751
(S'NN'
p3752
S'time'
p3753
tp3754
tp3755
F-6.610645763968023
tp3756
a(((S'NN'
p3757
S'crater'
p3758
tp3759
(S'NN'
p3760
S'crater'
p3761
tp3762
tp3763
F-6.760439724481761
tp3764
a((g1047
(S'VV'
p3765
S'form'
p3766
tp3767
tp3768
F-6.789153930674899
tp3769
a(((S'NNS'
p3770
S'crater'
p3771
tp3772
(S'VV'
p3773
S'form'
p3774
tp3775
tp3776
F-6.932956546428057
tp3777
a(((S'NN'
p3778
S'lava'
p3779
tp3780
g1007
tp3781
F-6.952665369501322
tp3782
a(((S'VV'
p3783
S'form'
p3784
tp3785
(S'NP'
p3786
S'crater'
p3787
tp3788
tp3789
F-7.055117954597186
tp3790
a(((S'NN'
p3791
S'volcano'
p3792
tp3793
(S'NN'
p3794
S'basalt'
p3795
tp3796
tp3797
F-7.3119802050424205
tp3798
a((g411
(S'NN'
p3799
S'lava'
p3800
tp3801
tp3802
F-7.626683022607695
tp3803
a(((S'NN'
p3804
S'eruption'
p3805
tp3806
(S'NN'
p3807
S'debris'
p3808
tp3809
tp3810
F-7.827590000746021
tp3811
a(((S'NN'
p3812
S'ash'
p3813
tp3814
(S'NN'
p3815
S'crater'
p3816
tp3817
tp3818
F-7.926658857031444
tp3819
a(((S'NN'
p3820
S's'
p3821
tp3822
(S'NP'
p3823
S'debris'
p3824
tp3825
tp3826
F-7.989794735500512
tp3827
a(((S'NNS'
p3828
S'crater'
p3829
tp3830
(S'NN'
p3831
S'ash'
p3832
tp3833
tp3834
F-8.030036801877632
tp3835
a(((S'NN'
p3836
S's'
p3837
tp3838
(S'NN'
p3839
S'cone'
p3840
tp3841
tp3842
F-8.308867070362474
tp3843
a(((S'NN'
p3844
S'cone'
p3845
tp3846
(S'NN'
p3847
S'lava'
p3848
tp3849
tp3850
F-8.711694873940873
tp3851
a(((S'NNS'
p3852
S'eruption'
p3853
tp3854
(S'NNS'
p3855
S'cone'
p3856
tp3857
tp3858
F-8.937010228966273
tp3859
a(((S'NN'
p3860
S'volcano'
p3861
tp3862
(S'NN'
p3863
S'debris'
p3864
tp3865
tp3866
F-9.117332156043704
tp3867
a((g3243
(S'NN'
p3868
S'rock'
p3869
tp3870
tp3871
F-9.14707145336871
tp3872
a(((S'NN'
p3873
S'flow'
p3874
tp3875
(S'NN'
p3876
S'crater'
p3877
tp3878
tp3879
F-9.201465825321057
tp3880
a(((S'NNS'
p3881
S'flow'
p3882
tp3883
g1403
tp3884
F-9.201465825321057
tp3885
a(((S'NN'
p3886
S'debris'
p3887
tp3888
(S'NN'
p3889
S'eruption'
p3890
tp3891
tp3892
F-9.270071792930825
tp3893
a(((S'NN'
p3894
S'volcano'
p3895
tp3896
g1539
tp3897
F-10.238044149931063
tp3898
a(((S'NNS'
p3899
S'volcano'
p3900
tp3901
(S'NNS'
p3902
S'cone'
p3903
tp3904
tp3905
F-10.238044149931063
tp3906
a(((S'NN'
p3907
S'cone'
p3908
tp3909
(S'NN'
p3910
S's'
p3911
tp3912
tp3913
F-10.449568866339186
tp3914
a(((S'NN'
p3915
S'debris'
p3916
tp3917
(S'NN'
p3918
S'volcano'
p3919
tp3920
tp3921
F-11.309948508852127
tp3922
a(((S'NN'
p3923
S'lava'
p3924
tp3925
(S'NN'
p3926
S'crater'
p3927
tp3928
tp3929
F-12.397187508162908
tp3930
a(((S'NN'
p3931
S's'
p3932
tp3933
(S'NN'
p3934
S'crater'
p3935
tp3936
tp3937
F-12.894963093448647
tp3938
a(((S'NNS'
p3939
S'crater'
p3940
tp3941
(S'NN'
p3942
S'lava'
p3943
tp3944
tp3945
F-13.52394296648507
tp3946
a(((S'NNS'
p3947
S's'
p3948
tp3949
g272
tp3950
F-14.055328781263919
tp3951
a(((S'NNS'
p3952
S'eruption'
p3953
tp3954
(S'NNS'
p3955
S'crater'
p3956
tp3957
tp3958
F-14.13594344759465
tp3959
a(((S'NNS'
p3960
S'eruption'
p3961
tp3962
(S'NN'
p3963
S'crater'
p3964
tp3965
tp3966
F-14.13594344759465
tp3967
a(((S'NN'
p3968
S'eruption'
p3969
tp3970
g2512
tp3971
F-14.13594344759465
tp3972
a(((S'NNS'
p3973
S'eruption'
p3974
tp3975
(S'NP'
p3976
S'crater'
p3977
tp3978
tp3979
F-14.13594344759465
tp3980
a(((S'NN'
p3981
S's'
p3982
tp3983
(S'NP'
p3984
S'crater'
p3985
tp3986
tp3987
F-14.200374492240828
tp3988
a(((S'NN'
p3989
S's'
p3990
tp3991
(S'VVZ'
p3992
S'crater'
p3993
tp3994
tp3995
F-14.200374492240828
tp3996
a((g1728
(S'NN'
p3997
S's'
p3998
tp3999
tp4000
F-15.377187338394984
tp4001
a(((S'NN'
p4002
S'volcano'
p4003
tp4004
(S'NN'
p4005
S'crater'
p4006
tp4007
tp4008
F-16.038413340312225
tp4009
a(((S'NN'
p4010
S'crater'
p4011
tp4012
(S'NN'
p4013
S'eruption'
p4014
tp4015
tp4016
F-16.083795867582708
tp4017
a(((S'NNS'
p4018
S'volcano'
p4019
tp4020
(S'NN'
p4021
S'crater'
p4022
tp4023
tp4024
F-16.16597061256453
tp4025
a(((S'NN'
p4026
S'volcano'
p4027
tp4028
(S'NNS'
p4029
S'crater'
p4030
tp4031
tp4032
F-16.16597061256453
tp4033
a(((S'NN'
p4034
S'volcano'
p4035
tp4036
g464
tp4037
F-16.16597061256453
tp4038
a(((S'NN'
p4039
S'crater'
p4040
tp4041
(S'NNS'
p4042
S's'
p4043
tp4044
tp4045
F-16.185251970794127
tp4046
a(((S'NN'
p4047
S'crater'
p4048
tp4049
(S'NN'
p4050
S'volcano'
p4051
tp4052
tp4053
F-19.182664066383825
tp4054
a.