(dp0
S'eruption'
p1
(dp2
sS'scoria'
p3
(dp4
sS'gas'
p5
(dp6
S'crater'
p7
F-12.914574282852927
ssS'dome'
p8
(dp9
S'crater'
p10
F-8.364082400976597
ssS'lava'
p11
(dp12
sS'basalt'
p13
(dp14
S'flow'
p15
F-8.32956898405191
sS'describe'
p16
F-1.2181510263440432
sS'vary'
p17
F-0.9823115855987178
sS'examine'
p18
F-0.36686729334680024
sS'create'
p19
F-2.8595610940560743
sS'fill'
p20
F-2.071768211481903
sS'suggest'
p21
F-2.3392004080231454
sS'make'
p22
F-3.8207743509806753
sS'tend'
p23
F-1.451472745089873
sS'spread'
p24
F-1.9717280014056653
sS'begin'
p25
F-4.3461762939346595
sS'hit'
p26
F-1.594982292633288
sS'form'
p27
F-6.202478526308599
sS'reach'
p28
F-3.0613480354922133
sS'produce'
p29
F-4.063865687888028
sS'accumulate'
p30
F-0.6192605203889083
sS'generate'
p31
F-3.1005598082866204
sS'cool'
p32
F-2.9651751081775726
sS'consist'
p33
F-0.9519084537103331
sS'cover'
p34
F-2.6684278498427676
sS'say'
p35
F-8.212718040319054
sS'remain'
p36
F-3.2374831115664238
sS'ooze'
p37
F-0.8335509921559832
sS'enter'
p38
F-1.056341602657963
sS'explain'
p39
F-1.8590329540572335
ssS'magma'
p40
(dp41
sS'debris'
p42
(dp43
S'compare'
p44
F-2.0074407702111565
sS'steepen'
p45
F1.2364942676040527
sS'show'
p46
F-4.674619377380583
sS'move'
p47
F-3.6501749428609838
sS'avalanche'
p48
F-2.906346569446912
sS'want'
p49
F-2.6585536206723717
sS'carry'
p50
F-2.731350706988037
sS'occur'
p51
F-4.882084798210975
sS'monitor'
p52
F-3.32924729574788
sS'mix'
p53
F-1.7418914415288071
sS'send'
p54
F-3.3996696214844473
sS'generate'
p55
F-3.9671806553812177
sS'indicate'
p56
F-2.830237205933334
sS'destroy'
p57
F-3.6501749428609838
sS'include'
p58
F-4.331320767561537
sS'roll'
p59
F-1.1391560550296547
sS'locate'
p60
F-2.226839475396617
sS'fall'
p61
F-3.936533062351928
sg30
F-1.093059064631976
sS'believe'
p62
F-3.411268107802773
sS'come'
p63
F-5.102498200253977
sS'throw'
p64
F-1.8062696735162136
sS'flow'
p65
F-10.231334001514375
sS'clown'
p66
F0.7819218699666635
sS's'
p67
F-15.114088831819695
sS'contain'
p68
F-3.3770616638935747
sS'rework'
p69
F1.5834980915890617
ssS'fountain'
p70
(dp71
sS'cone'
p72
(dp73
S'represent'
p74
F-0.49254052143546817
sS'strengthen'
p75
F0.24270449256254772
sS'exist'
p76
F-1.6707086266923878
sS'measure'
p77
F-3.859546544104267
sS'disappear'
p78
F-1.0824592857063204
sS'fill'
p79
F-3.1214333268387278
sS'lie'
p80
F-3.578635369832609
sS'develop'
p81
F-3.2120028363880384
sS'raise'
p82
F-1.7256229595798758
sS'sit'
p83
F-2.2688267598472867
sS'suggest'
p84
F-3.4660594009535286
sS'create'
p85
F-4.158954391333143
sS'continue'
p86
F-4.428306228722635
sS'build'
p87
F-4.164646024386765
sS'cool'
p88
F-4.301420278095976
sS'encircle'
p89
F0.39004800953531993
sS'reflect'
p90
F-1.7256229595798758
sS'wear'
p91
F-1.0636279454344721
sS'appear'
p92
F-3.7014574236107105
sS'loom'
p93
F-0.44327937867535605
sS'consist'
p94
F-1.2667616558982706
sS'signal'
p95
F-2.096866309931239
sS'drop'
p96
F-2.424753734516091
sS'turn'
p97
F-3.7014574236107105
sS'slide'
p98
F-3.0416978677097863
sS'settle'
p99
F-1.6100584725669855
sS'comprise'
p100
F-0.15187511758557845
sS'display'
p101
F-1.4889564253370775
sS'dot'
p102
F-1.1591170607398902
sS'mean'
p103
F-2.5528511613228875
ssS'vesicle'
p104
(dp105
sS'tephra'
p106
(dp107
sS'cinder'
p108
(dp109
S'look'
p110
F-1.7635974317122662
sg83
F0.11712287337768498
sS'fall'
p111
F-1.6654757470623938
sS'break'
p112
F-1.1375257917914854
sS'flood'
p113
F-1.0618652097689523
sS'solidify'
p114
F-0.6312759771907689
sS'contain'
p115
F-1.3453538615847862
sS'refer'
p116
F0.41843835242074995
ssS'crater'
p117
(dp118
S'reside'
p119
F-0.7913080487341804
sS'bathe'
p120
F-0.3222842588872297
sS'exceed'
p121
F-0.9954785038389814
sS'conclude'
p122
F-2.061219813444303
sS'emanate'
p123
F-0.6640309722695764
sS'imply'
p124
F-0.742711404842045
sS'flatten'
p125
F-2.1742281621646606
sS'prevent'
p126
F-2.247623224550918
sS'occupy'
p127
F-1.750236236814903
sS'overlook'
p128
F-1.1501854105476967
sS'paint'
p129
F-1.742931440777758
sS'roll'
p130
F-2.7173695962798132
sS'refer'
p131
F-2.346190277842203
sS'hover'
p132
F-0.9074741016300975
sS'beat'
p133
F-0.36196981478438717
sS'roam'
p134
F-0.52249894965333
sS'conquer'
p135
F0.34678050237027447
sS'overflow'
p136
F-1.742931440777758
sS'interpret'
p137
F-2.3940525398735995
sS'remember'
p138
F-2.0025268861732513
sS'tunnel'
p139
F-2.196803835785844
sS'coat'
p140
F-1.611207039056881
sS'originate'
p141
F-1.8801779460724057
sS'hike'
p142
F-2.890724346586898
sS'nestle'
p143
F0.052440258307944417
sS'flare'
p144
F0.7752735590397415
sS'let'
p145
F-2.790026269170516
sS'yell'
p146
F-0.52249894965333
sS'honor'
p147
F-0.17480703622653337
sS'dot'
p148
F-2.297398707609
ssS'volcan'
p149
(dp150
s.