(dp0
S'basalte'
p1
(dp2
S'parfum'
p3
F3.3756697498825177
sS'portugal'
p4
F2.9079648557000297
sS'p\xc3\xa9rennit\xc3\xa9'
p5
F5.395702480303562
sS'grotte'
p6
F2.1930087674479783
sS'phonolite'
p7
F4.0868292805039905
sS'gravier'
p8
F6.533681602148464
sS'arabesque'
p9
F6.680927473890907
sS'mat\xc3\xa9riau'
p10
F2.725957500183003
sS'nappage'
p11
F9.552376797218347
sS'lemptegy'
p12
F4.620010566992964
sS'clocher'
p13
F3.68721038811216
sS'm\xc3\xa9sostase'
p14
F5.394841564441321
sS'promontoire'
p15
F6.680927473890907
sS'arte'
p16
F4.085699840749131
sS'barre'
p17
F2.724400173975349
sS'ocre'
p18
F2.906476120643966
sS'and\xc3\xa9site'
p19
F1.9995124526972994
sS'affleurement'
p20
F3.3743403748560246
sS'noi'
p21
F9.552790950561146
sS'strate'
p22
F3.1195949293317886
sS'\xc3\xa9clatement'
p23
F6.681604868589469
sS'mesa'
p24
F9.552790950561146
sS'tuf'
p25
F2.191230981986543
sS'coirons'
p26
F5.395702480303562
sS'rhyolite'
p27
F4.112280504281388
sS'granule'
p28
F5.394841564441321
sS'antrim'
p29
F9.552790950561146
sS'colonne'
p30
F2.591397528091177
sS'coussin'
p31
F2.567840592182381
sS'couloir'
p32
F2.906476120643966
ssS't\xc3\xa9phra'
p33
(dp34
sS'gaz'
p35
(dp36
S'crat\xc3\xa8re'
p37
F-6.218224446586983
sS'basalte'
p38
F-2.1736825193132
sS'd\xc3\xa9bris'
p39
F-1.3122921529781983
ssS'fontaine'
p40
(dp41
sS'lave'
p42
(dp43
S'c\xc3\xb4ne'
p44
F-4.403439208811177
sS'crat\xc3\xa8re'
p45
F-9.330604853323662
sS'basalte'
p46
F-3.5896668776188205
sS'd\xc3\xa9bris'
p47
F-2.3110736517288095
ssS'cendre'
p48
(dp49
S'c\xc3\xb4ne'
p50
F-2.8381243867226322
sS'crat\xc3\xa8re'
p51
F-6.15028801449313
sS'scorie'
p52
F-0.33280541472320063
sS'd\xc3\xa9bris'
p53
F0.8998734315249225
ssS'magma'
p54
(dp55
S'c\xc3\xb4ne'
p56
F-2.668635524091234
sS'crat\xc3\xa8re'
p57
F-5.738029666043668
ssS'scorie'
p58
(dp59
S'projection'
p60
F1.1257810244955997
sS'basalte'
p61
F0.7919932806540472
sS'tas'
p62
F5.499499098125205
sS'second'
p63
F1.0528555884959694
sS'bulle de gaz'
p64
F3.154342009915549
sS'moraine'
p65
F4.80561071110574
sS'surtsey'
p66
F2.5436181424261144
sS'\xc3\xa9mission'
p67
F0.6398293956830515
sS'santorin'
p68
F1.381729570268136
sS'bloc'
p69
F0.4156451001257397
sS'd\xc3\xa9sert'
p70
F1.8847379091263083
sS'nom'
p71
F0.3558494605299454
sS'vidange'
p72
F6.567063300956823
sS'fragment'
p73
F5.407030533763714
sS'barrage'
p74
F6.248331495000271
sS'amas'
p75
F4.103984665915398
sS'signaler'
p76
F2.4295385446864755
sS'sill'
p77
F8.554964492269386
sS'bombe'
p78
F2.00784392690222
sS'd\xc3\xa9truire'
p79
F0.5211317616580186
sS'arch\xc3\xa9ologue'
p80
F3.76424417894509
sS'cendres'
p81
F13.282803057800471
sS'c\xc3\xb4ne de cendre'
p82
F5.499499098125205
sS'monceau'
p83
F10.524573080357586
sS'c\xc3\xb4ne'
p84
F1.4617358741612965
sS'auvergne'
p85
F0.3057302789119223
sS'relief'
p86
F1.4213499657979136
sS'cendre'
p87
F1.512097980510109
sS'champ'
p88
F0.5094520963801528
sS'accumulation'
p89
F2.277214717595619
ssS'c\xc3\xb4ne'
p90
(dp91
S'crevasse'
p92
F1.2345756397083736
sS'puuoo'
p93
F1.8586588244345563
sS'fugendake'
p94
F4.170466764040007
sS'br\xc3\xa8che'
p95
F1.3024730935995246
sS'paricutin'
p96
F1.7449189029932595
sS'jardin'
p97
F1.0038273545710628
sS'arri\xc3\xa8re-plan'
p98
F1.8586588244345563
sS'km\xc2\xb2'
p99
F1.7413174626546937
sS'panorama'
p100
F2.1430735106993404
sS'ext\xc3\xa9rieur'
p101
F0.7787495091416743
sS'fjord'
p102
F2.786841810404995
sS'tolbachik'
p103
F2.7894291724899074
sS'croissance'
p104
F0.7397006349682921
sS'multitude'
p105
F1.7413174626546937
sS'beaut\xc3\xa9'
p106
F0.5661460330790293
sS'fuji-san'
p107
F7.4882069247602
sS'strato-volcans'
p108
F2.3198737467098782
sS'scorie'
p109
F1.4617358741612965
sS'ruapehu'
p110
F1.3797260672000695
sS'\xc3\xa9dification'
p111
F2.1430735106993404
sS'formation'
p112
F0.5230785634493825
sS'argile'
p113
F1.3797260672000695
sS'\xc3\xa9difier'
p114
F0.5983245287781579
sS'somma'
p115
F3.1120313865457
sS'phl\xc3\xa9gr\xc3\xa9ens'
p116
F2.5300817587311575
sS'caillou'
p117
F1.6362899554126318
sS'vi.19'
p118
F7.4882069247602
sS'bouchon'
p119
F1.238847980542243
sS'portion'
p120
F1.6362899554126318
sS'succession'
p121
F1.0038273545710628
ssS'd\xc3\xb4me'
p122
(dp123
S'c\xc3\xb4ne'
p124
F-0.8124589647533261
sS'crat\xc3\xa8re'
p125
F-3.400417829339054
ssS'\xc3\xa9ruption'
p126
(dp127
S'c\xc3\xb4ne'
p128
F-5.049266503447979
sS'crat\xc3\xa8re'
p129
F-10.769730886216536
ssS'd\xc3\xa9bris'
p130
(dp131
S'singapour'
p132
F6.367966860845406
sS'point'
p133
F-0.86135835823904
sS'taille'
p134
F1.9437486394238432
sS'surface'
p135
F-1.0964007206793622
sS'd\xc3\xa9sagr\xc3\xa9ger'
p136
F7.397489043021853
sS'avalanche'
p137
F2.9106080578131084
sS'volcan'
p138
F-3.6311040894128443
sS'poussi\xc3\xa8re'
p139
F0.5998282126297859
sS'jusqu'
p140
F-0.8102351547365493
sS'lave'
p141
F-2.3110736517288095
sS'effet'
p142
F-0.634525703318561
sS'cristaux'
p143
F0.9979154559657935
sS'roche'
p144
F5.10324146177861
sS'\xc3\xa9peron'
p145
F6.368359664397695
sS'juin'
p146
F-0.17013053919982007
sS'bloc'
p147
F0.12548167440855032
sS'couvrir'
p148
F0.8548169297742818
sS'abri'
p149
F2.0080360355799547
sS'atlantide'
p150
F1.6088778564091242
sS'explosion'
p151
F-0.6889493003972346
sS'gaz'
p152
F-1.3122921529781983
sS'dalle'
p153
F2.4946031394479227
sS'terre'
p154
F-1.5753856845105694
sS'produit'
p155
F0.7563835605523384
sS'flot'
p156
F1.4285961933448126
sS'coul\xc3\xa9e'
p157
F-1.3122921529781983
sS'plante'
p158
F1.7503611618858896
sS'cendre'
p159
F0.8998734315249225
sS'b\xc3\xa9ton'
p160
F3.340375564850877
ssS'crat\xc3\xa8re'
p161
(dp162
S'kawah'
p163
F2.46963098479442
sS'stigmate'
p164
F3.6519909639766563
sS'reinhard'
p165
F3.6519909639766563
sS'adrar'
p166
F3.645431494992931
sS'chahal\xc3\xa9'
p167
F3.645431494992931
sS'hverfjall'
p168
F3.6519909639766563
sS'viti'
p169
F5.164676509898532
sS'vall\xc3\xa8s'
p170
F3.6519909639766563
sS'unzen-dake'
p171
F3.6519909639766563
sS'bord'
p172
F3.26235510299838
sS'nyiragongo'
p173
F3.942723416917475
sS'gouttes;'
p174
F3.6519909639766563
sS'nuova'
p175
F4.05655395770422
sS'rang\xc3\xa9e'
p176
F3.645431494992931
sS'm\xc3\xa9decin-explorateur'
p177
F3.6519909639766563
sS'd\xc3\xa9coupe'
p178
F3.645431494992931
sS'puuoo'
p179
F2.6856457655638275
sS'ljotipollur'
p180
F3.645431494992931
sS'ros\xc3\xa9e'
p181
F3.645431494992931
sS'kelud'
p182
F4.6706534321323
sS'aouelloul'
p183
F3.6519909639766563
sS'enclos;'
p184
F3.6519909639766563
sS'bromo'
p185
F4.263994820032499
sS'etang'
p186
F4.802529396270071
sS'commerson'
p187
F3.6519909639766563
sS'carmichael'
p188
F3.6519909639766563
sS'ngorongoro'
p189
F3.1398637899279422
sS'couvre-chef'
p190
F3.6519909639766563
sS'fondeur'
p191
F3.645431494992931
sS'<#sv-9-6>'
p192
F3.6519909639766563
ssS'volcan'
p193
(dp194
S'c\xc3\xb4ne'
p195
F-7.582816818629232
sS'crat\xc3\xa8re'
p196
F-13.75457628550699
sS'd\xc3\xa9bris'
p197
F-3.6311040894128443
ssS'v\xc3\xa9sicule'
p198
(dp199
s.