(dp0
(S'basalt'
p1
S'basalte'
p2
tp3
(dp4
S'Source'
p5
I12
sS'coll'
p6
(lp7
(S'create'
p8
S'former'
p9
tp10
a(S'create'
p11
S'former'
p12
tp13
a(S'create'
p14
S'former'
p15
tp16
a(S'create'
p17
S'former'
p18
tp19
a(S'create'
p20
S'former'
p21
tp22
a(S'create'
p23
S'former'
p24
tp25
a(S'make'
p26
S'former'
p27
tp28
a(S'make'
p29
S'former'
p30
tp31
a(S'make'
p32
S'former'
p33
tp34
a(S'form'
p35
S'former'
p36
tp37
a(S'form'
p38
S'former'
p39
tp40
a(S'form'
p41
S'former'
p42
tp43
a(S'form'
p44
S'former'
p45
tp46
a(S'form'
p47
S'former'
p48
tp49
a(S'form'
p50
S'former'
p51
tp52
a(S'form'
p53
S'former'
p54
tp55
a(S'form'
p56
S'former'
p57
tp58
a(S'form'
p59
S'former'
p60
tp61
a(S'form'
p62
S'former'
p63
tp64
a(S'form'
p65
S'former'
p66
tp67
asS'Cible'
p68
I8
ss.