(dp0
(S'basalt'
p1
S'basalte'
p2
S'create'
p3
S'former'
p4
tp5
(dp6
S'Source'
p7
(lp8
S'fluid basalt will more commonly move down slope by creating its own channelways above gently sloping terrains , or by flowing down in pre-existing stream channels'
p9
aS'17 million years ago , huge molten-basalt flows from a hot spot created the columbia plateau in oregon and washington'
p10
asS'Cible'
p11
(lp12
S'l \xc3\xa9clogite , quant \xc3\xa0 elle , se formerait lorsque le plancher de basalte des oc\xc3\xa9ans , recycl\xc3\xa9 par la subduction , recristallise dans le manteau elle serait , par cons\xc3\xa9quent , moins abondante'
p13
aS'les fonds oc\xc3\xa9aniques , qui repr\xc3\xa9sentent 60 % de la surface du globe , sont form\xc3\xa9s de basalte'
p14
aS'en effet , la roche-m\xc3\xa8re de ces diamants , l \xc3\xa9clogite , se forme lorsque les basaltes du plancher oc\xc3\xa9anique s enfoncent dans le manteau , sous les plaques continentales'
p15
ass(S'basalt'
p16
S'basalte'
p17
S'make'
p18
S'former'
p19
tp20
(dp21
g7
(lp22
S'the islands of hawaii are made of basalt , a rock that consist of the minerals olivine , pyroxene , and plagioclase , and is relatively rich in iron and magnesium and poor in silica'
p23
aS'on the other hand , if an oceanic plate made of dense basalt hits a low-density continental plate then the former will plunge underneath , pushing back into the hot , convecting mantle'
p24
aS'basalt is dark volcanic rock made up of small crystals and glass , whereas dacite , while also glassy or fine-grained , generally is much lighter in color'
p25
asg11
(lp26
S'l \xc3\xa9clogite , quant \xc3\xa0 elle , se formerait lorsque le plancher de basalte des oc\xc3\xa9ans , recycl\xc3\xa9 par la subduction , recristallise dans le manteau elle serait , par cons\xc3\xa9quent , moins abondante'
p27
aS'les fonds oc\xc3\xa9aniques , qui repr\xc3\xa9sentent 60 % de la surface du globe , sont form\xc3\xa9s de basalte'
p28
aS'en effet , la roche-m\xc3\xa8re de ces diamants , l \xc3\xa9clogite , se forme lorsque les basaltes du plancher oc\xc3\xa9anique s enfoncent dans le manteau , sous les plaques continentales'
p29
ass(S'basalt'
p30
S'basalte'
p31
S'create'
p32
S'cr\xc3\xa9er'
p33
tp34
(dp35
g7
(lp36
S'fluid basalt will more commonly move down slope by creating its own channelways above gently sloping terrains , or by flowing down in pre-existing stream channels'
p37
aS'17 million years ago , huge molten-basalt flows from a hot spot created the columbia plateau in oregon and washington'
p38
asg11
(lp39
ss(S'basalt'
p40
S'basalte'
p41
S'generate'
p42
S'cr\xc3\xa9er'
p43
tp44
(dp45
g7
(lp46
S'episodic melting of the mantle rocks beneath the highland crust generated the younger mare basalts'
p47
aS'basalt exiting from lava tubes can also generate littoral cones from episodic explosions due to disruption of the lava stream by incoming waves or swells'
p48
aS'decompressional melting of this hot mantle source can generate huge volumes of basalt magma'
p49
aS'shield volcanoes , for example , generate low-viscosity basalts associated with calm , effusive eruptions'
p50
asg11
(lp51
ss(S'basalt'
p52
S'basalte'
p53
S'produce'
p54
S'cr\xc3\xa9er'
p55
tp56
(dp57
g7
(lp58
S'as the hot asthenosphere rises to shallow levels , it decompresses and melts to produce basalt magmas'
p59
aS'scoria cones are generated by strombolian eruptions , which produce eruptive columns of basalt tephra generally only a few hundred meters high'
p60
aS'thread-lace scoria , also called reticulite , is produced by extreme vesiculation of basalt , resulting in scoria with bubble walls as thin as thread'
p61
aS'mafic magma will cool and crystallize to produce the volcanic rock basalt , whereas felsic magma will crystallize to produce dacite and rhyolite'
p62
aS'the columbia river basalts cover parts of the states of oregon , washington , and idaho and are a famous example of flood basalts that produced a lava plain'
p63
aS'the laki eruptions produced about 14 cubic kilometers of basalt thin , black , fluid lava during more than eight months of activity'
p64
asg11
(lp65
ss(S'basalt'
p66
S'basalte'
p67
S'form'
p68
S'former'
p69
tp70
(dp71
g7
(lp72
S'where the melt forms from a subducted plate , basalt-magma blobs rise up against the underside of the continental crust'
p73
aS'the large scale of the tharsis shield volcanoes suggests that they formed from massive eruptions of fluid basalt over prolonged periods of time'
p74
aS'massive fissure eruptions in the geological past have generated extraordinarily voluminous lava flows that form large continental flood basalt provinces'
p75
aS'hall rested rocks in a hot iron foundry and showed that molten basalt forms crystals if cooled slowly'
p76
aS'the hexagonal columns of fingal s cave in scotland were formed by flood basalts , which can spill from fissures in the crust to form plateaus hundreds of feet deep'
p77
aS'since komatiites were discovered in 1969 , the prevailing theory held that they formed , like the basalt lavas common today , at shallow depths and low pressures'
p78
aS'23 catherine hickson above examines columns of basalt formed from cooling lava about 10,000 years ago near today s whistler , b.c'
p79
asg11
(lp80
S'l \xc3\xa9clogite , quant \xc3\xa0 elle , se formerait lorsque le plancher de basalte des oc\xc3\xa9ans , recycl\xc3\xa9 par la subduction , recristallise dans le manteau elle serait , par cons\xc3\xa9quent , moins abondante'
p81
aS'les fonds oc\xc3\xa9aniques , qui repr\xc3\xa9sentent 60 % de la surface du globe , sont form\xc3\xa9s de basalte'
p82
aS'en effet , la roche-m\xc3\xa8re de ces diamants , l \xc3\xa9clogite , se forme lorsque les basaltes du plancher oc\xc3\xa9anique s enfoncent dans le manteau , sous les plaques continentales'
p83
ass(S'basalt'
p84
S'basalte'
p85
S'form'
p86
S'cr\xc3\xa9er'
p87
tp88
(dp89
g7
(lp90
S'where the melt forms from a subducted plate , basalt-magma blobs rise up against the underside of the continental crust'
p91
aS'the large scale of the tharsis shield volcanoes suggests that they formed from massive eruptions of fluid basalt over prolonged periods of time'
p92
aS'massive fissure eruptions in the geological past have generated extraordinarily voluminous lava flows that form large continental flood basalt provinces'
p93
aS'hall rested rocks in a hot iron foundry and showed that molten basalt forms crystals if cooled slowly'
p94
aS'the hexagonal columns of fingal s cave in scotland were formed by flood basalts , which can spill from fissures in the crust to form plateaus hundreds of feet deep'
p95
aS'since komatiites were discovered in 1969 , the prevailing theory held that they formed , like the basalt lavas common today , at shallow depths and low pressures'
p96
aS'23 catherine hickson above examines columns of basalt formed from cooling lava about 10,000 years ago near today s whistler , b.c'
p97
asg11
(lp98
ss.