(lp0
(((S'NOM'
p1
S'basalte'
p2
tp3
(S'VER:simp'
p4
S'pillow-lavas'
p5
tp6
tp7
F1.2766721872876918
tp8
a(((S'VER:subp'
p9
S'pointer'
p10
tp11
(S'NOM'
p12
S'basalte'
p13
tp14
tp15
F1.016271951643776
tp16
a(((S'VER:subi'
p17
S'lame'
p18
tp19
(S'NOM'
p20
S'basalte'
p21
tp22
tp23
F0.650669455071378
tp24
a(((S'NOM'
p25
S'basalte'
p26
tp27
(S'VER:simp'
p28
S'\xc3\xa9pancher'
p29
tp30
tp31
F-0.4861393497528063
tp32
a(((S'VER:subp'
p33
S'durer'
p34
tp35
(S'NOM'
p36
S'basalte'
p37
tp38
tp39
F-1.090901549913865
tp40
a(((S'VER:simp'
p41
S'cr\xc3\xa9er'
p42
tp43
(S'NOM'
p44
S'basalte'
p45
tp46
tp47
F-1.5850608312789085
tp48
a(((S'VER:cond'
p49
S'former'
p50
tp51
(S'NOM'
p52
S'basalte'
p53
tp54
tp55
F-3.3738450517741607
tp56
a(((S'NOM'
p57
S'basalte'
p58
tp59
(S'VER:cond'
p60
S'devoir'
p61
tp62
tp63
F-4.0828576126249105
tp64
a.