(dp0
S'basalt'
p1
(dp2
S'flow'
p3
F-8.32956898405191
sS'describe'
p4
F-1.2181510263440432
sS'vary'
p5
F-0.9823115855987178
sS'examine'
p6
F-0.36686729334680024
sS'create'
p7
F-2.8595610940560743
sS'fill'
p8
F-2.071768211481903
sS'suggest'
p9
F-2.3392004080231454
sS'make'
p10
F-3.8207743509806753
sS'tend'
p11
F-1.451472745089873
sS'spread'
p12
F-1.9717280014056653
sS'begin'
p13
F-4.3461762939346595
sS'hit'
p14
F-1.594982292633288
sS'form'
p15
F-6.202478526308599
sS'reach'
p16
F-3.0613480354922133
sS'produce'
p17
F-4.063865687888028
sS'accumulate'
p18
F-0.6192605203889083
sS'generate'
p19
F-3.1005598082866204
sS'cool'
p20
F-2.9651751081775726
sS'consist'
p21
F-0.9519084537103331
sS'cover'
p22
F-2.6684278498427676
sS'say'
p23
F-8.212718040319054
sS'remain'
p24
F-3.2374831115664238
sS'ooze'
p25
F-0.8335509921559832
sS'enter'
p26
F-1.056341602657963
sS'explain'
p27
F-1.8590329540572335
ss.