(dp0
S'basalte'
p1
(dp2
S'lame'
p3
F0.650669455071378
sS'pointer'
p4
F1.016271951643776
sS'devoir'
p5
F-4.0828576126249105
sS'pillow-lavas'
p6
F1.2766721872876918
sS'former'
p7
F-3.3738450517741607
sS'\xc3\xa9pancher'
p8
F-0.4861393497528063
sS'cr\xc3\xa9er'
p9
F-1.5850608312789085
sS'durer'
p10
F-1.090901549913865
ss.