(lp0
(((S'VVZ'
p1
S'examine'
p2
tp3
(S'NN'
p4
S'basalt'
p5
tp6
tp7
F-0.36686729334680024
tp8
a(((S'NN'
p9
S'basalt'
p10
tp11
(S'VVP'
p12
S'accumulate'
p13
tp14
tp15
F-0.6192605203889083
tp16
a(((S'NN'
p17
S'basalt'
p18
tp19
(S'VVZ'
p20
S'ooze'
p21
tp22
tp23
F-0.8335509921559832
tp24
a(((S'NN'
p25
S'basalt'
p26
tp27
(S'VVP'
p28
S'consist'
p29
tp30
tp31
F-0.9519084537103331
tp32
a(((S'VVZ'
p33
S'vary'
p34
tp35
(S'NN'
p36
S'basalt'
p37
tp38
tp39
F-0.9823115855987178
tp40
a(((S'NNS'
p41
S'basalt'
p42
tp43
(S'VVZ'
p44
S'enter'
p45
tp46
tp47
F-1.056341602657963
tp48
a(((S'NN'
p49
S'basalt'
p50
tp51
g46
tp52
F-1.056341602657963
tp53
a(((S'NNS'
p54
S'basalt'
p55
tp56
(S'VVZ'
p57
S'describe'
p58
tp59
tp60
F-1.2181510263440432
tp61
a(((S'NN'
p62
S'basalt'
p63
tp64
(S'VVP'
p65
S'tend'
p66
tp67
tp68
F-1.451472745089873
tp69
a(((S'NN'
p70
S'basalt'
p71
tp72
(S'VVZ'
p73
S'hit'
p74
tp75
tp76
F-1.594982292633288
tp77
a(((S'VVZ'
p78
S'explain'
p79
tp80
(S'NN'
p81
S'basalt'
p82
tp83
tp84
F-1.8590329540572335
tp85
a(((S'NN'
p86
S'basalt'
p87
tp88
(S'VVZ'
p89
S'spread'
p90
tp91
tp92
F-1.9717280014056653
tp93
a(((S'NN'
p94
S'basalt'
p95
tp96
(S'VVZ'
p97
S'fill'
p98
tp99
tp100
F-2.071768211481903
tp101
a(((S'VVP'
p102
S'suggest'
p103
tp104
(S'NN'
p105
S'basalt'
p106
tp107
tp108
F-2.3392004080231454
tp109
a(((S'VVP'
p110
S'suggest'
p111
tp112
(S'NNS'
p113
S'basalt'
p114
tp115
tp116
F-2.3392004080231454
tp117
a(((S'NN'
p118
S'basalt'
p119
tp120
(S'VVZ'
p121
S'cover'
p122
tp123
tp124
F-2.6684278498427676
tp125
a(((S'NNS'
p126
S'basalt'
p127
tp128
(S'VVP'
p129
S'cover'
p130
tp131
tp132
F-2.6684278498427676
tp133
a(((S'VVZ'
p134
S'create'
p135
tp136
(S'NN'
p137
S'basalt'
p138
tp139
tp140
F-2.8595610940560743
tp141
a(((S'VVZ'
p142
S'cool'
p143
tp144
(S'NN'
p145
S'basalt'
p146
tp147
tp148
F-2.9651751081775726
tp149
a(((S'NN'
p150
S'basalt'
p151
tp152
(S'VVZ'
p153
S'reach'
p154
tp155
tp156
F-3.0613480354922133
tp157
a(((S'VVP'
p158
S'generate'
p159
tp160
(S'NN'
p161
S'basalt'
p162
tp163
tp164
F-3.1005598082866204
tp165
a(((S'NN'
p166
S'basalt'
p167
tp168
(S'VVZ'
p169
S'remain'
p170
tp171
tp172
F-3.2374831115664238
tp173
a(((S'NNS'
p174
S'basalt'
p175
tp176
(S'VVP'
p177
S'make'
p178
tp179
tp180
F-3.8207743509806753
tp181
a(((S'VVP'
p182
S'produce'
p183
tp184
(S'NN'
p185
S'basalt'
p186
tp187
tp188
F-4.063865687888028
tp189
a(((S'VVZ'
p190
S'begin'
p191
tp192
(S'NN'
p193
S'basalt'
p194
tp195
tp196
F-4.3461762939346595
tp197
a(((S'VVZ'
p198
S'form'
p199
tp200
(S'NN'
p201
S'basalt'
p202
tp203
tp204
F-6.01693545620781
tp205
a(((S'NN'
p206
S'basalt'
p207
tp208
(S'VVZ'
p209
S'form'
p210
tp211
tp212
F-6.202478526308599
tp213
a(((S'VVP'
p214
S'say'
p215
tp216
(S'NN'
p217
S'basalt'
p218
tp219
tp220
F-8.212718040319054
tp221
a(((S'NN'
p222
S'basalt'
p223
tp224
(S'VVZ'
p225
S'flow'
p226
tp227
tp228
F-8.32956898405191
tp229
a.