(dp0
(S'scoria'
p1
S'scorie'
p2
tp3
(dp4
S'Source'
p5
I20
sS'coll'
p6
(lp7
(S'cone'
p8
S'c\xc3\xb4ne'
p9
tp10
a(S'cone'
p11
S'c\xc3\xb4ne'
p12
tp13
a(S'cone'
p14
S'c\xc3\xb4ne'
p15
tp16
a(S'cone'
p17
S'c\xc3\xb4ne'
p18
tp19
a(S'cone'
p20
S'c\xc3\xb4ne'
p21
tp22
a(S'cone'
p23
S'c\xc3\xb4ne'
p24
tp25
a(S'cone'
p26
S'c\xc3\xb4ne'
p27
tp28
a(S'cone'
p29
S'c\xc3\xb4ne'
p30
tp31
a(S'cone'
p32
S'c\xc3\xb4ne'
p33
tp34
a(S'cone'
p35
S'c\xc3\xb4ne'
p36
tp37
a(S'cone'
p38
S'c\xc3\xb4ne'
p39
tp40
a(S'cone'
p41
S'c\xc3\xb4ne'
p42
tp43
a(S'cone'
p44
S'c\xc3\xb4ne'
p45
tp46
a(S'cone'
p47
S'c\xc3\xb4ne'
p48
tp49
a(S'cone'
p50
S'c\xc3\xb4ne'
p51
tp52
a(S'cone'
p53
S'c\xc3\xb4ne'
p54
tp55
a(S'cone'
p56
S'c\xc3\xb4ne'
p57
tp58
a(S'cone'
p59
S'c\xc3\xb4ne'
p60
tp61
a(S'cone'
p62
S'c\xc3\xb4ne'
p63
tp64
a(S'cone'
p65
S'c\xc3\xb4ne'
p66
tp67
asS'Cible'
p68
I7
ss(S'lava'
p69
S'lave'
p70
tp71
(dp72
g5
I66
sg6
(lp73
(S'pasty'
p74
S'p\xc3\xa2teux'
p75
tp76
a(S'pasty'
p77
S'p\xc3\xa2teux'
p78
tp79
a(S'pasty'
p80
S'p\xc3\xa2teux'
p81
tp82
a(S'pasty'
p83
S'p\xc3\xa2teux'
p84
tp85
a(S'pasty'
p86
S'p\xc3\xa2teux'
p87
tp88
a(S'pasty'
p89
S'p\xc3\xa2teux'
p90
tp91
a(S'pasty'
p92
S'p\xc3\xa2teux'
p93
tp94
a(S'pasty'
p95
S'p\xc3\xa2teux'
p96
tp97
a(S'pasty'
p98
S'p\xc3\xa2teux'
p99
tp100
a(S'pasty'
p101
S'p\xc3\xa2teux'
p102
tp103
a(S'pasty'
p104
S'p\xc3\xa2teux'
p105
tp106
a(S'pasty'
p107
S'p\xc3\xa2teux'
p108
tp109
a(S'pasty'
p110
S'p\xc3\xa2teux'
p111
tp112
a(S'pasty'
p113
S'p\xc3\xa2teux'
p114
tp115
a(S'pasty'
p116
S'p\xc3\xa2teux'
p117
tp118
a(S'pasty'
p119
S'p\xc3\xa2teux'
p120
tp121
a(S'basaltic'
p122
S'basaltique'
p123
tp124
a(S'basaltic'
p125
S'basaltique'
p126
tp127
a(S'basaltic'
p128
S'basaltique'
p129
tp130
a(S'basaltic'
p131
S'basaltique'
p132
tp133
a(S'basaltic'
p134
S'basaltique'
p135
tp136
a(S'basaltic'
p137
S'basaltique'
p138
tp139
a(S'basaltic'
p140
S'basaltique'
p141
tp142
a(S'basaltic'
p143
S'basaltique'
p144
tp145
a(S'basaltic'
p146
S'basaltique'
p147
tp148
a(S'basaltic'
p149
S'basaltique'
p150
tp151
a(S'basaltic'
p152
S'basaltique'
p153
tp154
a(S'basaltic'
p155
S'basaltique'
p156
tp157
a(S'basaltic'
p158
S'basaltique'
p159
tp160
a(S'basaltic'
p161
S'basaltique'
p162
tp163
a(S'basaltic'
p164
S'basaltique'
p165
tp166
a(S'basaltic'
p167
S'basaltique'
p168
tp169
a(S'basaltic'
p170
S'basaltique'
p171
tp172
a(S'basaltic'
p173
S'basaltique'
p174
tp175
a(S'basaltic'
p176
S'basaltique'
p177
tp178
a(S'basaltic'
p179
S'basaltique'
p180
tp181
a(S'basaltic'
p182
S'basaltique'
p183
tp184
a(S'basaltic'
p185
S'basaltique'
p186
tp187
a(S'basaltic'
p188
S'basaltique'
p189
tp190
a(S'basaltic'
p191
S'basaltique'
p192
tp193
a(S'basaltic'
p194
S'basaltique'
p195
tp196
a(S'basaltic'
p197
S'basaltique'
p198
tp199
a(S'basaltic'
p200
S'basaltique'
p201
tp202
a(S'basaltic'
p203
S'basaltique'
p204
tp205
a(S'basaltic'
p206
S'basaltique'
p207
tp208
a(S'basaltic'
p209
S'basaltique'
p210
tp211
a(S'basaltic'
p212
S'basaltique'
p213
tp214
a(S'basaltic'
p215
S'basaltique'
p216
tp217
a(S'basaltic'
p218
S'basaltique'
p219
tp220
a(S'basaltic'
p221
S'basaltique'
p222
tp223
a(S'basaltic'
p224
S'basaltique'
p225
tp226
a(S'basaltic'
p227
S'basaltique'
p228
tp229
a(S'basaltic'
p230
S'basaltique'
p231
tp232
a(S'basaltic'
p233
S'basaltique'
p234
tp235
a(S'basaltic'
p236
S'basaltique'
p237
tp238
a(S'basaltic'
p239
S'basaltique'
p240
tp241
a(S'basaltic'
p242
S'basaltique'
p243
tp244
a(S'basaltic'
p245
S'basaltique'
p246
tp247
a(S'basaltic'
p248
S'basaltique'
p249
tp250
a(S'basaltic'
p251
S'basaltique'
p252
tp253
a(S'basaltic'
p254
S'basaltique'
p255
tp256
a(S'basaltic'
p257
S'basaltique'
p258
tp259
a(S'basaltic'
p260
S'basaltique'
p261
tp262
a(S'basaltic'
p263
S'basaltique'
p264
tp265
a(S'basaltic'
p266
S'basaltique'
p267
tp268
a(S'basaltic'
p269
S'basaltique'
p270
tp271
a(S'basaltic'
p272
S'basaltique'
p273
tp274
a(S'basaltic'
p275
S'basaltique'
p276
tp277
a(S'basaltic'
p278
S'basaltique'
p279
tp280
a(S'basaltic'
p281
S'basaltique'
p282
tp283
a(S'basaltic'
p284
S'basaltique'
p285
tp286
a(S'basaltic'
p287
S'basaltique'
p288
tp289
a(S'basaltic'
p290
S'basaltique'
p291
tp292
a(S'basaltic'
p293
S'basaltique'
p294
tp295
a(S'gush'
p296
S'jaillir'
p297
tp298
a(S'gush'
p299
S'jaillir'
p300
tp301
a(S'gush'
p302
S'jaillir'
p303
tp304
a(S'gush'
p305
S'jaillir'
p306
tp307
a(S'gush'
p308
S'jaillir'
p309
tp310
a(S'gush'
p311
S'jaillir'
p312
tp313
a(S'gush'
p314
S'jaillir'
p315
tp316
a(S'gush'
p317
S'jaillir'
p318
tp319
a(S'gush'
p320
S'jaillir'
p321
tp322
a(S'gush'
p323
S'jaillir'
p324
tp325
a(S'gush'
p326
S'jaillir'
p327
tp328
a(S'gush'
p329
S'jaillir'
p330
tp331
a(S'gush'
p332
S'jaillir'
p333
tp334
a(S'gush'
p335
S'jaillir'
p336
tp337
a(S'gush'
p338
S'jaillir'
p339
tp340
a(S'gush'
p341
S'jaillir'
p342
tp343
a(S'gush'
p344
S'jaillir'
p345
tp346
a(S'gush'
p347
S'jaillir'
p348
tp349
a(S'gush'
p350
S'jaillir'
p351
tp352
a(S'gush'
p353
S'jaillir'
p354
tp355
a(S'gush'
p356
S'jaillir'
p357
tp358
a(S'gush'
p359
S'jaillir'
p360
tp361
a(S'gush'
p362
S'jaillir'
p363
tp364
a(S'gush'
p365
S'jaillir'
p366
tp367
a(S'gush'
p368
S'jaillir'
p369
tp370
a(S'gush'
p371
S'jaillir'
p372
tp373
a(S'gush'
p374
S'jaillir'
p375
tp376
a(S'gush'
p377
S'jaillir'
p378
tp379
a(S'spout'
p380
S'jaillir'
p381
tp382
a(S'spout'
p383
S'jaillir'
p384
tp385
a(S'spout'
p386
S'jaillir'
p387
tp388
a(S'spout'
p389
S'jaillir'
p390
tp391
a(S'spout'
p392
S'jaillir'
p393
tp394
a(S'spout'
p395
S'jaillir'
p396
tp397
a(S'spout'
p398
S'jaillir'
p399
tp400
a(S'spout'
p401
S'jaillir'
p402
tp403
a(S'spout'
p404
S'jaillir'
p405
tp406
a(S'spout'
p407
S'jaillir'
p408
tp409
a(S'spout'
p410
S'jaillir'
p411
tp412
a(S'spout'
p413
S'jaillir'
p414
tp415
a(S'spout'
p416
S'jaillir'
p417
tp418
a(S'spout'
p419
S'jaillir'
p420
tp421
a(S'spout'
p422
S'jaillir'
p423
tp424
a(S'spout'
p425
S'jaillir'
p426
tp427
a(S'spout'
p428
S'jaillir'
p429
tp430
a(S'spout'
p431
S'jaillir'
p432
tp433
a(S'spout'
p434
S'jaillir'
p435
tp436
a(S'spout'
p437
S'jaillir'
p438
tp439
a(S'spout'
p440
S'jaillir'
p441
tp442
a(S'spout'
p443
S'jaillir'
p444
tp445
a(S'spout'
p446
S'jaillir'
p447
tp448
a(S'spout'
p449
S'jaillir'
p450
tp451
a(S'spout'
p452
S'jaillir'
p453
tp454
a(S'spout'
p455
S'jaillir'
p456
tp457
a(S'spout'
p458
S'jaillir'
p459
tp460
asg68
I55
ss(S'volcan'
p461
S'volcan'
p462
tp463
(dp464
g5
I1
sg6
(lp465
(S'active'
p466
S'actif'
p467
tp468
a(S'active'
p469
S'actif'
p470
tp471
a(S'active'
p472
S'actif'
p473
tp474
a(S'active'
p475
S'actif'
p476
tp477
a(S'active'
p478
S'actif'
p479
tp480
a(S'active'
p481
S'actif'
p482
tp483
a(S'active'
p484
S'actif'
p485
tp486
a(S'active'
p487
S'actif'
p488
tp489
a(S'active'
p490
S'actif'
p491
tp492
a(S'active'
p493
S'actif'
p494
tp495
a(S'active'
p496
S'actif'
p497
tp498
a(S'active'
p499
S'actif'
p500
tp501
a(S'active'
p502
S'actif'
p503
tp504
a(S'active'
p505
S'actif'
p506
tp507
a(S'active'
p508
S'actif'
p509
tp510
a(S'active'
p511
S'actif'
p512
tp513
a(S'active'
p514
S'actif'
p515
tp516
a(S'active'
p517
S'actif'
p518
tp519
a(S'active'
p520
S'actif'
p521
tp522
a(S'active'
p523
S'actif'
p524
tp525
a(S'active'
p526
S'actif'
p527
tp528
a(S'active'
p529
S'actif'
p530
tp531
a(S'active'
p532
S'actif'
p533
tp534
a(S'active'
p535
S'actif'
p536
tp537
a(S'active'
p538
S'actif'
p539
tp540
a(S'active'
p541
S'actif'
p542
tp543
a(S'active'
p544
S'actif'
p545
tp546
a(S'active'
p547
S'actif'
p548
tp549
a(S'active'
p550
S'actif'
p551
tp552
a(S'active'
p553
S'actif'
p554
tp555
a(S'active'
p556
S'actif'
p557
tp558
a(S'active'
p559
S'actif'
p560
tp561
a(S'active'
p562
S'actif'
p563
tp564
a(S'active'
p565
S'actif'
p566
tp567
a(S'active'
p568
S'actif'
p569
tp570
a(S'active'
p571
S'actif'
p572
tp573
a(S'active'
p574
S'actif'
p575
tp576
a(S'active'
p577
S'actif'
p578
tp579
a(S'active'
p580
S'actif'
p581
tp582
a(S'active'
p583
S'actif'
p584
tp585
a(S'active'
p586
S'actif'
p587
tp588
a(S'active'
p589
S'actif'
p590
tp591
a(S'active'
p592
S'actif'
p593
tp594
a(S'active'
p595
S'actif'
p596
tp597
a(S'active'
p598
S'actif'
p599
tp600
a(S'active'
p601
S'actif'
p602
tp603
a(S'active'
p604
S'actif'
p605
tp606
a(S'active'
p607
S'actif'
p608
tp609
a(S'active'
p610
S'actif'
p611
tp612
a(S'active'
p613
S'actif'
p614
tp615
a(S'active'
p616
S'actif'
p617
tp618
a(S'active'
p619
S'actif'
p620
tp621
a(S'active'
p622
S'actif'
p623
tp624
a(S'active'
p625
S'actif'
p626
tp627
a(S'active'
p628
S'actif'
p629
tp630
a(S'active'
p631
S'actif'
p632
tp633
a(S'active'
p634
S'actif'
p635
tp636
a(S'active'
p637
S'actif'
p638
tp639
a(S'active'
p640
S'actif'
p641
tp642
a(S'active'
p643
S'actif'
p644
tp645
a(S'active'
p646
S'actif'
p647
tp648
a(S'active'
p649
S'actif'
p650
tp651
a(S'active'
p652
S'actif'
p653
tp654
a(S'active'
p655
S'actif'
p656
tp657
a(S'active'
p658
S'actif'
p659
tp660
a(S'active'
p661
S'actif'
p662
tp663
a(S'active'
p664
S'actif'
p665
tp666
a(S'active'
p667
S'actif'
p668
tp669
a(S'active'
p670
S'actif'
p671
tp672
a(S'active'
p673
S'actif'
p674
tp675
a(S'active'
p676
S'actif'
p677
tp678
a(S'active'
p679
S'actif'
p680
tp681
a(S'active'
p682
S'actif'
p683
tp684
a(S'active'
p685
S'actif'
p686
tp687
a(S'active'
p688
S'actif'
p689
tp690
a(S'active'
p691
S'actif'
p692
tp693
a(S'active'
p694
S'actif'
p695
tp696
a(S'active'
p697
S'actif'
p698
tp699
a(S'active'
p700
S'actif'
p701
tp702
a(S'active'
p703
S'actif'
p704
tp705
a(S'active'
p706
S'actif'
p707
tp708
a(S'active'
p709
S'actif'
p710
tp711
a(S'active'
p712
S'actif'
p713
tp714
a(S'active'
p715
S'actif'
p716
tp717
a(S'active'
p718
S'actif'
p719
tp720
a(S'active'
p721
S'actif'
p722
tp723
a(S'active'
p724
S'actif'
p725
tp726
a(S'active'
p727
S'actif'
p728
tp729
a(S'active'
p730
S'actif'
p731
tp732
a(S'active'
p733
S'actif'
p734
tp735
a(S'active'
p736
S'actif'
p737
tp738
a(S'active'
p739
S'actif'
p740
tp741
a(S'active'
p742
S'actif'
p743
tp744
a(S'active'
p745
S'actif'
p746
tp747
a(S'active'
p748
S'actif'
p749
tp750
a(S'active'
p751
S'actif'
p752
tp753
a(S'active'
p754
S'actif'
p755
tp756
a(S'active'
p757
S'actif'
p758
tp759
a(S'active'
p760
S'actif'
p761
tp762
a(S'active'
p763
S'actif'
p764
tp765
a(S'active'
p766
S'actif'
p767
tp768
a(S'active'
p769
S'actif'
p770
tp771
a(S'active'
p772
S'actif'
p773
tp774
a(S'active'
p775
S'actif'
p776
tp777
a(S'active'
p778
S'actif'
p779
tp780
a(S'active'
p781
S'actif'
p782
tp783
a(S'active'
p784
S'actif'
p785
tp786
a(S'active'
p787
S'actif'
p788
tp789
a(S'active'
p790
S'actif'
p791
tp792
a(S'active'
p793
S'actif'
p794
tp795
a(S'active'
p796
S'actif'
p797
tp798
a(S'active'
p799
S'actif'
p800
tp801
a(S'active'
p802
S'actif'
p803
tp804
a(S'active'
p805
S'actif'
p806
tp807
a(S'active'
p808
S'actif'
p809
tp810
a(S'active'
p811
S'actif'
p812
tp813
a(S'active'
p814
S'actif'
p815
tp816
a(S'active'
p817
S'actif'
p818
tp819
a(S'active'
p820
S'actif'
p821
tp822
a(S'active'
p823
S'actif'
p824
tp825
a(S'active'
p826
S'actif'
p827
tp828
a(S'active'
p829
S'actif'
p830
tp831
a(S'active'
p832
S'actif'
p833
tp834
a(S'active'
p835
S'actif'
p836
tp837
a(S'active'
p838
S'actif'
p839
tp840
a(S'active'
p841
S'actif'
p842
tp843
a(S'active'
p844
S'actif'
p845
tp846
a(S'active'
p847
S'actif'
p848
tp849
a(S'active'
p850
S'actif'
p851
tp852
a(S'active'
p853
S'actif'
p854
tp855
a(S'active'
p856
S'actif'
p857
tp858
a(S'active'
p859
S'actif'
p860
tp861
asg68
I123
ss(S'basalt'
p862
S'basalte'
p863
tp864
(dp865
g5
I12
sg6
(lp866
(S'pillow'
p867
S'coussin'
p868
tp869
a(S'pillow'
p870
S'coussin'
p871
tp872
a(S'pillow'
p873
S'coussin'
p874
tp875
a(S'pillow'
p876
S'coussin'
p877
tp878
a(S'pillow'
p879
S'coussin'
p880
tp881
a(S'pillow'
p882
S'coussin'
p883
tp884
a(S'pillow'
p885
S'coussin'
p886
tp887
a(S'column'
p888
S'colonne'
p889
tp890
a(S'column'
p891
S'colonne'
p892
tp893
a(S'column'
p894
S'colonne'
p895
tp896
a(S'form'
p897
S'former'
p898
tp899
a(S'form'
p900
S'former'
p901
tp902
a(S'form'
p903
S'former'
p904
tp905
a(S'form'
p906
S'former'
p907
tp908
a(S'form'
p909
S'former'
p910
tp911
a(S'form'
p912
S'former'
p913
tp914
a(S'form'
p915
S'former'
p916
tp917
a(S'form'
p918
S'former'
p919
tp920
a(S'form'
p921
S'former'
p922
tp923
a(S'form'
p924
S'former'
p925
tp926
a(S'form'
p927
S'former'
p928
tp929
asg68
I5
ss(S'gas'
p930
S'gaz'
p931
tp932
(dp933
g5
I58
sg6
(lp934
(S'poisonous'
p935
S'toxique'
p936
tp937
a(S'poisonous'
p938
S'toxique'
p939
tp940
a(S'poisonous'
p941
S'toxique'
p942
tp943
a(S'poisonous'
p944
S'toxique'
p945
tp946
a(S'poisonous'
p947
S'toxique'
p948
tp949
a(S'poisonous'
p950
S'toxique'
p951
tp952
a(S'poisonous'
p953
S'toxique'
p954
tp955
a(S'poisonous'
p956
S'toxique'
p957
tp958
a(S'poisonous'
p959
S'toxique'
p960
tp961
a(S'poisonous'
p962
S'toxique'
p963
tp964
a(S'poisonous'
p965
S'toxique'
p966
tp967
a(S'poisonous'
p968
S'toxique'
p969
tp970
a(S'poisonous'
p971
S'toxique'
p972
tp973
a(S'poisonous'
p974
S'toxique'
p975
tp976
a(S'poisonous'
p977
S'toxique'
p978
tp979
a(S'poisonous'
p980
S'toxique'
p981
tp982
a(S'poisonous'
p983
S'toxique'
p984
tp985
a(S'poisonous'
p986
S'toxique'
p987
tp988
a(S'poisonous'
p989
S'toxique'
p990
tp991
a(S'poisonous'
p992
S'toxique'
p993
tp994
a(S'poisonous'
p995
S'toxique'
p996
tp997
a(S'poisonous'
p998
S'toxique'
p999
tp1000
a(S'poisonous'
p1001
S'toxique'
p1002
tp1003
a(S'poisonous'
p1004
S'toxique'
p1005
tp1006
a(S'poisonous'
p1007
S'toxique'
p1008
tp1009
a(S'dissolve'
p1010
S'dissoudre'
p1011
tp1012
a(S'dissolve'
p1013
S'dissoudre'
p1014
tp1015
a(S'dissolve'
p1016
S'dissoudre'
p1017
tp1018
a(S'dissolve'
p1019
S'dissoudre'
p1020
tp1021
a(S'dissolve'
p1022
S'dissoudre'
p1023
tp1024
a(S'dissolve'
p1025
S'dissoudre'
p1026
tp1027
a(S'dissolve'
p1028
S'dissoudre'
p1029
tp1030
a(S'dissolve'
p1031
S'dissoudre'
p1032
tp1033
a(S'dissolve'
p1034
S'dissoudre'
p1035
tp1036
a(S'dissolve'
p1037
S'dissoudre'
p1038
tp1039
a(S'dissolve'
p1040
S'dissoudre'
p1041
tp1042
a(S'dissolve'
p1043
S'dissoudre'
p1044
tp1045
a(S'dissolve'
p1046
S'dissoudre'
p1047
tp1048
a(S'dissolve'
p1049
S'dissoudre'
p1050
tp1051
a(S'dissolve'
p1052
S'dissoudre'
p1053
tp1054
a(S'dissolve'
p1055
S'dissoudre'
p1056
tp1057
a(S'dissolve'
p1058
S'dissoudre'
p1059
tp1060
a(S'toxic'
p1061
S'toxique'
p1062
tp1063
a(S'toxic'
p1064
S'toxique'
p1065
tp1066
a(S'toxic'
p1067
S'toxique'
p1068
tp1069
a(S'toxic'
p1070
S'toxique'
p1071
tp1072
a(S'toxic'
p1073
S'toxique'
p1074
tp1075
a(S'toxic'
p1076
S'toxique'
p1077
tp1078
a(S'toxic'
p1079
S'toxique'
p1080
tp1081
a(S'toxic'
p1082
S'toxique'
p1083
tp1084
a(S'toxic'
p1085
S'toxique'
p1086
tp1087
a(S'toxic'
p1088
S'toxique'
p1089
tp1090
a(S'toxic'
p1091
S'toxique'
p1092
tp1093
a(S'toxic'
p1094
S'toxique'
p1095
tp1096
a(S'toxic'
p1097
S'toxique'
p1098
tp1099
a(S'toxic'
p1100
S'toxique'
p1101
tp1102
a(S'toxic'
p1103
S'toxique'
p1104
tp1105
a(S'toxic'
p1106
S'toxique'
p1107
tp1108
a(S'toxic'
p1109
S'toxique'
p1110
tp1111
a(S'toxic'
p1112
S'toxique'
p1113
tp1114
a(S'toxic'
p1115
S'toxique'
p1116
tp1117
a(S'toxic'
p1118
S'toxique'
p1119
tp1120
a(S'toxic'
p1121
S'toxique'
p1122
tp1123
a(S'toxic'
p1124
S'toxique'
p1125
tp1126
a(S'toxic'
p1127
S'toxique'
p1128
tp1129
a(S'toxic'
p1130
S'toxique'
p1131
tp1132
a(S'toxic'
p1133
S'toxique'
p1134
tp1135
a(S'mask'
p1136
S'masque'
p1137
tp1138
a(S'mask'
p1139
S'masque'
p1140
tp1141
a(S'mask'
p1142
S'masque'
p1143
tp1144
a(S'mask'
p1145
S'masque'
p1146
tp1147
a(S'mask'
p1148
S'masque'
p1149
tp1150
a(S'mask'
p1151
S'masque'
p1152
tp1153
a(S'mask'
p1154
S'masque'
p1155
tp1156
a(S'mask'
p1157
S'masque'
p1158
tp1159
a(S'mask'
p1160
S'masque'
p1161
tp1162
a(S'discharge'
p1163
S'd\xc3\xa9gager'
p1164
tp1165
a(S'discharge'
p1166
S'd\xc3\xa9gager'
p1167
tp1168
a(S'discharge'
p1169
S'd\xc3\xa9gager'
p1170
tp1171
a(S'discharge'
p1172
S'd\xc3\xa9gager'
p1173
tp1174
a(S'discharge'
p1175
S'd\xc3\xa9gager'
p1176
tp1177
a(S'discharge'
p1178
S'd\xc3\xa9gager'
p1179
tp1180
a(S'discharge'
p1181
S'lib\xc3\xa9rer'
p1182
tp1183
a(S'discharge'
p1184
S'lib\xc3\xa9rer'
p1185
tp1186
a(S'discharge'
p1187
S'lib\xc3\xa9rer'
p1188
tp1189
a(S'discharge'
p1190
S'lib\xc3\xa9rer'
p1191
tp1192
a(S'discharge'
p1193
S'lib\xc3\xa9rer'
p1194
tp1195
a(S'discharge'
p1196
S'lib\xc3\xa9rer'
p1197
tp1198
a(S'discharge'
p1199
S'lib\xc3\xa9rer'
p1200
tp1201
a(S'discharge'
p1202
S'lib\xc3\xa9rer'
p1203
tp1204
a(S'discharge'
p1205
S'lib\xc3\xa9rer'
p1206
tp1207
a(S'discharge'
p1208
S'lib\xc3\xa9rer'
p1209
tp1210
a(S'discharge'
p1211
S'lib\xc3\xa9rer'
p1212
tp1213
a(S'discharge'
p1214
S'lib\xc3\xa9rer'
p1215
tp1216
a(S'discharge'
p1217
S'lib\xc3\xa9rer'
p1218
tp1219
a(S'discharge'
p1220
S'lib\xc3\xa9rer'
p1221
tp1222
a(S'discharge'
p1223
S'lib\xc3\xa9rer'
p1224
tp1225
a(S'discharge'
p1226
S'lib\xc3\xa9rer'
p1227
tp1228
a(S'discharge'
p1229
S'lib\xc3\xa9rer'
p1230
tp1231
a(S'discharge'
p1232
S'lib\xc3\xa9rer'
p1233
tp1234
a(S'discharge'
p1235
S'lib\xc3\xa9rer'
p1236
tp1237
a(S'discharge'
p1238
S'lib\xc3\xa9rer'
p1239
tp1240
a(S'discharge'
p1241
S'lib\xc3\xa9rer'
p1242
tp1243
a(S'discharge'
p1244
S'lib\xc3\xa9rer'
p1245
tp1246
a(S'discharge'
p1247
S'lib\xc3\xa9rer'
p1248
tp1249
a(S'inject'
p1250
S'injecter'
p1251
tp1252
a(S'inject'
p1253
S'injecter'
p1254
tp1255
a(S'emit'
p1256
S'd\xc3\xa9gager'
p1257
tp1258
a(S'emit'
p1259
S'd\xc3\xa9gager'
p1260
tp1261
a(S'emit'
p1262
S'd\xc3\xa9gager'
p1263
tp1264
a(S'emit'
p1265
S'd\xc3\xa9gager'
p1266
tp1267
a(S'emit'
p1268
S'd\xc3\xa9gager'
p1269
tp1270
a(S'emit'
p1271
S'd\xc3\xa9gager'
p1272
tp1273
a(S'emit'
p1274
S'd\xc3\xa9gager'
p1275
tp1276
a(S'emit'
p1277
S'd\xc3\xa9gager'
p1278
tp1279
a(S'emit'
p1280
S'd\xc3\xa9gager'
p1281
tp1282
a(S'emit'
p1283
S'd\xc3\xa9gager'
p1284
tp1285
a(S'emit'
p1286
S'd\xc3\xa9gager'
p1287
tp1288
a(S'emit'
p1289
S'd\xc3\xa9gager'
p1290
tp1291
a(S'emit'
p1292
S'd\xc3\xa9gager'
p1293
tp1294
a(S'emit'
p1295
S'd\xc3\xa9gager'
p1296
tp1297
a(S'emit'
p1298
S'd\xc3\xa9gager'
p1299
tp1300
a(S'emit'
p1301
S'd\xc3\xa9gager'
p1302
tp1303
a(S'emit'
p1304
S'd\xc3\xa9gager'
p1305
tp1306
asg68
I98
ss(S'cinder'
p1307
S'scorie'
p1308
tp1309
(dp1310
g5
I74
sg6
(lp1311
(S'incandescent'
p1312
S'incandescent'
p1313
tp1314
a(S'incandescent'
p1315
S'incandescent'
p1316
tp1317
a(S'red'
p1318
S'rouge'
p1319
tp1320
a(S'red'
p1321
S'rouge'
p1322
tp1323
a(S'form'
p1324
S'former'
p1325
tp1326
a(S'form'
p1327
S'former'
p1328
tp1329
a(S'accumulation'
p1330
S'monceau'
p1331
tp1332
a(S'accumulation'
p1333
S'monceau'
p1334
tp1335
a(S'accumulation'
p1336
S'tas'
p1337
tp1338
a(S'accumulation'
p1339
S'tas'
p1340
tp1341
a(S'accumulation'
p1342
S'amas'
p1343
tp1344
a(S'accumulation'
p1345
S'amas'
p1346
tp1347
a(S'mound'
p1348
S'monceau'
p1349
tp1350
a(S'mound'
p1351
S'tas'
p1352
tp1353
a(S'cone'
p1354
S'c\xc3\xb4ne'
p1355
tp1356
a(S'cone'
p1357
S'c\xc3\xb4ne'
p1358
tp1359
a(S'cone'
p1360
S'c\xc3\xb4ne'
p1361
tp1362
a(S'cone'
p1363
S'c\xc3\xb4ne'
p1364
tp1365
a(S'cone'
p1366
S'c\xc3\xb4ne'
p1367
tp1368
a(S'cone'
p1369
S'c\xc3\xb4ne'
p1370
tp1371
a(S'cone'
p1372
S'c\xc3\xb4ne'
p1373
tp1374
a(S'cone'
p1375
S'c\xc3\xb4ne'
p1376
tp1377
a(S'cone'
p1378
S'c\xc3\xb4ne'
p1379
tp1380
a(S'cone'
p1381
S'c\xc3\xb4ne'
p1382
tp1383
a(S'cone'
p1384
S'c\xc3\xb4ne'
p1385
tp1386
a(S'cone'
p1387
S'c\xc3\xb4ne'
p1388
tp1389
a(S'cone'
p1390
S'c\xc3\xb4ne'
p1391
tp1392
a(S'cone'
p1393
S'c\xc3\xb4ne'
p1394
tp1395
a(S'cone'
p1396
S'c\xc3\xb4ne'
p1397
tp1398
a(S'cone'
p1399
S'c\xc3\xb4ne'
p1400
tp1401
a(S'cone'
p1402
S'c\xc3\xb4ne'
p1403
tp1404
a(S'cone'
p1405
S'c\xc3\xb4ne'
p1406
tp1407
a(S'cone'
p1408
S'c\xc3\xb4ne'
p1409
tp1410
a(S'cone'
p1411
S'c\xc3\xb4ne'
p1412
tp1413
a(S'cone'
p1414
S'c\xc3\xb4ne'
p1415
tp1416
a(S'cone'
p1417
S'c\xc3\xb4ne'
p1418
tp1419
a(S'cone'
p1420
S'c\xc3\xb4ne'
p1421
tp1422
a(S'cone'
p1423
S'c\xc3\xb4ne'
p1424
tp1425
a(S'cone'
p1426
S'c\xc3\xb4ne'
p1427
tp1428
a(S'cone'
p1429
S'c\xc3\xb4ne'
p1430
tp1431
a(S'cone'
p1432
S'c\xc3\xb4ne'
p1433
tp1434
a(S'cone'
p1435
S'c\xc3\xb4ne'
p1436
tp1437
a(S'cone'
p1438
S'c\xc3\xb4ne'
p1439
tp1440
a(S'cone'
p1441
S'c\xc3\xb4ne'
p1442
tp1443
a(S'cone'
p1444
S'c\xc3\xb4ne'
p1445
tp1446
a(S'cone'
p1447
S'c\xc3\xb4ne'
p1448
tp1449
a(S'cone'
p1450
S'c\xc3\xb4ne'
p1451
tp1452
a(S'cone'
p1453
S'c\xc3\xb4ne'
p1454
tp1455
a(S'cone'
p1456
S'c\xc3\xb4ne'
p1457
tp1458
a(S'cone'
p1459
S'c\xc3\xb4ne'
p1460
tp1461
a(S'cone'
p1462
S'c\xc3\xb4ne'
p1463
tp1464
a(S'cone'
p1465
S'c\xc3\xb4ne'
p1466
tp1467
a(S'cone'
p1468
S'c\xc3\xb4ne'
p1469
tp1470
a(S'cone'
p1471
S'c\xc3\xb4ne'
p1472
tp1473
a(S'cone'
p1474
S'c\xc3\xb4ne'
p1475
tp1476
a(S'cone'
p1477
S'c\xc3\xb4ne'
p1478
tp1479
a(S'cone'
p1480
S'c\xc3\xb4ne'
p1481
tp1482
a(S'cone'
p1483
S'c\xc3\xb4ne'
p1484
tp1485
a(S'cone'
p1486
S'c\xc3\xb4ne'
p1487
tp1488
a(S'cone'
p1489
S'c\xc3\xb4ne'
p1490
tp1491
a(S'cone'
p1492
S'c\xc3\xb4ne'
p1493
tp1494
a(S'cone'
p1495
S'c\xc3\xb4ne'
p1496
tp1497
a(S'cone'
p1498
S'c\xc3\xb4ne'
p1499
tp1500
a(S'cone'
p1501
S'c\xc3\xb4ne'
p1502
tp1503
a(S'cone'
p1504
S'c\xc3\xb4ne'
p1505
tp1506
a(S'cone'
p1507
S'c\xc3\xb4ne'
p1508
tp1509
a(S'cone'
p1510
S'c\xc3\xb4ne'
p1511
tp1512
a(S'cone'
p1513
S'c\xc3\xb4ne'
p1514
tp1515
a(S'cone'
p1516
S'c\xc3\xb4ne'
p1517
tp1518
a(S'cone'
p1519
S'c\xc3\xb4ne'
p1520
tp1521
a(S'cone'
p1522
S'c\xc3\xb4ne'
p1523
tp1524
a(S'cone'
p1525
S'c\xc3\xb4ne'
p1526
tp1527
a(S'cone'
p1528
S'c\xc3\xb4ne'
p1529
tp1530
a(S'cone'
p1531
S'c\xc3\xb4ne'
p1532
tp1533
a(S'cone'
p1534
S'c\xc3\xb4ne'
p1535
tp1536
a(S'cone'
p1537
S'c\xc3\xb4ne'
p1538
tp1539
a(S'cone'
p1540
S'c\xc3\xb4ne'
p1541
tp1542
a(S'cone'
p1543
S'c\xc3\xb4ne'
p1544
tp1545
asg68
I17
ss(S'dome'
p1546
S'd\xc3\xb4me'
p1547
tp1548
(dp1549
g5
I24
sg6
(lp1550
(S'growth'
p1551
S'croissance'
p1552
tp1553
a(S'growth'
p1554
S'croissance'
p1555
tp1556
a(S'growth'
p1557
S'croissance'
p1558
tp1559
a(S'growth'
p1560
S'croissance'
p1561
tp1562
a(S'growth'
p1563
S'croissance'
p1564
tp1565
a(S'growth'
p1566
S'croissance'
p1567
tp1568
a(S'growth'
p1569
S'croissance'
p1570
tp1571
a(S'growth'
p1572
S'croissance'
p1573
tp1574
a(S'growth'
p1575
S'croissance'
p1576
tp1577
a(S'growth'
p1578
S'croissance'
p1579
tp1580
a(S'growth'
p1581
S'croissance'
p1582
tp1583
a(S'growth'
p1584
S'croissance'
p1585
tp1586
a(S'growth'
p1587
S'croissance'
p1588
tp1589
a(S'growth'
p1590
S'croissance'
p1591
tp1592
a(S'growth'
p1593
S'croissance'
p1594
tp1595
a(S'growth'
p1596
S'croissance'
p1597
tp1598
a(S'growth'
p1599
S'croissance'
p1600
tp1601
a(S'growth'
p1602
S'croissance'
p1603
tp1604
a(S'collapse'
p1605
S'\xc3\xa9croulement'
p1606
tp1607
a(S'collapse'
p1608
S'\xc3\xa9croulement'
p1609
tp1610
a(S'collapse'
p1611
S'\xc3\xa9croulement'
p1612
tp1613
a(S'collapse'
p1614
S'\xc3\xa9croulement'
p1615
tp1616
a(S'collapse'
p1617
S'\xc3\xa9croulement'
p1618
tp1619
a(S'collapse'
p1620
S'\xc3\xa9croulement'
p1621
tp1622
a(S'collapse'
p1623
S'\xc3\xa9croulement'
p1624
tp1625
a(S'collapse'
p1626
S'\xc3\xa9croulement'
p1627
tp1628
a(S'collapse'
p1629
S'\xc3\xa9croulement'
p1630
tp1631
a(S'collapse'
p1632
S'\xc3\xa9croulement'
p1633
tp1634
a(S'collapse'
p1635
S'\xc3\xa9croulement'
p1636
tp1637
a(S'collapse'
p1638
S'\xc3\xa9croulement'
p1639
tp1640
a(S'collapse'
p1641
S'\xc3\xa9croulement'
p1642
tp1643
asg68
I6
ss(S'fountain'
p1644
S'fontaine'
p1645
tp1646
(dp1647
g5
I2
sg6
(lp1648
(S'belch'
p1649
S'cracher'
p1650
tp1651
a(S'magma'
p1652
S'magma'
p1653
tp1654
asg68
I2
ss(S'cone'
p1655
S'c\xc3\xb4ne'
p1656
tp1657
(dp1658
g5
I56
sg6
(lp1659
(S'littoral'
p1660
S'littoral'
p1661
tp1662
a(S'littoral'
p1663
S'littoral'
p1664
tp1665
a(S'littoral'
p1666
S'littoral'
p1667
tp1668
a(S'littoral'
p1669
S'littoral'
p1670
tp1671
a(S'littoral'
p1672
S'littoral'
p1673
tp1674
a(S'littoral'
p1675
S'littoral'
p1676
tp1677
a(S'littoral'
p1678
S'littoral'
p1679
tp1680
a(S'littoral'
p1681
S'littoral'
p1682
tp1683
a(S'littoral'
p1684
S'littoral'
p1685
tp1686
a(S'littoral'
p1687
S'littoral'
p1688
tp1689
a(S'littoral'
p1690
S'littoral'
p1691
tp1692
a(S'littoral'
p1693
S'littoral'
p1694
tp1695
a(S'littoral'
p1696
S'littoral'
p1697
tp1698
a(S'littoral'
p1699
S'littoral'
p1700
tp1701
a(S'littoral'
p1702
S'littoral'
p1703
tp1704
a(S'composite'
p1705
S'composite'
p1706
tp1707
a(S'composite'
p1708
S'composite'
p1709
tp1710
a(S'composite'
p1711
S'composite'
p1712
tp1713
a(S'composite'
p1714
S'composite'
p1715
tp1716
a(S'composite'
p1717
S'composite'
p1718
tp1719
a(S'composite'
p1720
S'composite'
p1721
tp1722
a(S'composite'
p1723
S'composite'
p1724
tp1725
a(S'composite'
p1726
S'composite'
p1727
tp1728
a(S'composite'
p1729
S'composite'
p1730
tp1731
a(S'composite'
p1732
S'composite'
p1733
tp1734
a(S'composite'
p1735
S'composite'
p1736
tp1737
a(S'composite'
p1738
S'composite'
p1739
tp1740
a(S'composite'
p1741
S'composite'
p1742
tp1743
a(S'composite'
p1744
S'composite'
p1745
tp1746
a(S'composite'
p1747
S'composite'
p1748
tp1749
a(S'composite'
p1750
S'composite'
p1751
tp1752
a(S'composite'
p1753
S'composite'
p1754
tp1755
a(S'composite'
p1756
S'composite'
p1757
tp1758
a(S'composite'
p1759
S'composite'
p1760
tp1761
a(S'symmetrical'
p1762
S'sym\xc3\xa9trique'
p1763
tp1764
a(S'symmetrical'
p1765
S'sym\xc3\xa9trique'
p1766
tp1767
a(S'symmetrical'
p1768
S'sym\xc3\xa9trique'
p1769
tp1770
a(S'symmetrical'
p1771
S'sym\xc3\xa9trique'
p1772
tp1773
a(S'scoria'
p1774
S'scorie'
p1775
tp1776
a(S'scoria'
p1777
S'scorie'
p1778
tp1779
a(S'scoria'
p1780
S'scorie'
p1781
tp1782
a(S'scoria'
p1783
S'scorie'
p1784
tp1785
a(S'scoria'
p1786
S'scorie'
p1787
tp1788
a(S'scoria'
p1789
S'scorie'
p1790
tp1791
a(S'scoria'
p1792
S'scorie'
p1793
tp1794
a(S'scoria'
p1795
S'scorie'
p1796
tp1797
a(S'scoria'
p1798
S'scorie'
p1799
tp1800
a(S'scoria'
p1801
S'scorie'
p1802
tp1803
a(S'scoria'
p1804
S'scorie'
p1805
tp1806
a(S'scoria'
p1807
S'scorie'
p1808
tp1809
a(S'scoria'
p1810
S'scorie'
p1811
tp1812
a(S'scoria'
p1813
S'scorie'
p1814
tp1815
a(S'scoria'
p1816
S'scorie'
p1817
tp1818
a(S'scoria'
p1819
S'scorie'
p1820
tp1821
a(S'scoria'
p1822
S'scorie'
p1823
tp1824
a(S'scoria'
p1825
S'scorie'
p1826
tp1827
a(S'scoria'
p1828
S'scorie'
p1829
tp1830
a(S'scoria'
p1831
S'scorie'
p1832
tp1833
asg68
I10
ss(S'magma'
p1834
S'magma'
p1835
tp1836
(dp1837
g5
I24
sg6
(lp1838
(S'reservoir'
p1839
S'r\xc3\xa9servoir'
p1840
tp1841
a(S'reservoir'
p1842
S'r\xc3\xa9servoir'
p1843
tp1844
a(S'reservoir'
p1845
S'r\xc3\xa9servoir'
p1846
tp1847
a(S'reservoir'
p1848
S'r\xc3\xa9servoir'
p1849
tp1850
a(S'reservoir'
p1851
S'r\xc3\xa9servoir'
p1852
tp1853
a(S'reservoir'
p1854
S'r\xc3\xa9servoir'
p1855
tp1856
a(S'reservoir'
p1857
S'r\xc3\xa9servoir'
p1858
tp1859
a(S'reservoir'
p1860
S'r\xc3\xa9servoir'
p1861
tp1862
a(S'reservoir'
p1863
S'r\xc3\xa9servoir'
p1864
tp1865
a(S'reservoir'
p1866
S'r\xc3\xa9servoir'
p1867
tp1868
a(S'reservoir'
p1869
S'r\xc3\xa9servoir'
p1870
tp1871
a(S'reservoir'
p1872
S'r\xc3\xa9servoir'
p1873
tp1874
a(S'reservoir'
p1875
S'r\xc3\xa9servoir'
p1876
tp1877
a(S'reservoir'
p1878
S'r\xc3\xa9servoir'
p1879
tp1880
a(S'reservoir'
p1881
S'r\xc3\xa9servoir'
p1882
tp1883
a(S'reservoir'
p1884
S'r\xc3\xa9servoir'
p1885
tp1886
a(S'reservoir'
p1887
S'r\xc3\xa9servoir'
p1888
tp1889
a(S'reservoir'
p1890
S'r\xc3\xa9servoir'
p1891
tp1892
a(S'reservoir'
p1893
S'r\xc3\xa9servoir'
p1894
tp1895
a(S'reservoir'
p1896
S'r\xc3\xa9servoir'
p1897
tp1898
a(S'reservoir'
p1899
S'r\xc3\xa9servoir'
p1900
tp1901
a(S'reservoir'
p1902
S'r\xc3\xa9servoir'
p1903
tp1904
a(S'reservoir'
p1905
S'r\xc3\xa9servoir'
p1906
tp1907
a(S'reservoir'
p1908
S'r\xc3\xa9servoir'
p1909
tp1910
a(S'reservoir'
p1911
S'r\xc3\xa9servoir'
p1912
tp1913
a(S'reservoir'
p1914
S'r\xc3\xa9servoir'
p1915
tp1916
a(S'reservoir'
p1917
S'r\xc3\xa9servoir'
p1918
tp1919
a(S'reservoir'
p1920
S'r\xc3\xa9servoir'
p1921
tp1922
a(S'reservoir'
p1923
S'r\xc3\xa9servoir'
p1924
tp1925
a(S'reservoir'
p1926
S'r\xc3\xa9servoir'
p1927
tp1928
a(S'reservoir'
p1929
S'r\xc3\xa9servoir'
p1930
tp1931
a(S'reservoir'
p1932
S'r\xc3\xa9servoir'
p1933
tp1934
asg68
I18
ss(S'debris'
p1935
S'd\xc3\xa9bris'
p1936
tp1937
(dp1938
g5
I53
sg6
(lp1939
(S'coarse'
p1940
S'gros'
p1941
tp1942
a(S'coarse'
p1943
S'gros'
p1944
tp1945
a(S'coarse'
p1946
S'gros'
p1947
tp1948
a(S'avalanche'
p1949
S'avalanche'
p1950
tp1951
a(S'avalanche'
p1952
S'avalanche'
p1953
tp1954
a(S'avalanche'
p1955
S'avalanche'
p1956
tp1957
a(S'avalanche'
p1958
S'avalanche'
p1959
tp1960
a(S'avalanche'
p1961
S'avalanche'
p1962
tp1963
a(S'avalanche'
p1964
S'avalanche'
p1965
tp1966
a(S'avalanche'
p1967
S'avalanche'
p1968
tp1969
a(S'avalanche'
p1970
S'avalanche'
p1971
tp1972
a(S'avalanche'
p1973
S'avalanche'
p1974
tp1975
a(S'avalanche'
p1976
S'avalanche'
p1977
tp1978
a(S'avalanche'
p1979
S'avalanche'
p1980
tp1981
a(S'avalanche'
p1982
S'avalanche'
p1983
tp1984
a(S'avalanche'
p1985
S'avalanche'
p1986
tp1987
a(S'avalanche'
p1988
S'avalanche'
p1989
tp1990
a(S'avalanche'
p1991
S'avalanche'
p1992
tp1993
a(S'avalanche'
p1994
S'avalanche'
p1995
tp1996
a(S'avalanche'
p1997
S'avalanche'
p1998
tp1999
a(S'avalanche'
p2000
S'avalanche'
p2001
tp2002
a(S'avalanche'
p2003
S'avalanche'
p2004
tp2005
a(S'avalanche'
p2006
S'avalanche'
p2007
tp2008
a(S'avalanche'
p2009
S'avalanche'
p2010
tp2011
a(S'avalanche'
p2012
S'avalanche'
p2013
tp2014
a(S'avalanche'
p2015
S'avalanche'
p2016
tp2017
a(S'avalanche'
p2018
S'avalanche'
p2019
tp2020
a(S'avalanche'
p2021
S'avalanche'
p2022
tp2023
a(S'avalanche'
p2024
S'avalanche'
p2025
tp2026
a(S'avalanche'
p2027
S'avalanche'
p2028
tp2029
a(S'avalanche'
p2030
S'avalanche'
p2031
tp2032
a(S'avalanche'
p2033
S'avalanche'
p2034
tp2035
a(S'avalanche'
p2036
S'avalanche'
p2037
tp2038
a(S'avalanche'
p2039
S'avalanche'
p2040
tp2041
a(S'avalanche'
p2042
S'avalanche'
p2043
tp2044
a(S'avalanche'
p2045
S'avalanche'
p2046
tp2047
a(S'avalanche'
p2048
S'avalanche'
p2049
tp2050
a(S'avalanche'
p2051
S'avalanche'
p2052
tp2053
a(S'avalanche'
p2054
S'avalanche'
p2055
tp2056
a(S'avalanche'
p2057
S'avalanche'
p2058
tp2059
a(S'avalanche'
p2060
S'avalanche'
p2061
tp2062
a(S'avalanche'
p2063
S'avalanche'
p2064
tp2065
a(S'avalanche'
p2066
S'avalanche'
p2067
tp2068
a(S'avalanche'
p2069
S'avalanche'
p2070
tp2071
a(S'avalanche'
p2072
S'avalanche'
p2073
tp2074
a(S'avalanche'
p2075
S'avalanche'
p2076
tp2077
a(S'avalanche'
p2078
S'avalanche'
p2079
tp2080
a(S'avalanche'
p2081
S'avalanche'
p2082
tp2083
a(S'avalanche'
p2084
S'avalanche'
p2085
tp2086
a(S'avalanche'
p2087
S'avalanche'
p2088
tp2089
a(S'avalanche'
p2090
S'avalanche'
p2091
tp2092
a(S'avalanche'
p2093
S'avalanche'
p2094
tp2095
a(S'avalanche'
p2096
S'avalanche'
p2097
tp2098
a(S'avalanche'
p2099
S'avalanche'
p2100
tp2101
a(S'avalanche'
p2102
S'avalanche'
p2103
tp2104
a(S'avalanche'
p2105
S'avalanche'
p2106
tp2107
asg68
I5
ss(S'crater'
p2108
S'crat\xc3\xa8re'
p2109
tp2110
(dp2111
g5
I37
sg6
(lp2112
(S'rim'
p2113
S'bord'
p2114
tp2115
a(S'rim'
p2116
S'bord'
p2117
tp2118
a(S'rim'
p2119
S'bord'
p2120
tp2121
a(S'rim'
p2122
S'bord'
p2123
tp2124
a(S'rim'
p2125
S'bord'
p2126
tp2127
a(S'rim'
p2128
S'bord'
p2129
tp2130
a(S'rim'
p2131
S'bord'
p2132
tp2133
a(S'rim'
p2134
S'bord'
p2135
tp2136
a(S'rim'
p2137
S'bord'
p2138
tp2139
a(S'rim'
p2140
S'bord'
p2141
tp2142
a(S'rim'
p2143
S'bord'
p2144
tp2145
a(S'rim'
p2146
S'bord'
p2147
tp2148
a(S'rim'
p2149
S'bord'
p2150
tp2151
a(S'rim'
p2152
S'bord'
p2153
tp2154
a(S'rim'
p2155
S'bord'
p2156
tp2157
a(S'rim'
p2158
S'bord'
p2159
tp2160
a(S'rim'
p2161
S'bord'
p2162
tp2163
a(S'rim'
p2164
S'bord'
p2165
tp2166
a(S'rim'
p2167
S'bord'
p2168
tp2169
a(S'rim'
p2170
S'bord'
p2171
tp2172
a(S'rim'
p2173
S'bord'
p2174
tp2175
a(S'rim'
p2176
S'bord'
p2177
tp2178
a(S'rim'
p2179
S'bord'
p2180
tp2181
a(S'rim'
p2182
S'bord'
p2183
tp2184
a(S'rim'
p2185
S'bord'
p2186
tp2187
a(S'rim'
p2188
S'bord'
p2189
tp2190
a(S'rim'
p2191
S'bord'
p2192
tp2193
a(S'rim'
p2194
S'bord'
p2195
tp2196
a(S'rim'
p2197
S'bord'
p2198
tp2199
a(S'rim'
p2200
S'bord'
p2201
tp2202
a(S'rim'
p2203
S'bord'
p2204
tp2205
a(S'rim'
p2206
S'bord'
p2207
tp2208
a(S'rim'
p2209
S'bord'
p2210
tp2211
a(S'rim'
p2212
S'bord'
p2213
tp2214
a(S'rim'
p2215
S'bord'
p2216
tp2217
a(S'rim'
p2218
S'bord'
p2219
tp2220
a(S'rim'
p2221
S'bord'
p2222
tp2223
a(S'lip'
p2224
S'bord'
p2225
tp2226
a(S'lip'
p2227
S'bord'
p2228
tp2229
a(S'lip'
p2230
S'bord'
p2231
tp2232
a(S'lip'
p2233
S'bord'
p2234
tp2235
a(S'lip'
p2236
S'bord'
p2237
tp2238
a(S'lip'
p2239
S'bord'
p2240
tp2241
a(S'lip'
p2242
S'bord'
p2243
tp2244
a(S'lip'
p2245
S'bord'
p2246
tp2247
a(S'lip'
p2248
S'bord'
p2249
tp2250
a(S'lip'
p2251
S'bord'
p2252
tp2253
a(S'lip'
p2254
S'bord'
p2255
tp2256
a(S'lip'
p2257
S'bord'
p2258
tp2259
a(S'lip'
p2260
S'bord'
p2261
tp2262
a(S'lip'
p2263
S'bord'
p2264
tp2265
a(S'lip'
p2266
S'bord'
p2267
tp2268
a(S'lip'
p2269
S'bord'
p2270
tp2271
a(S'lip'
p2272
S'bord'
p2273
tp2274
a(S'lip'
p2275
S'bord'
p2276
tp2277
a(S'lip'
p2278
S'bord'
p2279
tp2280
asg68
I36
ss(S'eruption'
p2281
S'\xc3\xa9ruption'
p2282
tp2283
(dp2284
g5
I14
sg6
(lp2285
(S'cataclysmic'
p2286
S'cataclysmique'
p2287
tp2288
a(S'cataclysmic'
p2289
S'cataclysmique'
p2290
tp2291
a(S'cataclysmic'
p2292
S'cataclysmique'
p2293
tp2294
a(S'cataclysmic'
p2295
S'cataclysmique'
p2296
tp2297
a(S'cataclysmic'
p2298
S'cataclysmique'
p2299
tp2300
a(S'cataclysmic'
p2301
S'cataclysmique'
p2302
tp2303
a(S'cataclysmic'
p2304
S'cataclysmique'
p2305
tp2306
a(S'cataclysmic'
p2307
S'cataclysmique'
p2308
tp2309
a(S'cataclysmic'
p2310
S'cataclysmique'
p2311
tp2312
a(S'cataclysmic'
p2313
S'cataclysmique'
p2314
tp2315
a(S'cataclysmic'
p2316
S'cataclysmique'
p2317
tp2318
a(S'cataclysmic'
p2319
S'cataclysmique'
p2320
tp2321
a(S'cataclysmic'
p2322
S'cataclysmique'
p2323
tp2324
a(S'arise'
p2325
S'survenir'
p2326
tp2327
a(S'arise'
p2328
S'survenir'
p2329
tp2330
a(S'arise'
p2331
S'survenir'
p2332
tp2333
a(S'arise'
p2334
S'survenir'
p2335
tp2336
a(S'arise'
p2337
S'survenir'
p2338
tp2339
a(S'arise'
p2340
S'survenir'
p2341
tp2342
a(S'arise'
p2343
S'survenir'
p2344
tp2345
a(S'arise'
p2346
S'survenir'
p2347
tp2348
a(S'arise'
p2349
S'survenir'
p2350
tp2351
a(S'arise'
p2352
S'survenir'
p2353
tp2354
a(S'arise'
p2355
S'survenir'
p2356
tp2357
asg68
I15
ss.