(dp0
(S'basalt'
p1
S'basalte'
p2
S'create'
p3
S'former'
p4
tp5
(dp6
S'Source'
p7
(lp8
sS'Cible'
p9
(lp10
S'les fonds oc\xc3\xa9aniques , qui repr\xc3\xa9sentent 60 % de la surface du globe , sont form\xc3\xa9s de basalte'
p11
ass(S'basalt'
p12
S'basalte'
p13
S'make'
p14
S'former'
p15
tp16
(dp17
g7
(lp18
sg9
(lp19
S'les fonds oc\xc3\xa9aniques , qui repr\xc3\xa9sentent 60 % de la surface du globe , sont form\xc3\xa9s de basalte'
p20
ass(S'basalt'
p21
S'basalte'
p22
S'column'
p23
S'colonne'
p24
tp25
(dp26
g7
(lp27
S'scoria cones are generated by strombolian eruptions , which produce eruptive columns of basalt tephra generally only a few hundred meters high'
p28
aS'23 catherine hickson above examines columns of basalt formed from cooling lava about 10,000 years ago near today s whistler , b.c'
p29
asg9
(lp30
S'desmarest commence ses recherches en volcanologie en 1763 , en auvergne , o\xc3\xb9 il \xc3\xa9tudie les colonnes de basalte : il est le premier \xc3\xa0 reconna\xc3\xaetre leur origine volcanique'
p31
aS'la faille de thingvellir , les labyrinthes de sables enchant\xc3\xa9s du landmannalaugar , les colonnes de basalte qui forment d interminables orgues pour le concert des dieux , les glaciers que d\xc3\xa9chirent des gorges bleues et vertigineuses , comme celle de fjadrargljufur , pr\xc3\xa8s de kirkjubaejarklaustur , les icebergs impassibles des fjords , les c\xc3\xb4nes massacr\xc3\xa9s des volcans , ces dalles d \xc3\xa9glise que la nature a taill\xc3\xa9es , \xc3\xa0 l est du mont klaustur , entre les glaces et la mer'
p32
aS'il pencherait plut\xc3\xb4t pour une doctrine neptuniste , rel\xc3\xa9guant le volcanisme au second rang par rapport au travail incessant de l eau.les colonnes de basalte auvergnates . toutes les apparences concourent \xc3\xa0 identifier desmarest comme l auteur du manuscrit de rouen'
p33
ass(S'cinder'
p34
S'scorie'
p35
S'cone'
p36
S'c\xc3\xb4ne'
p37
tp38
(dp39
g7
(lp40
S'rainier is dwarfed by mauna loa , and cinder cones are tiny in proportion to the other types'
p41
aS'by studying the extent of erosion and soil development on lathrop wells , the researchers compared this volcanic cinder cones with a similar cone in southeastern california , indirectly dated at about 15,000 to 20,000 years old'
p42
aS'the cinder cones in the above photo is puu lilinue on mauna kea in hawaii'
p43
aS'one of the very few volcanoes observed by geologists from beginning to end is the cinder cones called paricutin about 200 miles west of mexico city'
p44
aS'trudging through loose ash , hikers climb the 700-foot-high flank of cinder cone'
p45
aS'two hulking volcanoes , mauna loa and mauna kea , are over 13,000ft high and dominate the horizon , and rubble from cinder cones lines most roads'
p46
aS'later volcanic activity built a small cinder cones in the lake called wizard island , which today provides a mute reminder of past activity figure 4.19'
p47
aS'this order of events--eruption , formation of cone and crater , lava flow--is a common sequence in the formation of cinder cones'
p48
aS'cinder cones in lassen volcanic park is just one vivid reminder'
p49
aS'cinder cones'
p50
aS'cinder cones can be found on shield and stratovolcanoes and at divergent and convergent plate boundaries and hot spots'
p51
aS'cinder cones and astronomical observatories are located at the summit of the volcano'
p52
aS'note how it dwarfs a typical cinder cones'
p53
aS'made of tephra - lava blown into the air and solidified - cinder cones are usually small , steep-sided structures formed during a single , mildly explosive event'
p54
aS'the alignment of cinder cones suggests rift zones once extended to the west , south , and east'
p55
aS'cinder cones are built from ejected lava fragments and are usually less than 300 meters 1000 feet high'
p56
aS'cinder cones are rather small , usually less than 300 meters 1000 feet high , often forming near larger volcanoes , and often in groups'
p57
aS'a last gasp of eruptions produced a small cinder cones , which rises above the water surface as wizard island near the rim of the lake'
p58
aS'today , paricutin is just another one of the numerous quiet cinder cones dotting the landscape in this region of mexico'
p59
aS'the most common types of volcanic landfor ms ar : shield volcanoes , stratovolcanoes , cinder cones , volcanic domes , volcanic spines , and lava plains'
p60
aS'cinder cones are easily eroded , because they are composed of unconsolidated materials'
p61
aS'the tephra accumulates near the central vent and builds a cinder cones'
p62
aS'cinder cones are conical hills produced by the accumulation of cinders and other tephra'
p63
aS'from the barren , red cinder cones on the summit of mauna kea to the fern-lined craters and black sand beaches of puna , volcanic activity has combined with the subtropical climate to create the scenery that draws visitors from all over the world'
p64
aS'cinder cones are numerous in western north america as well as throughout other volcanic terrains of the world'
p65
aS'the profile of the mauna loa shield appears smooth , whereas the shield profile of mauna kea has a more uneven appearance , reflecting the growth of numerous small cinder cones on its upper slopes after shield formation'
p66
aS'cinder cone'
p67
aS'photo by greg vaughn figure 4.11 sp crater , a cinder cones north of flagstaff , arizona'
p68
aS'cinder cones are the simplest type of volcano'
p69
aS'a brief film that includes good footage of lava fountains , formation of cinder cones , and advance of lava flows into the pacific ocean'
p70
aS'three hours later i looked down on suribachi , a 530-foot cinder cones that hardly seemed worthy of the prefix mount. it was hard to believe that the five-by-two-mile patch of land connected to it was the site of one of the bloodiest battles in world war ii , where some 25,000 soldiers - japanese and american - died'
p71
aS'profile of sunset crater , arizona , a typical steep-sided cinder cones'
p72
aS'the deep fractures in the continental crust are responsible for both the wells gray-clearwater field and the stikine belt , which includes the mount edziza volcanic field , a huge complex of vast lava flows , obsidian-rich cliffs , canary-yellow sulphurous ridges , and a series of tiny , perfect 150-metre-high cinder cones that date from about 1,000 years ago'
p73
aS'park visitors can see this perched lava pond by walking one mile 1.6 km on the napau crater trail and climbing puu huluhulu , a prehistoric cinder cones'
p74
aS'instead , the volcanoes might erupt lava and then , tens of thousands of years later , create a cinder cones'
p75
aS'scoria cones , also known as cinder cones , are the most common type of volcano'
p76
aS'between june 1983 and january 1984 , a series of small explosions , lava fountains , and lava flows erupted from a small cinder cones within the caldera'
p77
aS'the explosions hurled molten lava from the cinder cones , and lava flows melted a pit about 1.5 kilometers in diameter in the ice near the base of the volcano'
p78
aS'the costa ricans are deeply proud of their most famous volcano , arenal , a shapely cinder cones that rises into the clouds from t he rainforest around its base'
p79
aS'cinder cone , a volcanic cone built entirely of loose fragmented material pyroclastics'
p80
aS'the calderas of the older volcanoes of the island have been filled by younger lava flows and cinder cones'
p81
aS'most cinder cones have a bowl-shaped crater at the summit and rarely rise more than a thousand feet or so above their surroundings'
p82
aS'geologists generally group volcanoes into four main kinds--cinder cones , composite volcanoes , shield volcanoes , and lava domes'
p83
aS'tradewinds blew the tephra to the southwest , where it accumulated to form the cinder cones'
p84
aS'this photo shows a cinder cones on kohala volcano in hawaii'
p85
aS'these vents culminate in the post-glacial cinder cones and lava flows of the nazko area west of quesnel'
p86
aS'explosion pits , hardened lava flows , and cinder cones reveal other major volcanic episodes'
p87
aS'cinder cone s fantastic lava beds looked so new to early researchers they misdated them by 200 years'
p88
aS'the summit and upper flanks of the volcano , part of which are shown in this photo , are covered by numerous cinder cones'
p89
aS'cinder cones as the name suggests , cinder cones are built from ejected lava fragments'
p90
aS'the lava accumulates near the vent to produce a spatter or cinder cones'
p91
aS'the cycles of volcanism are laid out clear as museum specimen : craters taped in snow , dark paws of lava , hills of glossy obsidian , and cinder cones that look as if poured yesterday'
p92
aS'at devastation trail , our next stop , we paused at a cinder cones called puu puai , created in 1959 when a lava fountain surged out of a vent in kilauea s side and threw up cinder bits that fell steadily around the vent , eventually forming the cone'
p93
aS'this photo shows the interior of strawberry knoll , a cinder cones in southwestern utah'
p94
aS'terns and characteristic form : shield volcanoes , cinder cones , and composite cones'
p95
aS'the first glimpse of the caldera reveals a black , brown , and gray otherworld of cinder cones , lava flows , and explosion pits'
p96
aS'subsequent eruptions produced the cinder cones called wizard island'
p97
aS'puu puai , shown in this photo , is a cinder cones that formed during the 1959 eruption at kilauea iki crater'
p98
aS'cinder cones have very steep slopes composed of pyroclastic material'
p99
aS'a cinder cones is a conical hill formed by the accumulation of cinders and other pyroclasts , normally of basaltic and andesitic composition bates and jackson , 1980 , p'
p100
aS'rising 700 feet from its base , a cone of cinder sits symmetrical as sand in an hourglass on the park s northeast edge'
p101
asg9
(lp102
S'les c\xc3\xb4nes de scories ici , au piton de la fournaise , \xc3\xaele de la r\xc3\xa9union s \xc3\xa9difient \xc3\xa0 partir des fontaines de lave'
p103
aS'ainsi , entre -100 000 ans et -8 000 ans , quelques dizaines de c\xc3\xb4nes de scories entour\xc3\xa9s de leurs coul\xc3\xa9es se sont construits'
p104
aS'80 d entre eux sont des c\xc3\xb4nes de scories de type strombolien r\xc3\xa9sultant chacun d une \xc3\xa9ruption unique \xc3\xa9difices monog\xc3\xa9niques'
p105
aS'ici le c\xc3\xb4ne de scories du pariou , vieux de 9 000 ans , \xc3\xa9difi\xc3\xa9 en quelques mois d \xc3\xa9ruption'
p106
aS'effondrements intra-crat\xc3\xa9riques effusions c\xc3\xb4ne adventif conduit d alimentation chemin\xc3\xa9e dispersion par le vent trajectoires paraboliques bombes faci\xc3\xa8s c\xc5\x93ur de c\xc3\xb4ne scories rouges faci\xc3\xa8s bas de c\xc3\xb4ne scories noires pluie de cendres et lapilli \xc3\xa9boulements retomb\xc3\xa9es a\xc3\xa9riennes = saupoudrage figure 9.8 principaux types d \xc3\xa9difices volcaniques'
p107
aS'exploitation de la pouzzolane du volcan de lemptegy spatter cone , c\xc3\xb4ne de scories soud\xc3\xa9es'
p108
aS'on aper\xc3\xa7oit au fond un petit c\xc3\xb4ne de scories ; la terrasse , qui surplombe en arri\xc3\xa8re-plan , est le reste d un ancien niveau du plancher du crat\xc3\xa8re'
p109
ass(S'basalt'
p110
S'basalte'
p111
S'pillow'
p112
S'coussin'
p113
tp114
(dp115
g7
(lp116
S'subglacial eruptions produced pillow basalts porter , 1987'
p117
aS'when basalt enters water passively , it forms pillow basalt'
p118
aS'typically , the lava quenches quickly against the bottom waters to produce characteristic bulbous shapes called pillow basalt'
p119
aS'pillow basalts'
p120
aS'fissure eruptions are common along mid-ocean ridges and produce pillow basalts'
p121
aS'basalt fragmentation can occur by the explosive eruption process , or by an essentially nonexplosive process associated with the spalling of pillow basalt rinds by thermal shock or chill shattering'
p122
aS'on top of the dikes lies cooled , fractured lava called pillow basalt , rife with cracks and voids through which seawater circulates'
p123
asg9
(lp124
S'de bas en haut , on identifie des p\xc3\xa9ridotites , des gabbros lit\xc3\xa9s \xc3\xa0 la base et massifs dans la partie sup\xc3\xa9rieure , un ensemble de filons subverticaux , des basaltes en coussins ou pillow-lavas , et enfin des s\xc3\xa9diments siliceux ou radiolarites'
p125
ass(S'fountain'
p126
S'fontaine'
p127
S'magma'
p128
S'magma'
p129
tp130
(dp131
g7
(lp132
S'clouds of ash the volcano , europe s highest at 10,900 feet , pumped out huge dark clouds of ash and spurted fountains of magma 300 to 600 feet into the air'
p133
asg9
(lp134
S'tout en crachant des fontaines de magma , la coul\xc3\xa9e avance inexorablement , coupant sur son passage des c\xc3\xb4nes plus anciens : le volcan toujours recommenc\xc3\xa9 d\xc3\xa9truit ses propres oeuvres'
p135
ass(S'dome'
p136
S'd\xc3\xb4me'
p137
S'enlarge'
p138
S'augmenter'
p139
tp140
(dp141
g7
(lp142
S'whenever the composite dome enlarges , chances increase for collapses of its steep , irregular sides'
p143
asg9
(lp144
ss(S'gas'
p145
S'gaz'
p146
S'emit'
p147
S'd\xc3\xa9gager'
p148
tp149
(dp150
g7
(lp151
S'some of these emit only gases and are appropriately called fumaroles'
p152
aS'the expanding gas component is derived from a combination of 1 the constant exsolution of volcanic gas emitted by the hot pyroclasts , and 2 from the ingestion , heating , and rapid expansion air during movement of the flow'
p153
aS'the hard outer crust , known as desert pavement , formed quickly as the volcanic materials were weathered by wind , rain and the acidic gases emitted by the still sputtering volcano'
p154
aS'the volcanologists made their discovery by comparing earthquake behavior with the amount of sulfur dioxide gas that galeras emitted prior to last year s jan'
p155
aS'griggs and his team found that the fumaroles were also emitting gases that had been dissolved in the molten rock before it erupted'
p156
aS'helens continued to emit great quantities of hot gases and ash'
p157
aS'f is for fumaroles these are vents in the crater or on the flanks of a volcano , which emit hot gases'
p158
aS'volcanic gases are emitted during all types of eruptions'
p159
aS'determining the timing of an eruption in a monitored volcano depends on measuring a number of parameters , including , but not limited to , seismic activity at the volcano especially depth and frequency of volcanic earthquakes , ground deformations determined using a tiltmeter and/or gps , and satellite interferometry , and gas emissions sampling the amount of sulfur dioxide gas emitted by correlation spectrometer , or cospec'
p160
aS'fumaroles , which emit mixtures of steam and other gases , are fed by conduits that pass through the water table before reaching the surface of the ground'
p161
aS'extremely small amounts of mercury and other metals have been detected in gases emitted from vents along the east rift zone of kilauea , but none have been found in concentrations large enough to create a direct health hazard'
p162
aS'although the percentage may be small , the actual quantity of emitted gas can exceed thousands of tons per day'
p163
aS'in later years , realizing that gases emitted from volcanoes carry vital information about what is going on inside , mr'
p164
aS'instruments on the mountain relay the seismic activity caused by smoke exhalations and deep molten-rock movements , tiny increases in volume which could indicate the build-up of pressure , and changes in the the gases emitted'
p165
aS'explosive eruptions emit huge quantities of gases and fine-grained debris into the atmosphere'
p166
asg9
(lp167
S'une \xc3\xa9ruption moyenne d\xc3\xa9gage moins de gaz toxiques qu une centrale \xc3\xa9lectrique br\xc3\xbblant du charbon'
p168
aS'a pomp\xc3\xa9i , la mort frappe ceux qui se sont r\xc3\xa9fugi\xc3\xa9s dans les caves et \xc3\xa0 l int\xc3\xa9rieur des maisons pour \xc3\xa9chapper \xc3\xa0 la pluie de ponces : ils mourront asphyxi\xc3\xa9s par les gaz irrespirables que d\xc3\xa9gagent les pyroclastites en refroidissant'
p169
aS'la disette qui suivit , quant \xc3\xa0 elle , fit 10 000 victimes , soit un quart de la population d alors ! le laki d\xc3\xa9gagea une telle quantit\xc3\xa9 de gaz et de poussi\xc3\xa8res qu une brume \xc3\xa9paisse s installa pendant plusieurs mois sur toute l europe , diminuant le rayonnement solaire ; l hiver 1783-1784 fut l un des plus froids du xviiie si\xc3\xa8cle'
p170
aS'en se d\xc3\xa9gageant dans l atmosph\xc3\xa8re , les gaz volcaniques s oxydent et se condensent'
p171
ass(S'cinder'
p172
S'scorie'
p173
S'accumulation'
p174
S'monceau'
p175
tp176
(dp177
g7
(lp178
S'cinder cones are conical hills produced by the accumulation of cinders and other tephra'
p179
aS'a cinder cones is a conical hill formed by the accumulation of cinders and other pyroclasts , normally of basaltic and andesitic composition bates and jackson , 1980 , p'
p180
asg9
(lp181
S'ici , seule la nature s autorise le plus grand d\xc3\xa9sordre , laissant tra\xc3\xaener partout des monceaux de scories , d\xc3\xa9roulant jusqu \xc3\xa0 la mer des champs de lave d\xc3\xa9chiquet\xc3\xa9e ou convuls\xc3\xa9e'
p182
ass(S'cinder'
p183
S'scorie'
p184
S'red'
p185
S'parsemer'
p186
tp187
(dp188
g7
(lp189
S'from the barren , red cinder cones on the summit of mauna kea to the fern-lined craters and black sand beaches of puna , volcanic activity has combined with the subtropical climate to create the scenery that draws visitors from all over the world'
p190
aS'in many eruptions , the froth is shattered explosively into small fragments that are hurled high into the air in the form of volcanic cinders red or black , volcanic ash commonly tan or gray , and volcanic dust'
p191
asg9
(lp192
ss(S'fountain'
p193
S'fontaine'
p194
S'squirt'
p195
S'jaillir'
p196
tp197
(dp198
g7
(lp199
S'we started with herculanaeum , which the children enjoyed , cavorting around the gardens and squirting fountain water'
p200
asg9
(lp201
ss(S'fountain'
p202
S'fontaine'
p203
S'belch'
p204
S'cracher'
p205
tp206
(dp207
g7
(lp208
S'the mountain also was belching a fountain of ash and sand that made for poor visibility miles away'
p209
asg9
(lp210
S'tout en crachant des fontaines de magma , la coul\xc3\xa9e avance inexorablement , coupant sur son passage des c\xc3\xb4nes plus anciens : le volcan toujours recommenc\xc3\xa9 d\xc3\xa9truit ses propres oeuvres'
p211
ass(S'cone'
p212
S'c\xc3\xb4ne'
p213
S'littoral'
p214
S'littoral'
p215
tp216
(dp217
g7
(lp218
S'pu u o mahana is the site of hawaii s famous green sand beach, composed of the shiny green mineral olivine a magnesium-iron-silicate eroded from the littoral cone and concentrated by wave action'
p219
aS'the littoral cones that develop from these explosive ejections are typically open on the seaward side'
p220
aS'the resulting steam explosions generated spatter , limu o pele , and pele s hair that accumulated on the sea cliff to make a littoral cone'
p221
aS'lava from the tube added new land , extending the coastline and isolating the littoral cone'
p222
aS'this photo shows a littoral cone that formed in october 1988'
p223
aS'right abov : pu u o mahana , a prehistoric littoral cone of mauna loa , is the site of the big island s green-sand beach'
p224
aS'littoral cones'
p225
aS'littoral cones can develop at the water s edge from the accumulation of these airborne fragments'
p226
aS'littoral cone'
p227
aS'basalt exiting from lava tubes can also generate littoral cones from episodic explosions due to disruption of the lava stream by incoming waves or swells'
p228
aS'larger deposits , however , are more permanent and form littoral cones , such as the 100-foot-high pu u o mahana , near the south tip of the big island , formed during a prehistoric mauna loa eruption'
p229
aS'the interaction of lava and water generated an acidic steam plume , black sand , and , with the proper conditions , littoral cones'
p230
aS'the exposed hot rocks and lava from the tube generated steam explosions that threw material back on the bench to produce a littoral cone'
p231
aS'a littoral cone is a cone formed on a lava flow when it runs into a body of water , usually the sea'
p232
aS'although littoral cones have a hydrovolcanic orgin , they are not true hydrovolcanic vents'
p233
asg9
(lp234
S'en ces lieux se produisit indubitablement une \xc3\xa9ruption dont les coul\xc3\xa9es se jet\xc3\xa8rent dans la mer; et le contact entre l eau et la roche en fusion , tr\xc3\xa8s explosif , donna naissance aux deux c\xc3\xb4nes littoraux'
p235
ass(S'lava'
p236
S'lave'
p237
S'pasty'
p238
S'p\xc3\xa2teux'
p239
tp240
(dp241
g7
(lp242
S'runny lava flows in rivers of red-hot molten rock , but pasty lava creeps forward only about ten feet a day'
p243
aS'build up of the high gas pressures required to fragment this somewhat pasty lava , results in episodic explosions with booming blasts'
p244
aS'when the pahoehoe crust thickens and the underlying lava becomes cool , viscous , and gas-depleted , pasty lava can squeeze up through the axial fracture of the tumulus like cold toothpaste'
p245
aS'however , true strombolian activity is characterized by short-lived , explosive outbursts of pasty lava ejected a few tens or hundreds of meters into the air'
p246
aS'but if the lava is thick and pasty highly viscous , the gases will not move freely but will build up tremendous pressure , and ultimately escape with explosive violence'
p247
aS'pasty lava looks more like clumps of fused stone'
p248
aS'following the 1980 explosive eruption , more than a dozen extrusions of thick , pasty lava built a mound-shaped lava dome in the new crater'
p249
asg9
(lp250
S'la premi\xc3\xa8re est un d\xc3\xb4me de lave tr\xc3\xa8s p\xc3\xa2teuse qui pousse sur le flanc du volcan - le 8 juin , il avait d\xc3\xa9j\xc3\xa0 30 m\xc3\xa8tres de haut et 100 m\xc3\xa8tres de diam\xc3\xa8tre'
p251
aS'p\xc3\xa9l\xc3\xa9enne , magma/lave , lave p\xc3\xa2teuse et riche en silice , relief , d\xc3\xb4mes et aiguilles , produits , gaz br\xc3\xbblants et blocs de toutes tailles , caract\xc3\xa9ristiques , emission de nu\xc3\xa9es ardentes destructrices'
p252
aS'au fond se dresse le puy de d\xc3\xb4me , un d\xc3\xb4me de lave p\xc3\xa2teuse qui a surgi de la terre il y a environ 8 200 ans'
p253
aS'selon le r\xc3\xa9cit de mme katia kraft , volcanologue , qui s est rendue sur place du 12 au 27 f\xc3\xa9vrier , un d\xc3\xb4me de lave p\xc3\xa2teuse , qui se gonfle en douceur , a d\xc3\xa9j\xc3\xa0 une hauteur de plus de 160 m\xc3\xa8tres'
p254
aS'un d\xc3\xb4me de lave p\xc3\xa2teuse et noire , qui cro\xc3\xaet quotidiennement , engorge le crat\xc3\xa8re du merapi'
p255
aS'la plupart sont des c\xc3\xb4nes de cendres qui ont \xc3\xa9mis de grosses coul\xc3\xa9es , mais certains , une vingtaine , sont des crat\xc3\xa8res d explosion et quatre , dont le fameux puy-de-d\xc3\xb4me , pr\xc3\xa9sentent des d\xc3\xb4mes de lave p\xc3\xa2teuse'
p256
aS'eruption p\xc3\xa9l\xc3\xa9enne : le crat\xc3\xa8re est rempli de lave tr\xc3\xa8s p\xc3\xa2teuse ; si le d\xc3\xb4me est perc\xc3\xa9 , il s \xc3\xa9boule et des nu\xc3\xa9es ardentes se forment et s acc\xc3\xa9l\xc3\xa8rent sur les flancs'
p257
aS'une trop forte concentration en silice donne des laves p\xc3\xa2teuses qui emprisonnent les gaz'
p258
aS'colima mexique , \xc3\xa9mission de lave tr\xc3\xa8s p\xc3\xa2teuse \xc3\xa0 partir de 2 \xc3\xa9vents ouverts dans le d\xc3\xb4me sommital , petites nu\xc3\xa9es ardentes'
p259
aS'on les rencontre surtout sur les volcans \xc3\xa9mettant des laves p\xc3\xa2teuses , contrairement aux deux autres types de coul\xc3\xa9es dont les laves sont fluides'
p260
aS'langila nouvelle-guin\xc3\xa9e , nombreuses explosions vulcaniennes , retomb\xc3\xa9es de cendres jusqu \xc3\xa0 6 kilom\xc3\xa8tres du volcan , coul\xc3\xa9e de lave p\xc3\xa2teuse de 1 kilom\xc3\xa8tre de long'
p261
aS'son d\xc3\xb4me de lave p\xc3\xa2teuse explosait et s effondrait sur les flancs en nu\xc3\xa9es ardentes impressionnantes'
p262
aS'et plusieurs milliers d ann\xc3\xa9es ! si un volcan \xc3\xa9met de la lave tr\xc3\xa8s p\xc3\xa2teuse , il peut exploser brusquement sous la pouss\xc3\xa9e des gaz qui se trouvent dessous'
p263
aS'il en surgit lentement un d\xc3\xb4me de lave p\xc3\xa2teuse , \xc3\xa0 une temp\xc3\xa9rature de 900 \xc2\xb0c , poussant comme un \xc3\xa9norme champignon qui sort de terre'
p264
aS'il en sortit un d\xc3\xb4me de lave p\xc3\xa2teuse qui engloutit l exploitation ! la seconde \xc3\xa9ruption provoqu\xc3\xa9e eut lieu en 1941 sur le v\xc3\xa9suve , en italie'
p265
ass(S'fountain'
p266
S'fontaine'
p267
S'ground'
p268
S'formation'
p269
tp270
(dp271
g7
(lp272
sg9
(lp273
S'ses \xc3\xa9ruptions , avec formation de fontaines et de coul\xc3\xa9es de lave extr\xc3\xaamement fluide capables de parcourir plusieurs kilom\xc3\xa8tres , sont de type hawaiien'
p274
ass(S'cinder'
p275
S'scorie'
p276
S'block'
p277
S'bloc'
p278
tp279
(dp280
g7
(lp281
S'the jagged cinder blocks that break off the front are then overridden by the massive lava core of the flow which pushes forward'
p282
asg9
(lp283
ss(S'cinder'
p284
S'scorie'
p285
S'accumulation'
p286
S'tas'
p287
tp288
(dp289
g7
(lp290
S'cinder cones are conical hills produced by the accumulation of cinders and other tephra'
p291
aS'a cinder cones is a conical hill formed by the accumulation of cinders and other pyroclasts , normally of basaltic and andesitic composition bates and jackson , 1980 , p'
p292
asg9
(lp293
S'- les coul\xc3\xa9es rugueuses , morcel\xc3\xa9es , souvent \xc3\xa9paisses , formant des tas de scories'
p294
ass(S'crater'
p295
S'crat\xc3\xa8re'
p296
S'rim'
p297
S'bord'
p298
tp299
(dp300
g7
(lp301
S'information and pictures will be sent through an umbilical cord to the crater rim , and then by satellite to goddard'
p302
aS'as they were winding up their studies on the floor and rim of the crater , the release of pent-up gas pressure inside the volcano ripped apart a dome that had plugged the vent'
p303
aS'from the crater rim the view is astonishing'
p304
aS'in september the lava pond in puu oo was only 50 feet 15 m across and at a depth of about 325 feet 100 m below the rim of the crater'
p305
aS'the distance between the lake surface and the lowest point on the crater rim , known as the freeboard , has shrunk from 8.3 metres 27ft to 4.5 metres in the last two months , according to the oxfam team s senior geologist , professor kelvin rodolfo'
p306
aS'but instead , in an attempt to retain a modicum of control over the expected avalanche of water , mud and rocks , the authorities in the municipality of botolan are having to breach the crater rim on thursday morning'
p307
aS'check out the volcano displays and watch the short film on eruptions before setting out to circle the kilauea caldera on the 12-kilometre crater rim drive loop road'
p308
aS'officially it is forbidden to stay overnigh : people tend to fall asleep up there and , dreaming of primeval urges , roman gods at their forges or whatever else takes their fancy , they roll over the rim and into the crater where they are consumed by the burning heart of the volcano , the latest offering in some age-old rite'
p309
aS'the lack of lava or pyroclastic material on the rim of the craters indicates that they are not formed by eruptions'
p310
aS'although large eruptions and lava flows are uncommon , smaller eruptions occur very frequently and often hurl blobs of lava above the crater rim'
p311
aS'a few brave souls had even stolen to the rim of the crater , peered in , and seen the monsters lair'
p312
aS'the thurston lava tube was our last stop on crater rim drive itself'
p313
aS'16 january 1993 p.5 british scientist dies in colombian volcano eruption geoffrey brown by james adams and ian murray a leading british scientist was among nine people killed when a volcano in colombia erupted as they were walking along the inner rim of the crater'
p314
aS'both are enclosed within the crater rim on the right in a prehistoric dome complex , in which the younger domes are pushing outward on the crater rim'
p315
aS'it also had to contend with boulders that had been shot up to the crater rim during mount spurr s last eruption , in 1993'
p316
aS'the road around the perimeter of the caldera is crater rim drive'
p317
aS'this photograph , taken in 1977 , shows the growing composite dome of bezymianny rising above the crater rim'
p318
aS'to tour the volcano , we took the popular 11-mile crater rim drive , which loops around the kilauea summit'
p319
aS'explosive eruptions threw hoc fragments 1000 meters 3300 feet above the crater rim'
p320
aS'dante was connected by a tether to an electric generator and a satellite dish on the rim of the crater'
p321
aS'if the diggers had been properly supervised , then they would not have forgotten to leave a big plug in place. he said the plug left between the canal and the crater rim should have been several metres thick but it ended up only a fraction of that'
p322
aS'feodor and 1 chatted about our lives and our familier as the sun sank toward the crater rim'
p323
aS'after a shivering night on the pine-studded crater rim'
p324
aS'crater rim drive gives motorists a circle tour of the birthplace of the big island of hawaii'
p325
aS'danger potential 1 2 kilauea , hawaii the most continuously active volcano on earth , kilauea spews out five cubic metres of lava per second but is not considered that dangerous , having a hotel on the rim of one of its craters'
p326
aS'but once dante got started , it was clear we were dealing with a 12. steadied by a cable anchored on the crater rim , the ten-foot-long robot inched its way down the 30-degree incline , struggling to stay on top of the wet snow and muddy ash with the help of circular snowshoes'
p327
aS'the 1924 blocks shown is this photo can still be seen along crater rim drive near the crater'
p328
aS'nahuku thurston lava tube is on crater rim drive and visited by millions of park visitors every year'
p329
aS'three months before the eruption , the long-lived lava lake in halemaumau played actively about 150 feet below the crater rim'
p330
aS'even today some people bring gifts , but out of reverence rather than fear , throwing them into halemaumau after a brief prayer or occasionally leaving them on the rim of the crater'
p331
aS'eyewitness accounts indicated that the more voluminous pyroclastic flows originated by the upwelling of volcanic ejecta to heights below the rim of the crater , followed by lateral flow northward through the breach of the crater'
p332
aS'the crater rim drive and chain of craters road wind their way through a sea of jagged black lava that has been deposited by the kilauea volcano in the shadow of towering mauna loa , on the big island of hawaii'
p333
aS'puu puai is visible from crater rim drive and from devastation trail'
p334
aS'crater rim drive is near the top of the slide'
p335
aS'leaving crater rim drive behind , we turned onto chain of craters road , descending the eastern slope of the volcano to the pacific'
p336
aS'granted , the robot had to be rescued on the return trip , when it tipped over 350 feet short of the crater rim'
p337
asg9
(lp338
S'les bornes de b\xc3\xa9ton que vous croiserez sur les bords du crat\xc3\xa8re sont autant de points fixes , enfonc\xc3\xa9s tr\xc3\xa8s profond\xc3\xa9ment dans le sol , qui permettent aux sp\xc3\xa9cialistes de mesurer r\xc3\xa9guli\xc3\xa8rement les moindres mouvements du volcan'
p339
aS'assis au bord du crat\xc3\xa8re du pariou , nous imaginions ensemble ce qui avait du se passer il y a 8 000 ans environ'
p340
aS'au bromo en indon\xc3\xa9sie , des offrandes fleurs , soie , nourriture , pi\xc3\xa8ces de monnaie \xc3\xa0 brahma sont d\xc3\xa9pos\xc3\xa9es au bord du crat\xc3\xa8re ou jet\xc3\xa9es dans celui-ci ; des pr\xc3\xaatres , suivis des fid\xc3\xa8les , doivent faire , de nuit , trois fois le tour du crat\xc3\xa8re pour assurer une nouvelle ann\xc3\xa9e sans \xc3\xa9ruptions'
p341
aS'lac nyos cameroun de notre envoy\xc3\xa9 sp\xc3\xa9cial vue des bords du crat\xc3\xa8re , la t\xc3\xaate du puits appara\xc3\xaet comme une t\xc3\xaate d \xc3\xa9pingle au milieu du lac'
p342
aS'cette station laser automatique mesure une fois par minute la distance entre les deux bords du crat\xc3\xa8re principal du piton de la fournaise \xc3\xa0 5 millim\xc3\xa8tres pr\xc3\xa8s'
p343
aS'un extensom\xc3\xa8tre mesure l \xc3\xa9cartement des deux l\xc3\xa8vres d une faille dans le crat\xc3\xa8re principal du volcan , tandis qu un distancem\xc3\xa8tre automatique rel\xc3\xa8ve \xc3\xa0 chaque minute la distance entre les deux bords du crat\xc3\xa8re principal , soit 697 m\xc3\xa8tres , avec une pr\xc3\xa9cision de quelques millim\xc3\xa8tres'
p344
aS'nous arrivons au bord du crat\xc3\xa8re actif , b\xc3\xa9ant'
p345
aS'une fa\xc3\xa7on de prendre le pouls du colosse au bord du crat\xc3\xa8re du vulcano \xc3\xaeles eoliennes , un chercheur mesure \xc3\xa0 distance la temp\xc3\xa9rature d une fumerolle \xc3\xa0 l aide d un pistolet \xc3\xa0 infrarouges'
p346
aS'mais le bord du crat\xc3\xa8re est parcouru de vents contraires qui ont rapidement raison des flammes'
p347
aS'au d\xc3\xa9but d avril 1906 , le panache de vapeur qui sortait constamment du crat\xc3\xa8re s accrut ; en m\xc3\xaame temps , des secousses sismiques , des grondements souterrains , de petites explosions qui firent sauter le bord du crat\xc3\xa8re constitu\xc3\xa8rent la phase pr\xc3\xa9liminaire'
p348
aS'certes , des pr\xc3\xa9l\xc3\xa8vements in\xc3\xa9dits de gaz , de chlore , de m\xc3\xa9taux lourds qui vont \xc3\xaatre analys\xc3\xa9s \xc3\xa0 grenoble ont \xc3\xa9t\xc3\xa9 effectu\xc3\xa9s au bord du crat\xc3\xa8re , et la mission est revenue riche d exp\xc3\xa9riences oc\xc3\xa9anographiques'
p349
aS'pour parer \xc3\xa0 toute \xc3\xa9ventualit\xc3\xa9 , des abris antibombes ont \xc3\xa9t\xc3\xa9 construits sur le bord du crat\xc3\xa8re , rempli d acide chaud'
p350
aS'quand la montagne est en crise , comme ici au bord du crat\xc3\xa8re fumant du kilauea , la f\xc3\xaate rev\xc3\xaat un caract\xc3\xa8re propitiatoire'
p351
aS'au bord du crat\xc3\xa8re du kawah idjen , en indon\xc3\xa9sie , les fumerolles d\xc3\xa9posent de grandes quantit\xc3\xa9s de soufre'
p352
aS'c est sous la conduite d un vulcanologue que la fnac voyages 6 , bd de s\xc3\xa9bastopol , 75004 paris , t\xc3\xa9l.: 42-71-31-25 propose d aller bivouaquer au bord du crat\xc3\xa8re pour y observer et y photographier le spectacle'
p353
aS'au bord du crat\xc3\xa8re actuel sans doute celui de l \xc3\xa9ruption de 1631 , vous entendrez s\xc3\xbbrement l un des guides essayer de communiquer un frisson de crainte \xc3\xa0 un groupe de touristes , en affirmant que le v\xc3\xa9suve va se r\xc3\xa9veiller tr\xc3\xa8s , tr\xc3\xa8s bient\xc3\xb4t peut-\xc3\xaatre m\xc3\xaame dans la demi-heure qui sui !'
p354
aS'les images les montrent au bord des crat\xc3\xa8res , \xc3\xa0 quelques m\xc3\xa8tres des projections de magma incandescent'
p355
aS'<#mon-7-105> le monde du 08/03/1994 pag : 13 titre de l articl : environnement l exp\xc3\xa9dition de jean-louis etienne sur le volcan erebus les images du cousteau des glaces castaing michel si jean-louis etienne ne devait conserver qu un unique souvenir de son exp\xc3\xa9dition , achev\xc3\xa9e la semaine derni\xc3\xa8re , sur l erebus , seul volcan du p\xc3\xb4le sud en activit\xc3\xa9 , ce serait , a-t-il confi\xc3\xa9 mardi 1 mars devant la presse , les deux heures pass\xc3\xa9es seul , \xc3\xa9go\xc3\xafstement , au bord du crat\xc3\xa8re'
p356
ass(S'cone'
p357
S'c\xc3\xb4ne'
p358
S'scoria'
p359
S'scorie'
p360
tp361
(dp362
g7
(lp363
S'the mare lava flows are associated with a number of volcanic vents , in the form of domes and scoria cones'
p364
aS'strombolian pyroclastic activity began at the site the following day and by the end of the day it generated a 40-m-high scoria cone'
p365
aS'two end-member genetic types of airfall deposits are recognize : scoria-fall deposits -- these are derived from strombolian eruptions of scoria cones'
p366
aS'typically , these eruptions form scoria cones composed of basaltic pryoclasts'
p367
aS'many inactive scoria cones , on the other hand , may be viewed as extinct shortly after they erupt , because such volcanoes are typically monogenetic and only erupt once'
p368
aS'scoria cones are composed almost wholly of ejected basaltic tephra'
p369
aS'unlike the other two main volcano types , scoria cones have straight sides and very large summit craters , with respect to their relatively small edifices'
p370
aS'the form and composition of the three main volcano types are summarized her : volcano typ : scoria cone , shield volcano , stratovolcano eruption type : strombolian , hawaiian , plinian'
p371
aS'scoria cones are generated by strombolian eruptions , which produce eruptive columns of basalt tephra generally only a few hundred meters high'
p372
aS'lava flows , for example , are more common in relatively non-explosive basaltic eruptions associated with sheild volcanoes , scoria cones , and fissures'
p373
aS'where scoria cones have been breached , they typically reveal red-oxidized interiors'
p374
aS'basaltic lava flows erupt primarily from shield volcanoes , fissure systems , and scoria cones'
p375
aS'scoria cones'
p376
aS'many scoria cones are monogenetic in that they only erupt once , in contrast to shield volcanoes and stratovolcanoes'
p377
aS'an exception is the cerro negro volcano in nicaragua , which is the earth s most historically active scoria cone'
p378
aS'scoria cones , also known as cinder cones , are the most common type of volcano'
p379
aS'the edifice has very steep slopes , up to 35 degrees , although older eroded scoria cones typically have gentler slopes , from 15 to 20 degrees'
p380
aS'pyroclastic deposits are minor < 1% and of limited dispersal , generally from flank eruptions associated with parasitic scoria cones , or from rare , localized hydrovolcanic eruptions'
p381
aS'the final height of the scoria cone was 424 m'
p382
aS'the lunar scoria cones are similar in size to terrestrial scoria cones , and they appear to be associated with older fissure systems'
p383
asg9
(lp384
S'les c\xc3\xb4nes de scories ici , au piton de la fournaise , \xc3\xaele de la r\xc3\xa9union s \xc3\xa9difient \xc3\xa0 partir des fontaines de lave'
p385
aS'ainsi , entre -100 000 ans et -8 000 ans , quelques dizaines de c\xc3\xb4nes de scories entour\xc3\xa9s de leurs coul\xc3\xa9es se sont construits'
p386
aS'80 d entre eux sont des c\xc3\xb4nes de scories de type strombolien r\xc3\xa9sultant chacun d une \xc3\xa9ruption unique \xc3\xa9difices monog\xc3\xa9niques'
p387
aS'ici le c\xc3\xb4ne de scories du pariou , vieux de 9 000 ans , \xc3\xa9difi\xc3\xa9 en quelques mois d \xc3\xa9ruption'
p388
aS'effondrements intra-crat\xc3\xa9riques effusions c\xc3\xb4ne adventif conduit d alimentation chemin\xc3\xa9e dispersion par le vent trajectoires paraboliques bombes faci\xc3\xa8s c\xc5\x93ur de c\xc3\xb4ne scories rouges faci\xc3\xa8s bas de c\xc3\xb4ne scories noires pluie de cendres et lapilli \xc3\xa9boulements retomb\xc3\xa9es a\xc3\xa9riennes = saupoudrage figure 9.8 principaux types d \xc3\xa9difices volcaniques'
p389
aS'exploitation de la pouzzolane du volcan de lemptegy spatter cone , c\xc3\xb4ne de scories soud\xc3\xa9es'
p390
aS'on aper\xc3\xa7oit au fond un petit c\xc3\xb4ne de scories ; la terrasse , qui surplombe en arri\xc3\xa8re-plan , est le reste d un ancien niveau du plancher du crat\xc3\xa8re'
p391
ass(S'cinder'
p392
S'scorie'
p393
S'mound'
p394
S'tas'
p395
tp396
(dp397
g7
(lp398
S'most of it falls near the summit , building a steep-sided mound of cinders'
p399
asg9
(lp400
S'- les coul\xc3\xa9es rugueuses , morcel\xc3\xa9es , souvent \xc3\xa9paisses , formant des tas de scories'
p401
ass(S'fountain'
p402
S'fontaine'
p403
S'spout'
p404
S'jaillir'
p405
tp406
(dp407
g7
(lp408
S'it was continuously in motion , rising and falling sometimes several hundred feet a day , with molten material surging against the crater walls , fountains spouting 30 feet high , and sulfurous fumes shrouding the crater'
p409
aS'hawaiian eruptions typically start with lava fountains spouting from a series of nearly continuous fissures , curtains of fire. as most eruptions progress , lava-fountain activity becomes localized at a single vent an opening from which lava issues , generally within hours of the initial outbreak'
p410
asg9
(lp411
ss(S'cinder'
p412
S'scorie'
p413
S'accumulation'
p414
S'amas'
p415
tp416
(dp417
g7
(lp418
S'cinder cones are conical hills produced by the accumulation of cinders and other tephra'
p419
aS'a cinder cones is a conical hill formed by the accumulation of cinders and other pyroclasts , normally of basaltic and andesitic composition bates and jackson , 1980 , p'
p420
asg9
(lp421
S'aujourd hui , la nature investitpeu \xc3\xa0 peu les coul\xc3\xa9es de lave et les amas de scories de surtsey'
p422
ass(S'magma'
p423
S'magma'
p424
S'reservoir'
p425
S'r\xc3\xa9servoir'
p426
tp427
(dp428
g7
(lp429
S'in early 1994 , researchers noticed that the flank stopped moving after pressure in the magma reservoir dropped slightly'
p430
aS'macdonald 1965 concluded that calderas grow by piecemeal collapse above the shallow magma reservoir'
p431
aS'the data from this systematic gas monitoring show that the changes in composition of the emissions can be related to the inflation swelling and deflation shrinking of the magma reservoir'
p432
aS'mauna loa s magma reservoir also may be larger than kilauea s , which would be consistent with the observations that mauna loa eruptions tend to be characterized by higher lava-output rates , longer eruptive fissures , and larger lava flows'
p433
aS'during summit eruptions , the magma reservoir deflates only slightly , if at all'
p434
aS'whether this is so is a topic of scientific debate , because abundant chemical and physical evidence indicates that each volcano has its own shallow magma reservoir that operates independently of the other'
p435
aS'calderas are large steep-walled depressions that form when a volcano s summit region collapses , usually after a large eruption empties or partly empties a reservoir of magma beneath the volcano'
p436
aS'79 , may be sitting atop a reservoir of magma that covers more than 400 square kilometers , a new study suggests'
p437
aS'cut-away view looking deep beneath kilauea volcano , showing the shallow magma reservoir and the principal magma passageways'
p438
aS'the overlying rocks act like a giant piston and push down on the magma reservoir'
p439
aS'the formation of a caldera probably requires the presence of a magma reservoir within a few miles kilometers of the summit of the shield volcano macdonald , 1965'
p440
aS'however , once eruption begins , the shrinking or deflation of the volcano typically occurs rapidly as pressure on the magma reservoir is relieved -- a process not unlike deflating a balloon'
p441
aS'patterns of small earthquakes suggested that the magma reservoir was smaller and deeper than inferred from exhumed roots of older strato-volcanoes 9'
p442
aS'surface water percolates downward through the rocks below the earth s surface to high-temperature regions surrounding a magma reservoir , either active or recently solidified but still hot'
p443
aS'kilauea s eruptions are so intensely monitored that scientists have assembled a detailed picture of the volcano s magma reservoir plumbing system and how it behaves before and during eruptions'
p444
aS'the model consists of two main elements , a magma reservoir a few kilometers beneath the volcano s summit and a fault under the mountain s south flank'
p445
aS'the gas ratios should help researchers gauge the stamina of each of etna s now five active vents by determining which are drawing from the main magma reservoir'
p446
aS'the second holds that when the magma reservoir beneath the island emptied , it sucked a mass of water down , setting the surrounding ocean in motion'
p447
aS'the krakatau eruption served as a reminder of how a large eruption can create a void in the magma reservoir , into which a roof several kilometers in thickness can collapse'
p448
aS'scientists do not know the cause of these ups and downs but hypothesize that they are related to the addition or withdrawal of magma beneath the caldera , or to the changing pressure of the hot ground water system above yellowstone s large magma reservoir'
p449
aS'prior to the eruption , a reservoir of magma existed in the east rift zone beneath the present location of the puu oo vent'
p450
aS'the picture that emerged , the researchers report , includes a magma reservoir buried eight kilometers deep in the earth s crust that is at least 400 square kilometers wide'
p451
aS'instead , it accumulates in a network of small fractures , forming a reservoir of magma at a depth of around 20 kilometres , near the base of the crust'
p452
aS'magma that erupts from the flank of a volcano must first flow underground through one of the volcano s rift zones , sometimes traveling more than 30 kilometers from the summit magma reservoir before breaking the surface'
p453
asg9
(lp454
S'mais chaque volcan est unique , et il est difficile d en comprendre le dynamisme \xc3\xa9ruptif sans pouvoir approcher de son r\xc3\xa9servoir de magma'
p455
aS'enfin , si le sommet d un volcan s effondre parce que son r\xc3\xa9servoir de magma s est partiellement vid\xc3\xa9 , on parle d \xc3\xa9ruption d effondrement'
p456
aS'la forme du r\xc3\xa9servoir de magma , situ\xc3\xa9 \xc3\xa0 faible profondeur sous le kilauea , \xc3\xa0 hawaii , a pu \xc3\xaatre d\xc3\xa9termin\xc3\xa9e en haut par les volcanologues'
p457
aS'quand surviennent de grosses \xc3\xa9ruptions qui \xc3\xa9mettent des kilom\xc3\xa8tres cubes de lave en quelques heures , les r\xc3\xa9servoirs de magma se vident rapidement et se transforment brusquement en grandes cavernes'
p458
aS'a yellowstone , aux \xc3\x89tats-unis , un r\xc3\xa9servoir de magma , situ\xc3\xa9 \xc3\xa0 une profondeur de 6 kilom\xc3\xa8tres , chauffe les deux cents geysers de la zone'
p459
aS'en simplifiant , disons que certains d entre eux estiment que la diff\xc3\xa9rence de densit\xc3\xa9 entre le magma en fusion et la roche solide qui l entoure suffit \xc3\xa0 expliquer la mont\xc3\xa9e du magma chaud d autres font intervenir des r\xc3\xa9actions plus complexe : l \xc3\xa9ruption serait due \xc3\xa0 l injection de magma basique dans le r\xc3\xa9servoir de magma acide riche en silice , ou \xc3\xa0 l inverse'
p460
aS'une coupe verticale dans un volcan montre qu il est constitu\xc3\xa9 de trois parties principales : le r\xc3\xa9servoir de magma , la chemin\xc3\xa9e et l appareil volcanique situ\xc3\xa9 \xc3\xa0 la surface'
p461
aS'l \xc3\xa9ruption s arr\xc3\xaate quand le r\xc3\xa9servoir de magma est vide ou quand la pression devient trop faible pour faire monter les roches fondues'
p462
aS'chambre magmatiqu : gigantesque r\xc3\xa9servoir de magma situ\xc3\xa9 sous le volcan , entre 5 et 10 kilom\xc3\xa8tres de profondeur'
p463
aS'selon des \xc3\xa9tudes g\xc3\xa9ophysiques mentionn\xc3\xa9es par maurice krafft dans ses questions \xc3\xa0 un volcanologue , il existe sous cette cha\xc3\xaene une importante anomalie magn\xc3\xa9tique qui traduit l existence d un important r\xc3\xa9servoir de magma superficiel \xc3\xa0 environ 5 km de profondeur , \xc3\xa9pais de 1 km et allong\xc3\xa9 selon la direction de la cha\xc3\xaene , du lac d aydat au sud , au col de la nug\xc3\xa8re au nord'
p464
aS'au contraire , si un volcan a une chemin\xc3\xa9e ouverte , en communication permanente avec le r\xc3\xa9servoir de magma , la lave peut sortir sans interruption et le crat\xc3\xa8re ne s arr\xc3\xaatera pas d exploser pendant des ann\xc3\xa9es , comme le fait le stromboli en italie'
p465
aS'la vidange brutale , sous le volcan , du r\xc3\xa9servoir de magma , provoque l \xc3\xa9croulement du sommet et la cr\xc3\xa9ation d un vaste crat\xc3\xa8re circulaire : la caldera'
p466
aS'le jour o\xc3\xb9 elle le sera , rien que dans l ouest des \xc3\x89tats-unis , il y a assez de r\xc3\xa9servoirs de magma situ\xc3\xa9s \xc3\xa0 moins de 10 kilom\xc3\xa8tres de profondeur pour produire 5 000 fois la consommation annuelle d \xc3\xa9lectricit\xc3\xa9 de cet \xc3\xa9norme pays'
p467
aS'alignements de crat\xc3\xa8res fissures r\xc3\xa9servoir de magma islande : cette \xc3\xaele volcanique jeune soixante millions d ann\xc3\xa9es s \xc3\xa9tend sur 102 846 kilom\xc3\xa8tres carr\xc3\xa9s , dont le dixi\xc3\xa8me est couvert de glace'
p468
aS'il se forme dans les profondeurs de la terre o\xc3\xb9 il est stock\xc3\xa9 dans d \xc3\xa9normes r\xc3\xa9servoirs de magma'
p469
aS'une centaine de forages y captent de la vapeur \xc3\xa0 200 \xc2\xb0c accumul\xc3\xa9e au-dessus d un r\xc3\xa9servoir de magma encore chaud'
p470
aS'mais on envisage d\xc3\xa9j\xc3\xa0 d utiliser directement l \xc3\xa9nergie volcanique en pompant la chaleur dans les r\xc3\xa9servoirs de magma enfouis sous les volcans actifs'
p471
aS'les r\xc3\xa9servoirs de magma , dont les volumes atteignent souvent des dizaines de kilom\xc3\xa8tres cubes , ont des formes tr\xc3\xa8s compliqu\xc3\xa9es et vari\xc3\xa9es : les uns sont allong\xc3\xa9s , d autres \xc3\xa9tir\xc3\xa9s en tuyaux qui tournent dans tous les sens , d autres encore remplissent les moindres trous et fissures des roches , comme l eau impr\xc3\xa8gne une \xc3\xa9ponge'
p472
ass(S'gas'
p473
S'gaz'
p474
S'poisonous'
p475
S'toxique'
p476
tp477
(dp478
g7
(lp479
S'26 september 1995 , p.1 volcano emergency alert / home news mount ruapehu , new zealand michael munro boulders , mud , ash and poisonous gases are hurled thousands of feet in the air as an eruption of mount ruapehu in new zealand s north island gained in intensity yesterday'
p480
aS'but a cameroonian geology professor , isaac konfor njilah , said several thousand villagers faced danger from burning magma and poisonous gases'
p481
aS'for example , lava tubes on active and dormant volcanoes may be dangerous to walk in because they can trap poisonous gases'
p482
aS'by saturday night , nearly 48,000 people had taken shelter in schools , tents and other government buildings around the cone-shaped mountain , even though only 32,000 had been asked to move because of threats of lava flows , rocks and poisonous gases'
p483
asg9
(lp484
S'une \xc3\xa9ruption moyenne d\xc3\xa9gage moins de gaz toxiques qu une centrale \xc3\xa9lectrique br\xc3\xbblant du charbon'
p485
aS'en 1984 , un jaillissement de gaz toxique pr\xc3\xa8s d un autre volcan , \xc3\xa0 quelque 200 km du mont cameroun , avait tu\xc3\xa9 37 paysans , retrouv\xc3\xa9s asphyxi\xc3\xa9s exactement comme les morts du lac nios'
p486
aS'les gaz toxiques , la temp\xc3\xa9rature insupportable , la pluie de cendres incandescentes et de sables ont fait de nombreuses victimes 3'
p487
aS'tout le monde est d accord pour penser que le gaz toxique est venu du fond du lac'
p488
aS'en 1986 , l \xc3\xa9ruption du lac volcanique de nyos au cameroun lib\xc3\xa9ra une nu\xc3\xa9e de gaz toxiques et provoqua la mort de 1 700 personnes'
p489
aS'l autre explication , propos\xc3\xa9e par un ing\xc3\xa9nieur du cnrs , brille surtout pas son ing\xc3\xa9niosit\xc3\xa9 et par les perspectives optimistes qu elle ouvrirait quant \xc3\xa0 la possibilit\xc3\xa9 de pr\xc3\xa9voir \xc3\xa0 temps une nouvelle exhalaison de gaz toxiques'
p490
aS'malgr\xc3\xa9 le danger , les gaz toxiques , la p\xc3\xa9nibilit\xc3\xa9 de sa t\xc3\xa2che , il pr\xc3\xa9f\xc3\xa8re la montagne , les bivouacs sous sa hutte de chaume o\xc3\xb9 , pour lutter contre le froid , il doit dormir serr\xc3\xa9 entre ses deux apprentis , dans la fum\xc3\xa9e \xc3\xa2cre du foyer , qui chasse les insectes mais n effarouche pas les rats'
p491
aS'de haut en bas et de gauche \xc3\xa0 droite : rester \xc3\xa9loign\xc3\xa9 des coul\xc3\xa9es de lave ; se prot\xc3\xa9ger le visage des gaz toxiques ; attention aux projections de bombes volcaniques jusque dans la mer ; gagner les points \xc3\xa9lev\xc3\xa9s en cas de raz de mar\xc3\xa9e ; s abriter sous des structures solides en cas de s\xc3\xa9isme aquarelle isabelle bardintzeff'
p492
aS'celui du second plan , vert , est acide et bouillonne en son centre ; la v\xc3\xa9g\xc3\xa9tation a \xc3\xa9t\xc3\xa9 d\xc3\xa9truite tout autour par les gaz toxiques'
p493
aS'\xc3\xa0 quero et macha , les habitants se prot\xc3\xa8gent des cendres et des gaz toxiques \xc3\xa0 l aide de masques , de foulards ou de mouchoirs'
p494
aS'selon l une , une fraction au moins des gaz toxiques ne serait pas d origine volcanique'
p495
aS'aucune substance alimentaire ne pr\xc3\xa9serve des effets foudroyants d un passage de gaz toxique'
p496
aS'en cas de reprise d activit\xc3\xa9 , les micros\xc3\xa9ismes engendr\xc3\xa9s par la mont\xc3\xa9e du magma , peuvent fissurer les parois du lac et l amener \xc3\xa0 se vidanger ou lib\xc3\xa9rer de grandes nappes meurtri\xc3\xa8res de gaz toxiques'
p497
aS'avant le jaillissement du fond du crat\xc3\xa8re du gaz toxique , cette boue s accumulait au fond du lac'
p498
aS'a la diff\xc3\xa9rence des lacs acides , au fond desquels des fumerolles lib\xc3\xa8rent toutes sortes de gaz toxiques , aucune source ne vient polluer ses eaux claires'
p499
aS'un quart de la population et trois quarts du b\xc3\xa9tail islandais ont succomb\xc3\xa9 sous les torrents de lave 565 kilom\xc3\xa8tres carr\xc3\xa9s , les nu\xc3\xa9es ardentes , les pluies de cendres 8000 kilom\xc3\xa8tres carr\xc3\xa9s et les gaz toxiques'
p500
aS'tout autour , il ne reste que le spectre de la for\xc3\xaat vierge , empoisonn\xc3\xa9e par les gaz toxiques'
p501
aS'bravant fumerolles et gaz toxiques , des mineurs y ramassent le pr\xc3\xa9cieux pactole au p\xc3\xa9ril de leur vie'
p502
aS'les gaz les gaz sont omnipr\xc3\xa9sents lors de toutes les phases d activit\xc3\xa9 volcaniqu : en majorit\xc3\xa9 de la vapeur d eau peu dangereuse mais aussi des gaz toxiques tels le dioxyde de soufre , l hydrog\xc3\xa8ne sulfur\xc3\xa9 ou encore le gaz carbonique'
p503
aS'le magma charg\xc3\xa9 de gaz toxiques qui se rue \xc3\xa0 la surface de la terre se fragmente en poussi\xc3\xa8res , blocs de pierre , etc. , engendrant une rapide nu\xc3\xa9e ardente qui extermine tout ce qu elle recouvre , enterrant la vie sous une couche de cendres de plusieurs dizaines ou centaines de m\xc3\xa8tres d \xc3\xa9paisseur \xc3\xa0 des centaines de kilom\xc3\xa8tres \xc3\xa0 la ronde lire l encadr\xc3\xa9 ci-dessus'
p504
aS'or il se trouve que pour les sp\xc3\xa9cialistes , apparition d une nappe de gaz toxique dans une r\xc3\xa9gion volcanique n a rien d insolite ni d \xc3\xa9nigmatique'
p505
aS'nous trouvons un emplacement judicieux pour nos deux petites tentes , sur une plateforme situ\xc3\xa9e \xc3\xa0 mi-hauteur de la paroi du crat\xc3\xa8re , o\xc3\xb9 nous serons \xc3\xa0 la fois prot\xc3\xa9g\xc3\xa9s du vent et au-dessus d \xc3\xa9ventuels nuages de gaz toxiques'
p506
aS'certains volcans de cet alignements pr\xc3\xa9sentent des risques importants car leur lac de crat\xc3\xa8re a lib\xc3\xa9r\xc3\xa9 des gaz toxiques : 37 morts au lac monoun en 1984 et 1 746 morts au lac nyos en 1986'
p507
ass(S'gas'
p508
S'gaz'
p509
S'discharge'
p510
S'lib\xc3\xa9rer'
p511
tp512
(dp513
g7
(lp514
S'a volcano is essentially an opening or a vent through which this magma and the dissolved gases it contains are discharged'
p515
aS'some mild eruptions merely discharge steam and other gases , whereas other eruptions quietly extrude quantities of lava'
p516
aS'79 , great quantities of ash-laden gas are violently discharged to form cauliflower-shaped cloud high above the volcano'
p517
aS'these new methods include monitoring the changes i : the composition and amount of volcanic gases discharged such as sulfur dioxide , carbon dioxide , hydrogen , helium , and radon; the magnetic and gravitational fields of the volcano; and the various geoelectrical properties of the volcano'
p518
asg9
(lp519
S'sa bordure nord lib\xc3\xa8re des gaz en grande quantit\xc3\xa9'
p520
aS'apr\xc3\xa8s avoir lib\xc3\xa9r\xc3\xa9 violemment gaz et vapeur d eau , le volcan sicilien vomit d\xc3\xa9sormais des fontaines de lave par les multiples fissures ouvertes entre 2 500 et 2 700 m\xc3\xa8tres'
p521
aS'le stromboli lib\xc3\xa8re aussi des gaz en abondance et , selon la direction du vent , une grande prudence s impose'
p522
aS'1986 21 ao\xc3\xbbt du gaz carbonique lib\xc3\xa9r\xc3\xa9 par le lac nyos au cameroun asphyxie 1746 personnes'
p523
aS'20 \xc3\xa0 30 jets se succ\xc3\xa8dent pendant des phases de deux minutes , s\xc3\xa9par\xc3\xa9es par 15 \xc3\xa0 20 minutes de repos durant lesquelles des gaz sont bruyamment lib\xc3\xa9r\xc3\xa9s'
p524
aS'ind 98.4.07 le kawah idjen en indon\xc3\xa9sie lib\xc3\xa8re en abondance des gaz soufr\xc3\xa9s dioxyde de soufre'
p525
aS'le crat\xc3\xa8re lib\xc3\xa8re aussi des gaz faits d un m\xc3\xa9lange d eau et d \xc3\xa9l\xc3\xa9ments comme le soufre , le chlore , le fluor , le carbone , l azote et une centaine d \xc3\xa9l\xc3\xa9ments mineurs dont des hallog\xc3\xa8nes , des \xc3\xa9l\xc3\xa9ments alcalins sodium , potassium'
p526
aS'a la diff\xc3\xa9rence des lacs acides , au fond desquels des fumerolles lib\xc3\xa8rent toutes sortes de gaz toxiques , aucune source ne vient polluer ses eaux claires'
p527
aS'fountain paint pot sont des mares boueuses qui clapotent doucement en lib\xc3\xa9rant leurs gaz'
p528
aS'les \xc3\xa9difices rendus instables s effondrent , lib\xc3\xa9rant instantan\xc3\xa9ment et violemment les gaz'
p529
aS'sur la l\xc3\xa8vre sud , deux champs fumerolliens , gendol et woro , lib\xc3\xa8rent , par de petits orifices , des gaz sous pression'
p530
aS'l alternance des styles explosif - effusif est assez classique , le second succ\xc3\xa9dant au premier lorsque la majorit\xc3\xa9 des gaz a \xc3\xa9t\xc3\xa9 lib\xc3\xa9r\xc3\xa9e'
p531
aS'en refroidissant , les coul\xc3\xa9es de lave lib\xc3\xa8rent des tonnes de gaz qui se propagent sur l ensemble de l \xc3\xaele et contaminent les cultures et les eaux de surface'
p532
aS'il lib\xc3\xa8re alors peu \xc3\xa0 peu le gaz qu il contenait \xc3\xa0 l \xc3\xa9tat dissous , un peu comme une boisson gazeuse quand on a d\xc3\xa9bouch\xc3\xa9 prudemment la bouteille'
p533
aS'les gaz s en lib\xc3\xa8rent brutalement , pulv\xc3\xa9risant la lave en cendres fines'
p534
aS'certains volcans de cet alignements pr\xc3\xa9sentent des risques importants car leur lac de crat\xc3\xa8re a lib\xc3\xa9r\xc3\xa9 des gaz toxiques : 37 morts au lac monoun en 1984 et 1 746 morts au lac nyos en 1986'
p535
ass(S'cinder'
p536
S'scorie'
p537
S'hot'
p538
S'rouge'
p539
tp540
(dp541
g7
(lp542
sg9
(lp543
S'effondrements intra-crat\xc3\xa9riques effusions c\xc3\xb4ne adventif conduit d alimentation chemin\xc3\xa9e dispersion par le vent trajectoires paraboliques bombes faci\xc3\xa8s c\xc5\x93ur de c\xc3\xb4ne scories rouges faci\xc3\xa8s bas de c\xc3\xb4ne scories noires pluie de cendres et lapilli \xc3\xa9boulements retomb\xc3\xa9es a\xc3\xa9riennes = saupoudrage figure 9.8 principaux types d \xc3\xa9difices volcaniques'
p544
ass(S'scoria'
p545
S'scorie'
p546
S'cone'
p547
S'c\xc3\xb4ne'
p548
tp549
(dp550
g7
(lp551
S'the mare lava flows are associated with a number of volcanic vents , in the form of domes and scoria cones'
p552
aS'strombolian pyroclastic activity began at the site the following day and by the end of the day it generated a 40-m-high scoria cone'
p553
aS'two end-member genetic types of airfall deposits are recognize : scoria-fall deposits -- these are derived from strombolian eruptions of scoria cones'
p554
aS'typically , these eruptions form scoria cones composed of basaltic pryoclasts'
p555
aS'many inactive scoria cones , on the other hand , may be viewed as extinct shortly after they erupt , because such volcanoes are typically monogenetic and only erupt once'
p556
aS'scoria cones are composed almost wholly of ejected basaltic tephra'
p557
aS'unlike the other two main volcano types , scoria cones have straight sides and very large summit craters , with respect to their relatively small edifices'
p558
aS'the form and composition of the three main volcano types are summarized her : volcano typ : scoria cone , shield volcano , stratovolcano eruption type : strombolian , hawaiian , plinian'
p559
aS'scoria cones are generated by strombolian eruptions , which produce eruptive columns of basalt tephra generally only a few hundred meters high'
p560
aS'lava flows , for example , are more common in relatively non-explosive basaltic eruptions associated with sheild volcanoes , scoria cones , and fissures'
p561
aS'where scoria cones have been breached , they typically reveal red-oxidized interiors'
p562
aS'basaltic lava flows erupt primarily from shield volcanoes , fissure systems , and scoria cones'
p563
aS'scoria cones'
p564
aS'many scoria cones are monogenetic in that they only erupt once , in contrast to shield volcanoes and stratovolcanoes'
p565
aS'an exception is the cerro negro volcano in nicaragua , which is the earth s most historically active scoria cone'
p566
aS'scoria cones , also known as cinder cones , are the most common type of volcano'
p567
aS'the edifice has very steep slopes , up to 35 degrees , although older eroded scoria cones typically have gentler slopes , from 15 to 20 degrees'
p568
aS'pyroclastic deposits are minor < 1% and of limited dispersal , generally from flank eruptions associated with parasitic scoria cones , or from rare , localized hydrovolcanic eruptions'
p569
aS'the final height of the scoria cone was 424 m'
p570
aS'the lunar scoria cones are similar in size to terrestrial scoria cones , and they appear to be associated with older fissure systems'
p571
asg9
(lp572
S'les c\xc3\xb4nes de scories ici , au piton de la fournaise , \xc3\xaele de la r\xc3\xa9union s \xc3\xa9difient \xc3\xa0 partir des fontaines de lave'
p573
aS'ainsi , entre -100 000 ans et -8 000 ans , quelques dizaines de c\xc3\xb4nes de scories entour\xc3\xa9s de leurs coul\xc3\xa9es se sont construits'
p574
aS'80 d entre eux sont des c\xc3\xb4nes de scories de type strombolien r\xc3\xa9sultant chacun d une \xc3\xa9ruption unique \xc3\xa9difices monog\xc3\xa9niques'
p575
aS'ici le c\xc3\xb4ne de scories du pariou , vieux de 9 000 ans , \xc3\xa9difi\xc3\xa9 en quelques mois d \xc3\xa9ruption'
p576
aS'effondrements intra-crat\xc3\xa9riques effusions c\xc3\xb4ne adventif conduit d alimentation chemin\xc3\xa9e dispersion par le vent trajectoires paraboliques bombes faci\xc3\xa8s c\xc5\x93ur de c\xc3\xb4ne scories rouges faci\xc3\xa8s bas de c\xc3\xb4ne scories noires pluie de cendres et lapilli \xc3\xa9boulements retomb\xc3\xa9es a\xc3\xa9riennes = saupoudrage figure 9.8 principaux types d \xc3\xa9difices volcaniques'
p577
aS'exploitation de la pouzzolane du volcan de lemptegy spatter cone , c\xc3\xb4ne de scories soud\xc3\xa9es'
p578
aS'on aper\xc3\xa7oit au fond un petit c\xc3\xb4ne de scories ; la terrasse , qui surplombe en arri\xc3\xa8re-plan , est le reste d un ancien niveau du plancher du crat\xc3\xa8re'
p579
ass(S'eruption'
p580
S'\xc3\xa9ruption'
p581
S'cataclysmic'
p582
S'cataclysmique'
p583
tp584
(dp585
g7
(lp586
S'wings over kamchatka gave carsten peter a new perspective on uzon caldera below , a 40-square-mile depression left behind by a cataclysmic eruption 40,000 years ago'
p587
aS'it was followed by warnings that the island could be threatened by a cataclysmic eruption'
p588
aS'i think the same thing is set to happen again. it is unlikely that etna will produce a cataclysmic eruption like those that have typified its northerly counterpart , vesuvius'
p589
aS'the minister s aides said yesterday that he had read from a draft report stating that a cataclysmic eruption could not be ruled out'
p590
aS'the cataclysmic eruption and related events on may 18 rank among the most significant geologic events in the united states during the 20th century'
p591
aS'in a clear effort at fence-mending during his two-day visit to montserrat , mr foulkes , whose predictions of a cataclysmic eruption by the island s active volcano sparked panic evacuations last month , said that whitehall and the local government had entered a new era of co-operation. now it is a new start and we are looking to the future and making an unequivocal commitment to both the people and the island of montserrat. mr foulkes said that he was looking at immediate needs such as housing , roads , upgrading the hospital and creating employment for the 5,000 islanders who have remained on montserrat since the soufriere hills volcano erupted two years ago for the first time in four centuries'
p592
aS'modern skills in predicting eruptions go back to the aftermath of the cataclysmic eruption of mount st helens in washington state in 1980'
p593
aS'cataclysmic eruptions 2.0 , 1.3 , and 0.6 million years ago ejected huge volumes of rhyolite magma; each eruption formed a caldera and extensive layers of thick pyroclastic-flow deposits'
p594
aS'last month mr foulkes , reading from the wrong report by the montserrat volcano observatory , had predicted a cataclysmic eruption , sparking evacuation panic among islanders'
p595
aS'[graphic omitted]* long valley , californi : a 10-by-20-mile caldera formed here during a cataclysmic eruption 760,000 years ago'
p596
aS'up to now , on stromboli , development has been checked by the unpredictability of the volcano , whose cataclysmic eruption in 1930 killed six people and drove away nearly all of the island s 8,000 residents'
p597
aS'the cataclysmic eruption and events related to it caused the worst volcanic disaster in the history of the united states'
p598
aS'last night george foulkes , minister for international development , was involved in a clash with one of the chief volcano experts in montserrat after he was accused by the island s scientists of making misleading statements about the possibility of an imminent cataclysmic eruption'
p599
asg9
(lp600
S'les volcanologues qui surveillent jour et nuit le pinatubo pensent que le risque de nouvelles \xc3\xa9ruptions cataclysmiques a diminu\xc3\xa9'
p601
aS'entre 1980 et 1985 , il y a eu plus d \xc3\xa9ruptions cataclysmiques que d habitude , mais c est probablement une co\xc3\xafncidence'
p602
aS'21 ans apr\xc3\xa8s l \xc3\xa9ruption cataclysmique du mont saint helens , des milliers de troncs d arbres flottent toujours \xc3\xa0 la surface du lac spirit'
p603
aS'des centaines d \xc3\xa9ruptions cataclysmiques , dont chacune avait la puissance d une dizaine de bombes atomiques , se succ\xc3\xa9d\xc3\xa8rent , malaxant , p\xc3\xa9trissant , fracturant le paysage que les glaciers se charg\xc3\xa8rent ensuite de fa\xc3\xa7onner'
p604
aS'a 110 kilom\xc3\xa8tres au nord de la cr\xc3\xa8te , en mer eg\xc3\xa9e , les \xc3\xaeles de l archipel de santorin sont les restes d un \xc3\xa9norme ensemble volcanique effondr\xc3\xa9 au cours d une \xc3\xa9ruption cataclysmique en 1500 avant j\xc3\xa9sus-christ voir geo n\xc2\xb0100'
p605
ass(S'gas'
p606
S'gaz'
p607
S'mask'
p608
S'masque'
p609
tp610
(dp611
g7
(lp612
S'to photograph tessier in one of mutnovsky s steaming craters , peter grappled not only with stinging eyes and his own cumbersome gas mask but also with his gear'
p613
aS'from a corner stared a dried and cracked gas mask'
p614
aS'at that time it simply wasn t standard practice for volcanologists to use lots of safety gear , except for gas masks , which many of us brought with us that day'
p615
aS'as we approach , a rising wind and thick clouds of chlorine gas force us to pause and pull on safety helmets and industrial-style gas masks that cover our noses and mouths'
p616
aS'as we approach its lip , the 39-year-old tessier--a genial and easygoing french biologist with impressive rope and rock-climbing skills honed by years of adventures like this one--rips off his gas mask and begins to hoot with pleasure'
p617
aS'minutes after the initial explosion , the island was plunged into darkness , cars and trucks began slipping and sliding on roads coated with ash , and people headed home as if through a winter blizzard , their faces covered with surgical or gas masks and their hair coated a ghostly white'
p618
aS'armed with guts and a gas mask , explorer franck tessier faces toxic steam from kamchatka s volcanoes'
p619
aS'gas masks are needed when researching eruptions that include sulfur dioxide'
p620
aS'he also didn t instruct any of the group to bring safety gear on the expedition , and most of them went into the volcano without hard hats or adequate gas masks'
p621
asg9
(lp622
S'arriv\xc3\xa9e de paris la veille , toute l \xc3\xa9quipe de c est pas sorcier , accompagn\xc3\xa9e de jacques durieux , de deux guides locaux et de quelques journalistes , \xc3\xa9quip\xc3\xa9s comme des alpinistes et prot\xc3\xa9g\xc3\xa9s par des casques et des masques \xc3\xa0 gaz , \xc3\xa9tait dimanche 10 juin , d\xc3\xa8s 8 heures du matin , au pied de l etna'
p623
aS'un masque \xc3\xa0 gaz est indispensable'
p624
aS'le gouverneur de la province d albay a ordonn\xc3\xa9 la distribution de douze mille masques \xc3\xa0 gaz aux habitants de quatre villes parmi les plus expos\xc3\xa9es , afin de r\xc3\xa9duire au minimum les risques d intoxication \xc3\xa0 la suite d inhalations de soufre contenu dans les fum\xc3\xa9es et la cendre du volcan'
p625
aS'difficile de faire un commentaire quand la sueur coule sous le masque \xc3\xa0 gaz'
p626
aS'nos masques \xc3\xa0 gaz nous sauvent de l \xc3\xa9touffement mais la sueur coule dans les yeux'
p627
aS'la sueur coule sous le masque \xc3\xa0 gaz et pique les yeux'
p628
aS'en 1934 , deux journalistes en v\xc3\xaatements ignifug\xc3\xa9s et munis de masques \xc3\xa0 gaz ont embarqu\xc3\xa9 \xc3\xa0 bord d une nacelle qui les a conduits \xc3\xa0 416 m\xc3\xa8tres de pro fondeur , dans le crat\xc3\xa8re actif du mihara yama , au japon'
p629
aS'un masque \xc3\xa0 gaz ou \xc3\xa0 poussi\xc3\xa8res sera \xc3\xa9videmment plus efficace'
p630
aS'l \xc3\xa9quipement est classiquement celui d un montagnard car il faut \xc3\xaatre le plus mobile possible face au danger : pull de laine , de bonnes chaussures de marche puis , pr\xc3\xaat du site \xc3\xa9ruptif , un casque , un masque \xc3\xa0 gaz , des gants'
p631
ass(S'volcan'
p632
S'volcan'
p633
S'shield'
p634
S'sauvegarde'
p635
tp636
(dp637
g7
(lp638
S'the mauna loa volcano on the big island of hawaii , seen here in both a oblique and satellite views , is the world s largest shield volcan : shield volcanoes are generated by hawaiian eruptions'
p639
asg9
(lp640
ss(S'cinder'
p641
S'scorie'
p642
S'red'
p643
S'rouge'
p644
tp645
(dp646
g7
(lp647
S'from the barren , red cinder cones on the summit of mauna kea to the fern-lined craters and black sand beaches of puna , volcanic activity has combined with the subtropical climate to create the scenery that draws visitors from all over the world'
p648
aS'in many eruptions , the froth is shattered explosively into small fragments that are hurled high into the air in the form of volcanic cinders red or black , volcanic ash commonly tan or gray , and volcanic dust'
p649
asg9
(lp650
S'effondrements intra-crat\xc3\xa9riques effusions c\xc3\xb4ne adventif conduit d alimentation chemin\xc3\xa9e dispersion par le vent trajectoires paraboliques bombes faci\xc3\xa8s c\xc5\x93ur de c\xc3\xb4ne scories rouges faci\xc3\xa8s bas de c\xc3\xb4ne scories noires pluie de cendres et lapilli \xc3\xa9boulements retomb\xc3\xa9es a\xc3\xa9riennes = saupoudrage figure 9.8 principaux types d \xc3\xa9difices volcaniques'
p651
ass(S'debris'
p652
S'd\xc3\xa9bris'
p653
S'coarse'
p654
S'gros'
p655
tp656
(dp657
g7
(lp658
S'coarse debris in the same eruptive plume rains into the sea and settles on the flanks of the cone'
p659
asg9
(lp660
S'tout ceci explique que le pinatubo a oblig\xc3\xa9 quelque trois cent mille personnes \xc3\xa0 fuir , qu une tr\xc3\xa8s vaste zone du pays a \xc3\xa9t\xc3\xa9 couverte , parfois submerg\xc3\xa9e , de cendres fines et de d\xc3\xa9bris plus gros \xc3\xa9crasant les maisons et autres constructions , paralysant toutes les activit\xc3\xa9s et que le volcan a tu\xc3\xa9 plusieurs centaines de personnes , dont une soixantaine \xc3\xa9cras\xc3\xa9es par l effondrement du toit d une \xc3\xa9glise dans laquelle plusieurs centaines de r\xc3\xa9fugi\xc3\xa9s avaient pens\xc3\xa9 trouver un abri'
p661
aS'transport\xc3\xa9s en altitude par la convection des gaz chauds , les plus gros d\xc3\xa9bris retombent \xc3\xa0 proximit\xc3\xa9 - \xc3\xa0 quelques kilom\xc3\xa8tres autour de l \xc3\xa9vent - alors que les plus petits continuent de s \xc3\xa9lever dans l atmosph\xc3\xa8re et sont charri\xc3\xa9s par le vent'
p662
aS'pendant ces deux jours , les tr\xc3\xa8s violentes explosions se succ\xc3\xa8dent , lan\xc3\xa7ant \xc3\xa0 une quarantaine de kilom\xc3\xa8tres d altitude des cendres qui retombent \xc3\xa0 des centaines et m\xc3\xaame des milliers de kilom\xc3\xa8tres du pinatubo , notamment \xc3\xa0 singapour , et des d\xc3\xa9bris plus gros des ponces qui arrosent les r\xc3\xa9gions avoisinantes sur plusieurs dizaines de kilom\xc3\xa8tres'
p663
ass(S'gas'
p664
S'gaz'
p665
S'inject'
p666
S'injecter'
p667
tp668
(dp669
g7
(lp670
S'large eruption columns inject ash particles and sulfur-rich gases into the troposphere and stratosphere and these clouds can circle the globe within weeks of the volcanic activity'
p671
aS'the scientists inject simulated volcanic gases through pipes at the base of the chimney'
p672
asg9
(lp673
S'le panache de l explosion injecta des millions de tonnes de gaz et de particules dans la haute atmosph\xc3\xa8re'
p674
aS'la position latitudinale du volcan est importante car elle commande dans quelle partie de la stratosph\xc3\xa8re sont inject\xc3\xa9s les cendres et les gaz volcaniques'
p675
ass(S'lava'
p676
S'lave'
p677
S'basaltic'
p678
S'basaltique'
p679
tp680
(dp681
g7
(lp682
S'two of the most common kinds of basaltic lava have the hawaiian names aa and pahoehoe'
p683
aS'for example , lapilli-size fragments of basaltic lava may cool quickly while airborne , to form glassy teardrop-shaped lapilli called pele s tears'
p684
aS'lava flows on io have many of the same characteristics as the low-viscosity basaltic lava flows found on earth , as demonstrated in the images below'
p685
aS'these hot thermal waters then ascend back through the overlying crust , where they leach out silica and numerous metals from the basaltic lava'
p686
aS'shield cones are broad , slightly domed volcanoes built primarily of fluid , basaltic lava'
p687
aS'because of their low silica content , basaltic lavas are usually very fluid'
p688
aS'this implies that the mantle plume currently generating basaltic lavas on the big island has been in existence for at least 70 million year ! the hawaiians were very good at recognizing the difference in the older , eroded volcanic islands and newer islands to the southeast , where volcanic features are more pristine'
p689
aS'they can occur as discrete volcanoes on basaltic lava fields , or as parasitic cones generated by flank eruptions on shield volcanoes and stratovolcanoes'
p690
aS'basaltic lava , with a louver silica content about 50 percent , is more fluid and may travel a long distance before congealing'
p691
aS'its low rim is composed of loose pieces of basaltic lava and wallrocks sandstone , shale , limestone of the underlying diatreme , as well as random chunks of ancient crystalline rocks blasted upward from great depths'
p692
aS'over the past 800 years , hekla has had a history of generating violent initial eruptions of pumice , lasting a few hours , followed by prolonged extrusion of basaltic lava from the lower part of the chamber'
p693
aS'the pu u o o eruptive series , for example , has been erupting basaltic lava on the kilauea shield volcano since 1983'
p694
aS'however , during the end stages of scoria-cone formation , it is not unusual for strombolian activity to wane and give way to the calm extrusion of basaltic lava flows'
p695
aS'the low viscosity of basaltic lavas allows them to be extruded over great distances , often producing high-volume lava flows with low aspect ratios ratio of thickness to area'
p696
aS'explosive hydrovolcanic eruptions of basaltic lava are sometimes called surtseyan , after the eruption off iceland in 1963'
p697
aS'the frequent outpouring of basaltic lava on kilauea is a fitting reminder to the faithful that pele is alive and well'
p698
aS'in some eruptions , basaltic lava pours out quietly from long fissures instead of central vents and floods the surrounding countryside with lava flow upon lava flow , forming broad plateaus'
p699
aS'here , numerous fissure eruptions extruded very fluid basaltic lava'
p700
aS'the tube morphology provides a very efficient mechanism for basaltic lava flows to travel great distances away from their source without significant heat loss'
p701
aS'shield volcanoes are built primarily of basaltic lava flows and contain only a small percentage of pyroclastic material'
p702
aS'basaltic lava flows erupt primarily from shield volcanoes , fissure systems , and scoria cones'
p703
aS'basaltic lava is less than 50 percent silica'
p704
aS'backgroun : there are a large numbers of volcanic landforms in the national park that are common on shield volcanoes and on volcanic landscapes made of basaltic lava'
p705
aS'the crustal rocks are composed of basaltic lavas'
p706
aS'calderas are associated with tholeiitic lavas , the same type of basaltic lava that makes up the bulk of hawaiian shield volcanoes'
p707
aS'thus , eruptions of these fluid basaltic lavas such as those that occur in hawaii , are relatively quiet'
p708
aS'although highly effusive eruptions may advance downslope as massive sheets of basaltic lava , such flows are rare in the historic record'
p709
aS'when fluid basaltic lavas of the hawaiian type congeal , they commonly form a relatively smooth skin that wrinkles as the still-molten subsurface lava continues to advance figure 4.6a'
p710
aS'basaltic lava has a silica content of about 50 percent and , when molten , is a runny as honey'
p711
aS'lava shields , a shield volcano made of basaltic lava'
p712
aS'basaltic lava'
p713
aS'the chilling and crystallization of basaltic lava around the sides , bottom , and top of lava channels produces a rock-encased conduit called a lava tube'
p714
aS'plinian eruptions can last less than a day , such as the short-lived explosions of gas-rich , siliceous magma prior to the eruption of fluid basaltic lava flows in iceland'
p715
aS'these are believed to be basaltic lava flows on a scale that dwarfs anything found on earth'
p716
aS'as basaltic lava erupts at the surface , more or less continuously for millions of years , it is constantly accreted onto the edge of the spreading plates as it cools into a hardened basalt layer'
p717
aS'the lava lakes have been investigated in detail because they furnish natural crucibles for study of the cooling , crystallization , and chemical change of basaltic lava'
p718
aS'by contrast , basaltic lavas , which contain less silica , tend to be more fluid and have been known to travel distances exceeding 150 kilometers 90 miles before congealing figure 4.5'
p719
aS'however , felsic lavas tend to be much thicker than basaltic lavas and have much higher aspect ratios'
p720
aS'strombolian eruption , a type of volcanic eruption characterized by jetting of clots or fountains of fluid basaltic lava from a central crater'
p721
aS'the thick accumulation of laterally extensive basaltic lava flows that result from basaltic flood eruptions are called plateau or flood basalts williams and mcbirney , 1979'
p722
aS'shield volcanoes are built primarily of fluid basaltic lava flows and contain only a small percentage of pyroclastic materials'
p723
aS'pyroclastics when basaltic lava is extruded'
p724
aS'as shown in the image here , io s surface is extraordinarily colorful , with yellows , oranges , reds , and blacks reflecting compositionally diverse eruptions , from great outpourings of basaltic lava to massive deposits of sulfur'
p725
aS'the effusion rates for historical eruptions of basaltic lava are highly variable , from 0.5 to 5000 m3/sec'
p726
aS'the crust under the ocean is thin , so lava here is basaltic , uncontaminated by other rocks , and very runny'
p727
aS'quenching and fragmentation of basaltic lavas produces an accumulation of angular , glassy fragments called hyaloclastite'
p728
aS'basaltic lava with a surface of rough , jagged blocks is called aa'
p729
aS'each mare is composed of vast sheets of basaltic lava which erupted from the broken crust associated with large impact craters'
p730
aS'tourists always want to see the red stuff, said usgs geologist tari mattox as she led me along a stream of basaltic lava flowing from a vent in kilauea'
p731
aS'rather than producing vast outpourings of basaltic lava , as occurs at oceanic sites such as hawaii , magma from the rising plume is emplaced at depth'
p732
aS'another common basaltic lava has a surface of rough , jagged blocks with dangerously sharp edges and spiny projections , called aa pronounced ah-ah figure 4.6b'
p733
aS'they eject relatively viscous basaltic lava from the throat of the volcano'
p734
aS'the term flood basalts describes the fluid , water-like , basaltic lava flows that cover an extensive region in the northwestern united states known as the columbia plateau'
p735
aS'the injection of basaltic lava into surface water can be quiescent or highly explosive'
p736
aS'etna , for example , are dominanted by basaltic lava flows , whereas mt'
p737
asg9
(lp738
S'c est-\xc3\xa0-dire qu ils peuvent \xc3\xa9mettre pendant plusieurs ann\xc3\xa9es des laves basaltiques d\xc3\xa9gaz\xc3\xa9es tr\xc3\xa8s fluides \xc3\xa0 des temp\xc3\xa9ratures pouvant atteindre 1 175\xc2\xb0c'
p739
aS'la pr\xc3\xa9sence de gaz dissous favorise la fluidit\xc3\xa9 et diminue la temp\xc3\xa9rature de solidification de la lave ; leur \xc3\xa9vacuation dans l atmosph\xc3\xa8re provoque la consolidation rapide : une lave basaltique riche en gaz continue \xc3\xa0 couler \xc3\xa0 des temp\xc3\xa9ratures de l ordre de 800 \xc2\xb0c'
p740
aS'volcan bouclier , volcan de forme ovale , tr\xc3\xa8s aplati , d\xc3\xbb \xc3\xa0 l accumulation de coul\xc3\xa9es de lave basaltique fluide'
p741
aS'a plusieurs reprises , des \xc3\xa9ruptions volcaniques gigantesques ont ravag\xc3\xa9 des surfaces grandes comme la france pendant des mill\xc3\xa9naires , formant des coul\xc3\xa9es de laves basaltiques \xc3\xa9paisses de 1 000 m\xc3\xa8tres \xc3\xa0 2 000 m\xc3\xa8tres'
p742
aS'les laves basaltiques sont fluides et s \xc3\xa9panchent en longues coul\xc3\xa9es'
p743
aS'tandis que les laves basaltiques s \xc3\xa9coulent avec fluidit\xc3\xa9 , les laves acides riches en silicates et en vapeur d eau ont un comportement explosif qui transforme le cristal en mini pierre ponce'
p744
aS'un amoncellement de lave basaltique , sans mousses ni lichens , plong\xc3\xa9 dans une brume froide \xc3\xa0 2 600 m\xc3\xa8tres d altitude'
p745
aS'les \xc3\xa9ruptions hawaiiennes elles sont caract\xc3\xa9ris\xc3\xa9es par l \xc3\xa9mission de lave basaltique tr\xc3\xa8s fluide et \xc3\xa0 haute temp\xc3\xa9rature 1 100 \xc2\xb0c'
p746
aS'les coul\xc3\xa9es de lave basaltique , selon leur composition , leur temp\xc3\xa9rature , le lieu d \xc3\xa9mission ou tout simplement la pente du volcan , progressent \xc3\xa0 des vitesses tr\xc3\xa8s diff\xc3\xa9rentes'
p747
aS'ils ressemblent aux volcans boucliers hawaiiens qui r\xc3\xa9sultent de l accumulation successive de coul\xc3\xa9es de laves basaltiques'
p748
aS'au fond du rift , des remont\xc3\xa9es de lave basaltique cr\xc3\xa9ent de nouveaux volcans'
p749
aS'les trapps sont des structures volcaniques plateaux de laves basaltiques de plusieurs milliers de km2 qui correspondent \xc3\xa0 des crises volcaniques exceptionnelles de la terre tableau ix'
p750
aS'pr\xc3\xa8s de 115 crat\xc3\xa8res \xc3\xa9mettent pendant plusieurs mois plus de 12 km\xc2\xb3 de lave basaltique , recouvrant 600 km\xc2\xb2 du territoire'
p751
aS'l examen des laves basaltiques et l exploration des fonds sous-marins , dans les ann\xc3\xa9es 50 , furent \xc3\xa0 l origine de la reprise , largement amend\xc3\xa9e , des recherches de wegener'
p752
aS'ces \xc3\xaeles , compos\xc3\xa9es de lave basaltique , sont riches en fer et en magn\xc3\xa9sium'
p753
ass(S'gas'
p754
S'gaz'
p755
S'dissolve'
p756
S'dissoudre'
p757
tp758
(dp759
g7
(lp760
S'it all hinges on the large amounts of water vapour and other gases dissolved in the liquid magma'
p761
aS'experiments have shown that the amount of a dissolved gas in magma its solubility at atmospheric pressure is zero , but rises with increasing pressure'
p762
aS'gases that were dissolved in the molten rock when it was deeper in the earth escape through open vents around the summit'
p763
aS'griggs and his team found that the fumaroles were also emitting gases that had been dissolved in the molten rock before it erupted'
p764
aS'gas that had been dissolved in the molten rock expanded and literally blew the volcano apart , filling the air with ash'
p765
aS'lane uses pine sap together with acetone or ether to represent magma and the gas dissolved in it'
p766
aS'the sudden removal of the upper part of the volcano by the landslides triggered the almost instantaneous expansion explosion of high temperature-high pressure steam present in cracks and voids in the volcano and of gases dissolved in the magma that caused the bulge of the cryptodome'
p767
aS'gases dissolved in the magma provide the driving force behind an eruption when volcanoes get violent , new scientist , 26 october 1996 , p 28'
p768
aS'back in the lab , garces and buckingham tweaked the parameters of the model slightly-adjusting the strength of the explosions , for instance , and the amount of gas dissolved in the magma'
p769
aS'but as the molten rock rises , the pressure exerted by the weight of the rock above decreases , and gases dissolved in the magma begin to bubble out of solution'
p770
asg9
(lp771
S'bien des param\xc3\xa8tres , dont la temp\xc3\xa9rature et la richesse en gaz dissous , conditionnent la viscosit\xc3\xa9 d un magma'
p772
aS'la pr\xc3\xa9sence de gaz dissous favorise la fluidit\xc3\xa9 et diminue la temp\xc3\xa9rature de solidification de la lave ; leur \xc3\xa9vacuation dans l atmosph\xc3\xa8re provoque la consolidation rapide : une lave basaltique riche en gaz continue \xc3\xa0 couler \xc3\xa0 des temp\xc3\xa9ratures de l ordre de 800 \xc2\xb0c'
p773
aS'la chambre magmatique est comme une bouteille de champagne : elle contient un liquide sous pression , compos\xc3\xa9 d un bain de silicates fondus et de gaz dissous'
p774
aS'la teneur en gaz dissous augmente , classiquement , avec la profondeur donc avec la pression'
p775
aS'or , une mission scientifique r\xc3\xa9cente r\xc3\xa9v\xc3\xa8le que la limite des taux de saturation en gaz dissous est presque atteinte dans les lacs nyos et mounoun un autre lac volcanique de cette r\xc3\xa9gion , indique l agence france-presse , sur la foi d un rapport parvenu de son bureau de yaound\xc3\xa9'
p776
aS'magma , liquide silicat\xc3\xa9 avec de nombreux \xc3\xa9l\xc3\xa9ments chimiques mais o\xc3\xb9 la silice est la plus repr\xc3\xa9sentative contenant des gaz dissous et des cristaux en suspension , form\xc3\xa9 en profondeur par une fusion partielle du manteau et parfois de la cro\xc3\xbbte'
p777
aS'magma , roche en fusion contenant des gaz dissous'
p778
aS'magma , liquide plus ou moins riche en gaz dissous r\xc3\xa9sultant de la fusion partielle ou totale , en profondeur , du mat\xc3\xa9riel solide constituant le manteau ou la cro\xc3\xbbte'
p779
aS'sous la pression de l eau , ces gaz se dissolvent dans les couches profondes du lac et acidifient le milieu'
p780
aS'lorsque , par baisse de pression , le gaz dissous dans le liquide magmatique parvient \xc3\xa0 s individualiser sous forme de bulles , le contraste de densit\xc3\xa9 avec l encaissant augmente brutalement , et l \xc3\xa9ruption se d\xc3\xa9clenche pour peu que le couvercle du r\xc3\xa9servoir magmatique c\xc3\xa8de'
p781
aS'bien \xc3\xa9videmment , les deux essais ont \xc3\xa9t\xc3\xa9 pr\xc3\xa9c\xc3\xa9d\xc3\xa9s et accompagn\xc3\xa9s demesures quantitatives r\xc3\xa9p\xc3\xa9t\xc3\xa9es faites \xc3\xa0 des profondeurs diff\xc3\xa9rentes et concernant les teneurs de l eau en gaz dissous , les d\xc3\xa9bits d eau et de gaz dans les tuyaux , etc'
p782
aS'or , la capacit\xc3\xa9 de l eau \xc3\xa0 dissoudre du gaz carbonique augmente avec la pression'
p783
aS'si le magma est visqueux et riche en gaz dissous , la lave s accumule au point de sortie et ne peut s \xc3\xa9pancher facilement'
p784
aS'l\xc3\xa0 o\xc3\xb9 les plaques se s\xc3\xa9parent , dans les zones de rift , la fusion partielle se produit vers 15 km de profondeur et aboutit \xc3\xa0 un magma basaltique , relativement pauvre en gaz dissous'
p785
aS'l ascension de ces magmas vers la surface provoque des modifications d ordre physique li\xc3\xa9es \xc3\xa0 la variation de pression hydrostatique et de la pression de vapeur des gaz dissous , on distingue - l hypomagma ou magma de profondeu : il n y a pas de gaz libres en raison de l importance de la pression hydrostatique'
p786
aS'rappelons aussi que , \xc3\xa0 1 bar , la densit\xc3\xa9 du co2 est de 1,52 gramme celle de l eau douce \xc3\xa9tant de 1 gramme ; les eaux des fonds , \xc3\xa9tant charg\xc3\xa9es en gaz dissous , ont donc une densit\xc3\xa9 plus \xc3\xa9lev\xc3\xa9e que celle de l eau pure'
p787
aS'quelle que soit l hypoth\xc3\xa8se retenue , il a sembl\xc3\xa9 que la m\xc3\xa9thode capable d \xc3\xa9viter le renouvellement de telles catastrophes \xc3\xa9tait de purger les fonds des lacs d une partie de leurs gaz dissous'
p788
ass(S'fountain'
p789
S'fontaine'
p790
S'shoot'
p791
S'atteindre'
p792
tp793
(dp794
g7
(lp795
S'as the lava reaches the surface , a fall in pressure allows the gases it holds to boil suddenly , shooting fountains of lava into the air'
p796
aS'during the 1959 kilauea iki eruption , lava fountains shot 1,900 feet , the record height for historic hawaiian eruptions and likely the highest lava fountain yet observed on earth'
p797
asg9
(lp798
ss(S'dome'
p799
S'd\xc3\xb4me'
p800
S'collapse'
p801
S'\xc3\xa9croulement'
p802
tp803
(dp804
g7
(lp805
S'to a swiss woman curious about the steaming lump , i explained dome collapse and pyroclastic flows'
p806
aS'u is for unzen unzen volcano , in japan , first made history in 1792 , when the collapse of its dome resulted in tsunami that bit the shores of japanese provinces killing around 14,500 people'
p807
aS'the blast that the japanese researchers measured came just five days after a massive flow of hot ash and debris from a dome collapse killed 43 people in kita-kamikoba , a town directly in the firing line of the volcano s east-lacing vent'
p808
aS'but such close-up , derailed observations pose extreme danger , and the fury unleashed by a dome collapse can turn expensive instruments into scorched , shattered hulks'
p809
aS'the researchers measured the shock wave created by a dome collapse on june 8 , 1991 , and then calculated the pent-up energy required to generate it - the equivalent of about 12,000 tons of tnt'
p810
aS'in some cases , dome collapse is attributed to explosive eruption at the summit crater'
p811
aS'this scenario is not wholly imaginative , as on 17 to 18 september 1996 , when profound dome collapse led to conduit depressurization and then to an intensive , explosive , nearly vertical eruption column that lasted for nearly an hour'
p812
asg9
(lp813
S'dans la journ\xc3\xa9e du 7 mai , des nuages roulent depuis le crat\xc3\xa8re dans la vall\xc3\xa9e de la rivi\xc3\xa8re blanche , ce qui peut signaler de petits \xc3\xa9croulements du d\xc3\xb4me en cours de croissance'
p814
aS'il peut s agir de l \xc3\xa9croulement d un d\xc3\xb4me actif fig'
p815
ass(S'volcan'
p816
S'volcan'
p817
S'active'
p818
S'actif'
p819
tp820
(dp821
g7
(lp822
S'they immediately suspected an active volcan : only it could melt such a large area of ice'
p823
asg9
(lp824
S'unzen est r\xc3\xa9put\xc3\xa9 pour \xc3\xaatre un des volcans les plus actifs de la r\xc3\xa9gion , c est pourquoi les observatoires locaux de la ]ma et du sevo shimabara earthquake and volcano observatory de l universit\xc3\xa9 de kyushu suivent constamment sur place son activit\xc3\xa9'
p825
aS'cette sorte d araign\xc3\xa9e m\xc3\xa9tallique de 3,6 m\xc3\xa8tres de haut devait descendre sur plus de 200 m\xc3\xa8tres \xc3\xa0 l int\xc3\xa9rieur de ce volcan actif , et envoyer par satellite des donn\xc3\xa9es g\xc3\xa9ologiques et chimiques pendant trois jours'
p826
aS'a cette liste il faut ajouter les volcans actifs durant toute l ann\xc3\xa9e 1982 et qui l \xc3\xa9taient d\xc3\xa9j\xc3\xa0 avant'
p827
aS'd\xc3\xa9j\xc3\xa0 un deuxi\xc3\xa8me volcan actif nous attend : le santa-maria'
p828
aS'sur les m\xc3\xaames failles de l \xc3\xa9corce terrestre , volcans actifs et volcans \xc3\xa9teints menacent'
p829
aS'elle concentre plus de 60 % des volcans actifs \xc3\xa9merg\xc3\xa9s de la plan\xc3\xa8te'
p830
aS'le kilauea avec ses 1222 m\xc3\xa8tres d altitude est certes plus petit que ses fr\xc3\xa8res mauna loa 4170 m et mauna kea 4206 m mais il se rattrape par son activit\xc3\xa9 d\xc3\xa9bordant ! il m\xc3\xa9rite m\xc3\xaame le titre du volcan le plus actif de la plan\xc3\xa8te'
p831
aS'au guatemala , les trois volcans actifs sont le pacaya 2 552 m de type strombolien , le fuego 3 763 m de type vulcanien et le santa-maria 3 772 m qui a fait une \xc3\xa9ruption cataclysmale plinienne en 1902 ; depuis 1922 , une petit d\xc3\xb4me , le santiaguito 2 500 m continue de cro\xc3\xaetre dans la grande caldeira en forme de fer \xc3\xa0 cheval , tout en lib\xc3\xa9rant des nu\xc3\xa9es ardentes'
p832
aS'il convient de bien distinguer un volcan actif d un volcan \xc3\xa9teint car un volcan actif peut \xc3\xaatre soit en activit\xc3\xa9 soit en sommeil'
p833
aS'2 dans le seul pacifique , on conna\xc3\xaet au moins six de ces alignements parall\xc3\xa8les orient\xc3\xa9s du sud-est volcan actif au nord-ouest volcan le plus ancien'
p834
aS'ii s agit en effet de l un des volcans les plus actifs du monde , tout en \xc3\xa9tant parmi les moins meurtriers'
p835
aS'culminant \xc3\xa0 2 632 m\xc3\xa8tres au sud-est de l \xc3\xaele , le piton de la fournaise et l un des volcans les plus actifs de la plan\xc3\xa8te'
p836
aS'une surveillance en continue est effectu\xc3\xa9e pour chaque volcan actif'
p837
aS'mais notre but est un autre volcan tr\xc3\xa8s actif et dangereux , le merapi , la montagne de feu , qui , du haut de ses 2 911 m\xc3\xa8tres , domine la ville de jogjakarta'
p838
aS'1 la notion de volcan actif est difficile \xc3\xa0 pr\xc3\xa9ciser'
p839
aS'certes , les volcans actifs tremblotent , mais ce ne sont que des frissons'
p840
aS'selon ce calcul , on arrive \xc3\xa0 quelque mille trois cent cinquante volcans actifs'
p841
aS'avec la montagne pel\xc3\xa9e en martinique et la soufri\xc3\xa8re en guadeloupe , le piton de la fournaise est l un des trois volcans actifs fran\xc3\xa7ais , et sans conteste l un des plus actifs de la plan\xc3\xa8te'
p842
aS'dans les archipels du pacifique comme dans ceux de l oc\xc3\xa9an indien , les abords des volcans actifs du globe sont pour l homme les observatoires les plus avanc\xc3\xa9s dont il dispose pour \xc3\xaatre le t\xc3\xa9moin en direct des ph\xc3\xa9nom\xc3\xa8nes g\xc3\xa9ophysiques qui gouvernent toujours la plan\xc3\xa8te \xc3\xa0 l \xc3\xa9chelle du syst\xc3\xa8me solaire ; on y trouve la preuve active que la terre est encore jeune'
p843
aS'par contre , huit volcans actifs , exceptionnels et gigantesques , ont \xc3\xa9t\xc3\xa9 observ\xc3\xa9s sur io , satellite de jupiter par les sondes spatiales voyager'
p844
aS'on estime aujourd hui que notre plan\xc3\xa8te compte plus de 1 500 volcans actifs'
p845
aS'en equateur , ces deux crat\xc3\xa8res embo\xc3\xaet\xc3\xa9s l un dans l autre forment une double couronne de neige au sommet du cotopaxi , volcan actif qui culmin \xc3\xa0 5 897 m\xc3\xa8tres'
p846
aS'on compte de 600 \xc3\xa0 1000 volcans actifs'
p847
aS'la rencontre avec le volcanologue jacques durieux , cofondateur du groupe d \xc3\xa9tude des volcans actifs et excellent vulgarisateur , a contribu\xc3\xa9 \xc3\xa0 lever les r\xc3\xa9ticences'
p848
aS'l archipel des \xc3\xaeles hawaii montre un tel alignement de plusieurs \xc3\xaeles volcaniques de plus en plus jeunes du nord-ouest au sud-est : niihau , kauai , oahu , molokai.jusqu \xc3\xa0 l \xc3\xaele d hawaii surnomm\xc3\xa9e big island , avec ses deux volcans actifs imposants , le mauna loa et le kilauea'
p849
aS'il avait en effet \xc3\xa9t\xc3\xa9 frapp\xc3\xa9 par la compl\xc3\xa8te similitude entre les roches \xc3\xa9mises par les volcans actifs italiens etna , v\xc3\xa9suve et par celles constitutives des c\xc3\xb4nes auvergnats'
p850
aS'la r\xc3\xa9partition des principaux volcans actifs dans le monde'
p851
aS'<#mon-7-99> le monde du 04/08/1993 pag : 8 titre de l articl : nouvelle exp\xc3\xa9dition de jean-louis etienne en antarctique le docteur jean-louis etienne a quitt\xc3\xa9 le port de s\xc3\xa8te lundi 2 ao\xc3\xbbt , \xc3\xa0 bord de son voilier antarctica , pour une exp\xc3\xa9dition sur l erebus , volcan actif situ\xc3\xa9 en mer de ross , dans la partie orientale de l antarctique'
p852
aS'de l argentine \xc3\xa0 l alaska et de la p\xc3\xa9ninsule du kamchatka russie \xc3\xa0 la nouvelle z\xc3\xa9lande , la ceinture de feu du pacifique est le plus grand ensemble volcanique du monde avec plus de 60% des volcans actifs \xc3\xa9merg\xc3\xa9s de la plan\xc3\xa8te'
p853
aS'je me suis rendu sur de nombreux volcans actifs , parfois en pleine \xc3\xa9ruption'
p854
aS'le volcan le plus actif d europe continentale produit en effet depuis la semaine derni\xc3\xa8re des coul\xc3\xa9es de lave ininterrompues en provenance de trois crat\xc3\xa8res'
p855
aS'dans la partie orientale de l \xc3\xaele , une centaine d hommes descend chaque jour dans les entrailles du volcan actif pour en extraire le soufre'
p856
aS'juste \xc3\xa0 cot\xc3\xa9 un petit crat\xc3\xa8re viti l enfer contient un lac d eau chaude de couleur verte : on peut ainsi se baigner au milieu d un paysage englac\xc3\xa9 ! plus au sud , l hekla , volcan le plus actif de l \xc3\xaele , a connu plusieurs \xc3\xa9ruptions au cours du xxe si\xc3\xa8cle , la derni\xc3\xa8re remontant \xc3\xa0 f\xc3\xa9vrier 2000'
p857
aS'le pourtour de l oc\xc3\xa9an pacifique , de la nouvelle-z\xc3\xa9lande au chili , est jalonn\xc3\xa9 de quelque trois cent cinquante volcans actifs 1 sur les six cents environ recens\xc3\xa9s dans le monde'
p858
aS'au centre de l une d elle , le volcan actif culmine \xc3\xa0 391 m'
p859
aS'poss\xc3\xa9dant des forges dans tous les volcans actifs de la m\xc3\xa9diterran\xc3\xa9e , de l etna \xc3\xa0 santorin , il \xc3\xa9tait aid\xc3\xa9 dans sa t\xc3\xa2che par cent cyclopes'
p860
aS'l \xc3\xa9ruption du pinatubo , l un des 21 volcans actifs de l arc volcanique des philippines , a jet\xc3\xa9 un demi million de personnes sur les routes'
p861
aS'<#mon-7-90> le monde du 01/01/1993 pag : 8 titre de l articl : escale antarctique pour dante le martien un robot destin\xc3\xa9 \xc3\xa0 l exploration de la plan\xc3\xa8te mars , devait tenter , jeudi 31 d\xc3\xa9cembre , une descente dans le crat\xc3\xa8re du mont erebus , un volcan actif de l antarctique'
p862
aS'le piton le plus auscult\xc3\xa9 du monde de plus en plus , on tend \xc3\xa0 surveiller en continu les volcans actifs r\xc3\xa9put\xc3\xa9s dangereux , \xc3\xa0 l aide d appareils t\xc3\xa9l\xc3\xa9command\xc3\xa9s aliment\xc3\xa9s par piles solaires'
p863
aS'ce volcan actif , unique au monde , doit sa c\xc3\xa9l\xc3\xa9brit\xc3\xa9 \xc3\xa0 ses laves si particuli\xc3\xa8res , de compositions carbonat\xc3\xa9es , alors que toutes les autres laves sont silicat\xc3\xa9es'
p864
aS'on d\xc3\xa9nombre environ cinq cents volcans actifs situ\xc3\xa9s au-dessus du niveau de la mer et pour la plupart group\xc3\xa9s le long des fractures de l \xc3\xa9corce terrestre'
p865
aS'les autorit\xc3\xa9s n ont jamais \xc3\xa9tabli de plan d \xc3\xa9vacuation , contrairement \xc3\xa0 ce qu elles ont fait pour d autres volcans plus actifs tel que le mont usu , en hokkaido , qui a fait \xc3\xa9ruption en 2000 sans causer de victimes'
p866
aS'ceci constitue en effet l aspect moyen d un volcan actif en p\xc3\xa9riode de r\xc3\xa9mission'
p867
aS'l etna est le plus grand volcan actif d europe'
p868
aS'on recense plus de deux cents volcans actifs dans le pays , l un d eux \xc3\xa9tant statistiquement susceptible d entrer en \xc3\xa9ruption tous les cinq ans'
p869
aS'le karymsky est l un des volcans les plus actifs du kamchatka oriental'
p870
aS'desmarest , qui conna\xc3\xaet moins les volcans actifs que les volcans \xc3\xa9teints , est moins enclin \xc3\xa0 contester les id\xc3\xa9es commun\xc3\xa9ment admises \xc3\xa0 son \xc3\xa9poque en volcanologie'
p871
aS'a big island , 137 000 personnes vivent sur les flancs des deux volcans actifs de l archipel : le mauna loa et le kilauea'
p872
aS'pas moins de cent volcans actifs , et si diff\xc3\xa9rents , y ont \xc3\xa9t\xc3\xa9 r\xc3\xa9pertori\xc3\xa9s'
p873
aS'jean-christophe sabroux unzen : l \xc3\xa9ruption \xc3\xa9tait pr\xc3\xa9vue le professeur daisuke shimozuru , \xc3\xa9minent sismologue et pr\xc3\xa9sident du comit\xc3\xa9 gouvernemental de coordination pour la pr\xc3\xa9diction des \xc3\xa9ruptions volcaniques , explique \xc3\xa0 nos correspondants au japon , comment \xc3\xa9tait organis\xc3\xa9e la surveillance d un des volcans les plus actifs de la r\xc3\xa9gion'
p874
aS'sur environ 1600 volcans actifs sur terre , sans compter ceux qui se trouvent sous les oc\xc3\xa9ans , consid\xc3\xa9rablement plus nombreux , une centaine environ parmi ceux qui sont situ\xc3\xa9s dans des zones peupl\xc3\xa9es pr\xc3\xa9sentent un danger important pour les \xc3\xaatres humains et font l objet d une surveillance , pr\xc3\xa9cise jacques-marie bardintzeff'
p875
aS'- l indon\xc3\xa9sie a d\xc3\xa9sormais sur son sol 109 volcans actifs , c est ce qu a affirm\xc3\xa9 le journal jakarta kompas en saluant la naissance de l anak ranaka enfant de ranaka dans l ouest de l \xc3\xaele de flor\xc3\xa8s'
p876
aS'504 universit\xc3\xa9 paris-sud , 91405 orsay et iufm , rp 815 , 78008 versailles e-mail : bardizef@geol.u-psud.fr htt ://www.multimania.com/lave/gdesfig_jm-b.html le v\xc3\xa9suve est l un des volcans les plus actifs et les plus dangereux de la plan\xc3\xa8te'
p877
aS'l ensemble le plus connu est la ceinture de feu du pacifique qui concentre plus de 60 % des volcans actifs \xc3\xa9merg\xc3\xa9s ; - \xc3\xa0 l aplomb des points chauds : ce volcanisme relativement rare est li\xc3\xa9 \xc3\xa0 des remont\xc3\xa9es de panaches chauds d origine tr\xc3\xa8s profonde'
p878
aS'<#mon-7-242> 25 juin 2001 , page 3 television - radio - video - dvd echos - derriere le micro fred et jamy dans le crat\xc3\xa8re de l etna kerviel sylvie apr\xc3\x88s avoir explor\xc3\xa9 les pyramides , plong\xc3\xa9 dans une mine et grimp\xc3\xa9 en haut d un phare , fred et jamy se sont aventur\xc3\xa9s sans leur fameux camion dans le crat\xc3\xa8re de l un des derniers volcans actifs d europe , celui de l etna'
p879
aS'la r\xc3\xa9gion du pacifique couvrant les \xc3\xaeles kouriles , au nord du japon , la p\xc3\xa9ninsule du kamchatka , les \xc3\xaeles al\xc3\xa9outiennes et le sud de l alaska compte au moins une centaine de volcans actifs'
p880
aS'depuis , seules des \xc3\xa9mergences thermomin\xc3\xa9rales sur le flanc ouest du volcan , et une tr\xc3\xa8s faible activit\xc3\xa9 sismique nous rappellent que la montagne pel\xc3\xa9e est toujours un volcan actif'
p881
aS'sur les 250 volcanologues qui , \xc3\xa0 travers le monde , travaillent r\xc3\xa9guli\xc3\xa8rement sur les volcans actifs , plusieurs ont d\xc3\xa9j\xc3\xa0 trouv\xc3\xa9 la mort'
p882
aS'roger bellone 1 haroun tazieff et max derruau rappellent dans leur dernier ouvrage le volcanisme et sa pr\xc3\xa9vention masson , 1990 , qu on appelle classiquement volcan actif celui dont on conna\xc3\xaet au moins une \xc3\xa9ruption historique - c est-\xc3\xa0-dire qui a eu lieu depuis le vi\xc3\xa8 ou le vii\xc3\xa8 si\xc3\xa8cle avant j.-c'
p883
aS'la france poss\xc3\xa8de cependant trois volcans actifs'
p884
aS'dans l etat de washington , \xc3\xa0 80 km au nord de portland et 150 de la ville de seattle , le mont saint helens est le plus jeune 50 000 ans des quinze volcans actifs de la cha\xc3\xaene des cascades'
p885
aS'le sakurajima , sorte de jumeau oriental du v\xc3\xa9suve , est l un des volcans les plus actifs et les plus dangereux du japon'
p886
aS'des volcans actifs d io , simples trous dans le sol , aux g\xc3\xa9ants de mars , des volcans soup\xc3\xa7onn\xc3\xa9s sur notre soeur v\xc3\xa9nus au cryovolcanisme d\xc3\xa9couvert sur triton , le champ d observation des volcanologues s est extraordinairement \xc3\xa9largi en quelques ann\xc3\xa9es'
p887
aS'montagne pel\xc3\xa9e la montagne pel\xc3\xa9e est le volcan actif de l \xc3\xaele de la martinique aux antilles'
p888
aS'l oc\xc3\xa9an pacifique , pris en \xc3\xa9tau entre les continents asiatique et am\xc3\xa9ricain qui convergent , est bord\xc3\xa9 d une guirlande quasi ininterrompue de volcans actif : c est la ceinture de feu , \xc3\xa0 laquelle appartiennent , bien s\xc3\xbbr , l unzen et le pinatubo'
p889
aS'cette date marque le d\xc3\xa9but d une mise sous surveillance des volcans actifs'
p890
aS'plus de 60 % des volcans actifs terrestres bordent la plaque du pacifique , d\xc3\xa9limitant ce qu on appelle la ceinture de feu'
p891
aS'ii est cependant possible d approcher le plus haut volcan actif d europe en se rendant aux monts sivestri 2 000 m\xc3\xa8tres , par la route de zafferana \xc3\xa0 l est , ou par le sud , en passant par nicolosi'
p892
aS'mais surtout , nous avons rep\xc3\xa9r\xc3\xa9 des sites actifs sur des volcans lat\xc3\xa9raux , o\xc3\xb9 la vie est plus continue et longue que sur les dorsales'
p893
aS'l imagination des hommes vivant au pied des volcans actifs n est pas seulement l apanage des civilisations m\xc3\xa9diterran\xc3\xa9ennes'
p894
aS'le mauna loa , \xc3\xa0 hawaii , le plus grand des volcans actifs du monde , est aussi le plus haut si toutefois on consid\xc3\xa8re son altitude depuis le fond de l oc\xc3\xa9an pacifique jusqu \xc3\xa0 son sommet : 9 000 m\xc3\xa8tres de hauteur ! en revanche , son crat\xc3\xa8re sommital ou caldera pourtant impressionnant avec ses 4,8 kilom\xc3\xa8tres de long sur 2,4 kilom\xc3\xa8tres de large et 200 m\xc3\xa8tres de profondeur , n entre pas dans la liste des records'
p895
aS'au sud du japon , dans la baie de kagoshima , le volcan actif sakurajima reli\xc3\xa9e \xc3\xa0 la terre depuis les coul\xc3\xa9es de lave de 1915 , domine le paysage'
p896
aS'entre 600 et 1 300 volcans actifs sont r\xc3\xa9partis sur les terres \xc3\xa9merg\xc3\xa9es'
p897
aS'le merapi altitude de plus de 2 900 m mais qui augmente chaque ann\xc3\xa9e , la montagne de feu , volcan le plus actif et le plus dangereux , \xc3\xa9met r\xc3\xa9guli\xc3\xa8rement de redoutables nu\xc3\xa9es ardentes'
p898
aS'je suis \xc3\xa9tonn\xc3\xa9 par la coexistence de ces trois volcans actifs , voisins mais si peu semblables'
p899
aS'les premiers habitants de la p\xc3\xa9ninsule se sont toujours tenus \xc3\xa0 distance des volcans actifs'
p900
aS'si cette hypoth\xc3\xa8se se confirmait , triton serait le troisi\xc3\xa8me corps c\xc3\xa9leste connu du syst\xc3\xa8me solaire dot\xc3\xa9 de volcans actifs , avec la terre et io , un satellite de jupiter'
p901
aS'lors de mission sur le terrain , il s agit d observer les dynamismes des volcans actifs , de proc\xc3\xa9der \xc3\xa0 la mesure de certains param\xc3\xa8tres temp\xc3\xa9rature des gaz , petits s\xc3\xa9ismes pr\xc3\xa9curseurs d une phase \xc3\xa9ruptive plus importante'
p902
aS'par exemple la ville de kagoshima , de 500 000 habitants , sise au pied du volcan actif sakurajima , est enti\xc3\xa8rement \xc3\xa9vacu\xc3\xa9e , chaque 12 janvier , anniversaire de la catastrophe de l ann\xc3\xa9e 1914'
p903
aS'des volcans actifs crachent du soufre dans l espace , qui retombe par plaques immenses \xc3\xa0 sa surface'
p904
aS'dans certaines r\xc3\xa9gions , comme au japon , les volcans actifs font partie int\xc3\xa9grante de la vie quotidienne'
p905
aS'on n y conna\xc3\xaet pas de volcans actifs actuellement'
p906
aS'le 15 juin 1991 , apr\xc3\xa8s six si\xc3\xa8cles d inactivit\xc3\xa9 et alors qu il n est m\xc3\xaame pas r\xc3\xa9pertori\xc3\xa9 sur la liste des volcans actifs du globe , le pinatubo entre en \xc3\xa9ruption'
p907
aS'les volcans actifs du kamchatka se situent tous sur une bande de 700km sur 80 , le long de la c\xc3\xb4te est : zone de subduction o\xc3\xb9 la plaque pacifique plonge sous la plaque eurasie , \xc3\xa0 une vitesse proche de 10 cm par an'
p908
aS'autour du hekla l ascension \xc3\xa0 pied du volcan le plus actif d islande est p\xc3\xa9nible \xc3\xa0 cause des'
p909
aS'la cordill\xc3\xa8re des andes , plus hauts sommets du globe apr\xc3\xa8s la cha\xc3\xaene himalayenne , abrite le cotopaxi , le plus haut volcan actif du monde'
p910
aS'est au contraire tenu pour toujours actif un volcan dont l actuelle p\xc3\xa9riode de repos n est pas consid\xc3\xa9rablement plus \xc3\xa9tendue que la plus longue de celles qu il a connues tout au long de son existence'
p911
aS'\xc2\x95 28 janvier au 21 f\xc3\xa9vrier grimsv\xc3\xb4tn islande , ce volcan actif emprisonn\xc3\xa9 sous le glacier vatnaj\xc3\xb4kull \xc3\xa9met une grosse coul\xc3\xa9e de boue provoqu\xc3\xa9e par la fonte des glaciers par la chaleur volcanique ; son d\xc3\xa9bit est de 2 000 m\xc3\xa8tres cubes \xc3\xa0 la seconde , son volume de 1,3 kilom\xc3\xa8tre cube'
p912
aS'c est le plus grand volcan actif d europe'
p913
aS'de quoi vous donner envie , apr\xc3\xa8s cette sage pr\xc3\xa9face , de participer \xc3\xa0 l un des nombreux circuits organis\xc3\xa9s \xc3\xa9galement par fnac voyages sur des volcans actifs ou dans des zones volcaniques spectaculaires , comme les \xc3\xaeles \xc3\xa9oliennes le stromboli , la r\xc3\xa9union ou l indon\xc3\xa9sie'
p914
aS'ses \xc3\xaeles s alignent sur une direction nord-ouest sud-est , et leurs \xc3\xa2ges respectifs croissent r\xc3\xa9guli\xc3\xa8rement \xc3\xa0 mesure que l on s \xc3\xa9loigne d hawaii et de ses volcans actifs'
p915
aS'le 30 mars , pour imiter son grand fr\xc3\xa8re , le kilauea , l autre volcan actif de hawaii , \xc3\xa9jecta une fontaine de lave \xc3\xa0 160 m\xc3\xa8tres de haut et une coul\xc3\xa9e de 10 kilom\xc3\xa8tres de long'
p916
aS'ainsi soumise aux \xc3\xa9tats d \xc3\xa2me de l un de ses tr\xc3\xa8s nombreux volcans actifs environ cent cinquante dans l \xc3\xaele du nord , selon l institut des sciences g\xc3\xa9ologiques et nucl\xc3\xa9aires , la nouvelle-z\xc3\xa9lande g\xc3\xa8re au jour le jour , depuis deux semaines , son trafic a\xc3\xa9rien , domestique et international , en suivant tant bien que mal le nuage de cendres qui se prom\xc3\xa8ne selon les vents'
p917
aS'elle comprend plusieurs dizaines de volcans actifs pr\xc3\xa9sentant des risques importants'
p918
aS'la plus haute montagne de la terre ne se trouve pas dans l himalaya , mais sur l \xc3\xaele d hawaii big island , c est le mauna loa , le plus gigantesque des volcans actifs du globe qui s \xc3\xa9l\xc3\xa8ve \xc3\xa0 9 753 m au-dessus du fond de l oc\xc3\xa9an dont 4 168 m au-dessus du niveau de la mer'
p919
aS'les volcans actifs forment le cercle de feu du pacifique , depuis la cordill\xc3\xa8re des andes , l am\xc3\xa9rique centrale et l am\xc3\xa9rique du nord , l alaska , les \xc3\xaeles al\xc3\xa9outiennes , le kamchatka russe , le japon , les philippines , jusqu \xc3\xa0 la nouvelle-guin\xc3\xa9e , les nouvelles-h\xc3\xa9brides et la nouvelle-z\xc3\xa9lande'
p920
aS'soufri\xc3\xa8re de guadeloupe la soufri\xc3\xa8re de guadeloupe est un volcan actif , situ\xc3\xa9 au sud de la presqu \xc3\xaele de basse-terre , dans l \xc3\xaele de la guadeloupe aux antilles'
p921
aS'avec plus de 200 volcans actifs , on estime qu \xc3\xa0 elle seule , au cours des cinq derniers si\xc3\xa8cles , l islande a produit le tiers des \xc3\xa9manations de lave du monde'
p922
aS'sur 19 des 83 volcans actifs que compte le japon , la japan meteorological agency jma a install\xc3\xa9 des observatoires locaux qui ont pour but d alerter les populations locales des dangers issus des ph\xc3\xa9nom\xc3\xa8nes anormaux'
p923
aS'pr\xc3\xa9voir les \xc3\xa9ruptions : le d\xc3\xa9fi des volcanologues volcan actif , volcan \xc3\xa9teint certains volcans actifs aujourd hui sont \xc3\xa2g\xc3\xa9s de plusieurs centaines de milliers d ann\xc3\xa9es'
p924
aS'mais on envisage d\xc3\xa9j\xc3\xa0 d utiliser directement l \xc3\xa9nergie volcanique en pompant la chaleur dans les r\xc3\xa9servoirs de magma enfouis sous les volcans actifs'
p925
aS'les volcans actifs d islande , puissants et brutaux , ne sont pas loin , camoufl\xc3\xa9s sous les glaces'
p926
aS'impensable , en effet , de d\xc3\xa9ployer l arsenal technologique pr\xc3\xa9sent sur la fournaise sur chacun des trois cents \xc3\xa0 quatre cents volcans actifs du monde'
p927
aS'volcans actifs , volcanisme r\xc3\xa9siduel et hydrothermalisme sources chaudes , en particulier celles des dorsales jouent un grand r\xc3\xb4le dans les transferts de chaleur dans la lithosph\xc3\xa8re'
p928
aS'gaz les volcans actifs \xc3\xa9mettent des gaz en abondance , y compris entre les phases d \xc3\xa9ruption'
p929
aS'une nation a magnifiquement compris qu il faut apprendre \xc3\xa0 vivre avec des volcans actifs : le japon'
p930
aS'loki est le volcan le plus actif du syst\xc3\xa8me solaire'
p931
aS'dans le nord de la tanzanie , l ol doinyo lenga\xc3\xaf est un volcan tr\xc3\xa8s actif , v\xc3\xa9n\xc3\xa9r\xc3\xa9 par les tribus masa\xc3\xaf'
p932
aS'le sud-ouest de l alaska est certainement l endroit au monde o\xc3\xb9 le plus grand nombre de volcans actifs sont enfouis sous des glaciers'
p933
aS'les volcans les plus actifs du syst\xc3\xa8me solaire se trouvent sur io , l une des lunes de jupiter'
p934
aS'le catalogue volcans du monde , publi\xc3\xa9 par la smithsonian institution de washington , recense quelque 600 volcans actifs , en excluant , et pour cause , la quasi-totalit\xc3\xa9 des volcans sous-marins , qui nous sont inconnus'
p935
aS'loin devant le japon , les etats-unis et la russie , l indon\xc3\xa9sie est le pays qui abrite le plus de volcans actifs au monde'
p936
aS'les fran\xc3\xa7ais de la m\xc3\xa9tropole ont la chance d habiter un pays o\xc3\xb9 les s\xc3\xa9ismes sont rares et les volcans actifs absents'
p937
aS'il a un volume dix fois plus faible que celui du mauna loa , mais dix fois plus important que celui de l etna 3 340 m\xc3\xa8tres , volcan tr\xc3\xa8s actif de sicile'
p938
aS'sur cette \xc3\xaele de 103 000 kilom\xc3\xa8tres carr\xc3\xa9s , compos\xc3\xa9e \xc3\xa0 99,9 % de roches d origine magmatique , les volcans actifs sont l\xc3\xa9gion'
p939
aS'd autant que l irrempla\xc3\xa7able exp\xc3\xa9rience sur les volcans actifs ne s acquiert que lentement'
p940
aS'beaucoup d entre elles poss\xc3\xa8dent un volcan actif , le plus souvent baptis\xc3\xa9 soufri\xc3\xa8re , que l on va visiter du nord au sud'
p941
aS'hawaii est un archipel des etats-unis , situ\xc3\xa9 au c\xc5\x93ur du pacifique et comprenant plusieurs volcans actifs'
p942
aS'elle est naturellement inexplorable dans les volcans actifs , mais , dans les volcans anciens , on peut parfois l \xc3\xa9tudier : souvent m\xc3\xaame rocher saint-michel au puy-en-velay elle subsiste seule , le c\xc3\xb4ne de cendres ayant \xc3\xa9t\xc3\xa9 plus ais\xc3\xa9ment d\xc3\xa9blay\xc3\xa9 par l \xc3\xa9rosion que la masse colmat\xc3\xa9e et br\xc3\xa9cho\xc3\xafde qui s \xc3\xa9tait solidifi\xc3\xa9e dans la chemin\xc3\xa9e'
p943
aS'eruption , en 1984 , au kilauea hawaii , l un des volcans les plus actifs du si\xc3\xa8cle'
p944
aS'a hawaii , les volcans actifs mauna loa et kilauea sont le domaine de la d\xc3\xa9esse pel\xc3\xa9 : d ailleurs , les petites projections ovo\xc3\xafdes de lave sont appel\xc3\xa9es larmes de pel\xc3\xa9 et les fins filaments de lave cheveux de pel\xc3\xa9'
p945
aS'pr\xc3\xa9sence \xc3\xa9galement des clermontois sur le piton de la fournaise , volcan actif de la r\xc3\xa9union'
p946
aS'ces volcans actifs ne se r\xc3\xa9partissent pas al\xc3\xa9atoirement sur la surface du globe'
p947
ass(S'cinder'
p948
S'scorie'
p949
S'accumulation'
p950
S'accumulation'
p951
tp952
(dp953
g7
(lp954
S'cinder cones are conical hills produced by the accumulation of cinders and other tephra'
p955
aS'a cinder cones is a conical hill formed by the accumulation of cinders and other pyroclasts , normally of basaltic and andesitic composition bates and jackson , 1980 , p'
p956
asg9
(lp957
ss(S'lava'
p958
S'lave'
p959
S'spout'
p960
S'jaillir'
p961
tp962
(dp963
g7
(lp964
S'the volcano has spouted lava , ash and smoke intermittently since january last year etna last threatened inhabited areas in 1992 when lava streams headed towards zafferana , a town of 7,000 people crouched on the lower slopes'
p965
asg9
(lp966
S'profitant de la cassure , la lave jaillit'
p967
aS'c est g\xc3\xa9n\xc3\xa9ralement par l\xc3\xa0 que jaillissent les laves en fusion et que s \xc3\xa9chappent les gaz'
p968
aS'la lave en perp\xc3\xa9tuel mouvement jaillit parfois en fontaines'
p969
aS'si la lave est tr\xc3\xa8s fluide , elle jaillit en fontaines , s \xc3\xa9tale en grandes coul\xc3\xa9es , ou bouillonne dans un lac de lave l \xc3\xa9ruption est dite hawaiienne , en l honneur des volcans \xc3\xa0 pentes tr\xc3\xa8s douces des \xc3\xaeles hawaii qui connaissent souvent ce type d activit\xc3\xa9'
p970
aS'<#geo-15-17> hs l irr\xc3\xa9sistible \xc3\xa9lan du magma jean-yves durand les roches en fusion lui donnent naissance \xc3\xa0 cent kilom\xc3\xa8tres sous terre : le magma jaillit \xc3\xa0 la s\xc3\xb9rface sous forme de lave'
p971
aS'il est assez exceptionnel , \xc3\xa9tant l un des trois volcans du globe \xc3\xa0 poss\xc3\xa9der un crat\xc3\xa8re-puits au fond duquel bouillonne , \xc3\xa0 80 m\xc3\xa8tres de profondeur , un lac de lave qui jaillit des entrailles de la terre'
p972
aS'parfois en effet , la lave ne jaillit pas en surface mais la chaleur d\xc3\xa9gag\xc3\xa9e par la proximit\xc3\xa9 du magma peut mettre en place une zone thermale , comme celle de hveravellir en islande'
p973
aS'ces laves extr\xc3\xaamement fluides qui jaillissent noires avant de blanchir en refroidissant au contact de l air tapissent le fond du vaste crat\xc3\xa8re circulaire de blanc et de gris'
p974
aS'il suffit qu une fissure s y ouvre pour que la lave jaillisse \xc3\xa0 la surface'
p975
aS'quand la lave fluide jaillit en fontaines et s \xc3\xa9tale en larges coul\xc3\xa9es , c est le type hawaiien non figur\xc3\xa9 ici'
p976
aS'enfin , le 29 septembre , une nouvelle s\xc3\xa9rie de secousses , dont certaines atteignirent la magnitude de 5,4 sur l \xc3\xa9chelle de richter , furent d\xc3\xa9tect\xc3\xa9es vingt-quatre heures avant la grande \xc3\xa9mission de lave qui a jailli entre les volcans bardarbunga et grimsv\xc3\xb6tn'
p977
aS'la plupart des crat\xc3\xa8res se forment parce que la lave qui jaillit retombe autour de la bouche du volcan et y \xc3\xa9difie un anneau de cendres et de blocs'
p978
aS'mais ils ne croient pas qu elle entra\xc3\xaenera une modification climatique dufour jean paul volcanologie pendant quinze jours , la lave a jailli sans discontinuer sous le glacier islandais vatnaj\xc3\xb6kull'
p979
ass(S'dome'
p980
S'd\xc3\xb4me'
p981
S'grow'
p982
S'faire'
p983
tp984
(dp985
g7
(lp986
S'bottom seen in august 1985 from the same station; the dome has grown considerably wider and another 220 feet higher photographs by lyn topinka'
p987
aS'this viscous lava dome began to erupt in 1922 and is still growing toda ! an empirical example of dome growth through time is shown in the illustration below for the mt'
p988
aS'a volcanic dome growing in the mount st'
p989
aS'in the past few years , the volcano has calmed , but the dome continues to grow and collapse'
p990
aS'the plume , rising on 22 january from the most recent , growing dome , is inset into a hole blasted on 17 september 1996 into the next oldest dome , formed since november 1995'
p991
aS'if the dome grows as it is , something has to give one way or another, said dr'
p992
aS'when the sides of the growing dome become too steep , rock avalanches away'
p993
aS'a dome grows largely by expansion from within'
p994
aS':45 a.m. , august 18 the dome is already growing internally , but we have not seen any discrete event yet , for example , an explosion , a change in the character of seismicity or deformation'
p995
aS'more than 500 similar small explosions occurred sporadically until 1986 , during times when the dome was not growing'
p996
aS'during this time , the dome grew not only as lava was added to its surface extrusion but also as magma entered and inflated the dome as if a water balloon were being filled intrusion'
p997
aS'helens as a volcanic dome grew within the crater of the volcano'
p998
aS'helens , a volcanic dome began to grow within the crater'
p999
asg9
(lp1000
ss(S'cone'
p1001
S'c\xc3\xb4ne'
p1002
S'composite'
p1003
S'composite'
p1004
tp1005
(dp1006
g7
(lp1007
S'large composite cones may generate a type of mudflow known as a lahar'
p1008
aS'stratovolcanoes , also known as composite cones , are the most picturesque and the most deadly of the volcano types'
p1009
aS'composite cones represent the most violent type of volcanic activity'
p1010
aS'large composite cones often generate a mudflow called by its indonesian name lahar'
p1011
aS'composite cones are produced when relatively viscous lavas of andesitic composition are extruded'
p1012
aS'a large composite cone , washington state s mt'
p1013
aS'most active composite cones are in a narrow zone that encircles the pacific ocean , appropriately named the ring of fire'
p1014
aS'alternating layers of ash and lava build up a steep cone , known as a stratovolcano or composite cone'
p1015
aS'a composite cone may extrude viscous lava for long periods'
p1016
aS'just as shield volcanoes owe their shape to the highly fluid nature of the extruded lavas , so too do composite cones reflect the nature of the erupted material'
p1017
aS'73 composite cone stratovolcano p'
p1018
aS'earth s most picturesque volcanoes are composite cones'
p1019
aS'composite cones , or stratovolcanoes , are large , nearly symmetrical structures built of interbedded lavas and pyroclastic deposits'
p1020
aS'photo by tad nichols figure 4.13 mount shasta , california , one of the largest composite cones in the cascade range'
p1021
aS'a composite cone or stratovolcano is a large , nearly symmetrical structure composed of alternating lava flows and pyroclastic deposits , emitted mainly from a central vent'
p1022
aS'terns and characteristic form : shield volcanoes , cinder cones , and composite cones'
p1023
aS'composite cones represent the most violent volcanic activity'
p1024
aS'courtesy of p vauthey/sygma figure 4.27 locations of several of the larger composite cones that comprise the cascade range'
p1025
asg9
(lp1026
S'elles ont contribu\xc3\xa9 \xc3\xa0 \xc3\xa9difier le c\xc3\xb4ne , composite , form\xc3\xa9 \xc3\xa0 la fois de laves et de projections'
p1027
ass(S'fountain'
p1028
S'fontaine'
p1029
S'shoot'
p1030
S'donner'
p1031
tp1032
(dp1033
g7
(lp1034
S'as the lava reaches the surface , a fall in pressure allows the gases it holds to boil suddenly , shooting fountains of lava into the air'
p1035
aS'during the 1959 kilauea iki eruption , lava fountains shot 1,900 feet , the record height for historic hawaiian eruptions and likely the highest lava fountain yet observed on earth'
p1036
asg9
(lp1037
ss(S'dome'
p1038
S'd\xc3\xb4me'
p1039
S'grow'
p1040
S'augmenter'
p1041
tp1042
(dp1043
g7
(lp1044
S'bottom seen in august 1985 from the same station; the dome has grown considerably wider and another 220 feet higher photographs by lyn topinka'
p1045
aS'this viscous lava dome began to erupt in 1922 and is still growing toda ! an empirical example of dome growth through time is shown in the illustration below for the mt'
p1046
aS'a volcanic dome growing in the mount st'
p1047
aS'in the past few years , the volcano has calmed , but the dome continues to grow and collapse'
p1048
aS'the plume , rising on 22 january from the most recent , growing dome , is inset into a hole blasted on 17 september 1996 into the next oldest dome , formed since november 1995'
p1049
aS'if the dome grows as it is , something has to give one way or another, said dr'
p1050
aS'when the sides of the growing dome become too steep , rock avalanches away'
p1051
aS'a dome grows largely by expansion from within'
p1052
aS':45 a.m. , august 18 the dome is already growing internally , but we have not seen any discrete event yet , for example , an explosion , a change in the character of seismicity or deformation'
p1053
aS'more than 500 similar small explosions occurred sporadically until 1986 , during times when the dome was not growing'
p1054
aS'during this time , the dome grew not only as lava was added to its surface extrusion but also as magma entered and inflated the dome as if a water balloon were being filled intrusion'
p1055
aS'helens as a volcanic dome grew within the crater of the volcano'
p1056
aS'helens , a volcanic dome began to grow within the crater'
p1057
asg9
(lp1058
ss(S'cinder'
p1059
S'scorie'
p1060
S'bit'
p1061
S'fragment'
p1062
tp1063
(dp1064
g7
(lp1065
S'at devastation trail , our next stop , we paused at a cinder cones called puu puai , created in 1959 when a lava fountain surged out of a vent in kilauea s side and threw up cinder bits that fell steadily around the vent , eventually forming the cone'
p1066
asg9
(lp1067
ss(S'gas'
p1068
S'gaz'
p1069
S'discharge'
p1070
S'd\xc3\xa9gager'
p1071
tp1072
(dp1073
g7
(lp1074
S'a volcano is essentially an opening or a vent through which this magma and the dissolved gases it contains are discharged'
p1075
aS'some mild eruptions merely discharge steam and other gases , whereas other eruptions quietly extrude quantities of lava'
p1076
aS'79 , great quantities of ash-laden gas are violently discharged to form cauliflower-shaped cloud high above the volcano'
p1077
aS'these new methods include monitoring the changes i : the composition and amount of volcanic gases discharged such as sulfur dioxide , carbon dioxide , hydrogen , helium , and radon; the magnetic and gravitational fields of the volcano; and the various geoelectrical properties of the volcano'
p1078
asg9
(lp1079
S'une \xc3\xa9ruption moyenne d\xc3\xa9gage moins de gaz toxiques qu une centrale \xc3\xa9lectrique br\xc3\xbblant du charbon'
p1080
aS'a pomp\xc3\xa9i , la mort frappe ceux qui se sont r\xc3\xa9fugi\xc3\xa9s dans les caves et \xc3\xa0 l int\xc3\xa9rieur des maisons pour \xc3\xa9chapper \xc3\xa0 la pluie de ponces : ils mourront asphyxi\xc3\xa9s par les gaz irrespirables que d\xc3\xa9gagent les pyroclastites en refroidissant'
p1081
aS'la disette qui suivit , quant \xc3\xa0 elle , fit 10 000 victimes , soit un quart de la population d alors ! le laki d\xc3\xa9gagea une telle quantit\xc3\xa9 de gaz et de poussi\xc3\xa8res qu une brume \xc3\xa9paisse s installa pendant plusieurs mois sur toute l europe , diminuant le rayonnement solaire ; l hiver 1783-1784 fut l un des plus froids du xviiie si\xc3\xa8cle'
p1082
aS'en se d\xc3\xa9gageant dans l atmosph\xc3\xa8re , les gaz volcaniques s oxydent et se condensent'
p1083
ass(S'eruption'
p1084
S'\xc3\xa9ruption'
p1085
S'arise'
p1086
S'survenir'
p1087
tp1088
(dp1089
g7
(lp1090
S'these flank eruptions arise when magma beneath the summit exerts such pressure on the walls of the pipe or fissure in which it flows that the rock cracks'
p1091
asg9
(lp1092
S'a l occasion de l \xc3\xa9ruption survenue en 1958 \xc3\xa0 l \xc3\xaele faial , aux a\xc3\xa7ores , il donne son avis d expert , pour la premi\xc3\xa8re fois : pas de panique'
p1093
aS'elle pourrait s expliquer , estime-t-il , par une petite \xc3\xa9ruption survenue en 1990 dans la zone tropicale et qui nous aurait \xc3\xa9chapp\xc3\xa9'
p1094
aS'des dizaines d \xc3\xa9ruptions surviennent chaque ann\xc3\xa9e sur la terre sans qu il ait jamais \xc3\xa9t\xc3\xa9 \xc3\xa9tabli de relations entre elles'
p1095
aS'depuis seize ans que l observatoire de l institut physique du globe ipg s est install\xc3\xa9 20 kilom\xc3\xa8tres plus bas , les vingt-huit \xc3\xa9ruptions survenues ont toutes \xc3\xa9t\xc3\xa9 pr\xc3\xa9vues'
p1096
aS'a : \xc3\xa9ruption survenant sous un glacier avec accumulation de pillow-lavas dans un lac captif sous la glace'
p1097
aS'<#sa-10-19> n\xc2\xb0534 la ceinture de feu les d\xc3\xa9mons en fureur apr\xc3\xa8s 635 ans de l\xc3\xa9thargie , le pinatubo , aux philippines , a explos\xc3\xa9 \xc3\xa0 la mi-juin : la plus importante \xc3\xa9ruption du si\xc3\xa8cl ! au japon , l \xc3\xa9ruption du mont unzen , survenue le 3 juin , n est pas encore termin\xc3\xa9e'
p1098
aS'la d\xc3\xa9b\xc3\xa2cle du glacier , cons\xc3\xa9cutive \xc3\xa0 la fonte des glaces provoqu\xc3\xa9e par la pr\xc3\xa9c\xc3\xa9dente \xc3\xa9ruption , survenue d\xc3\xa9but octobre le monde du 7 novembre , a provoqu\xc3\xa9 des d\xc3\xa9g\xc3\xa2ts consid\xc3\xa9rables'
p1099
aS'<#mon-7-41> le monde du 06/06/1991 pag : 15 titre d articl : l \xc3\xa9ruption la plus meurtri\xc3\xa8re au japon depuis 1926 le volcan unzen a fait au moins trente-trois morts les peurs de l archipel la recherche des victimes de la violente \xc3\xa9ruption de l unzen survenue le 3 juin a d\xc3\xbb \xc3\xaatre interrompue pr\xc3\xa9cipitamment dans la matin\xc3\xa9e du 5 juin , en raison d un brusque accroissement de l activit\xc3\xa9 du volcan'
p1100
aS'nodak.edu doc avec une carte le feu sous la glace <#mon-7-123> 23 octobre 1996 , page 22 aujourd hui - sciences volcanologie l eruption du volcan grimsvotn dejoue les previsions des specialistes la terre avait pr\xc3\xa9venu l \xc3\xa9ruption volcanique survenue en islande ces derni\xc3\xa8res semaines a \xc3\xa9t\xc3\xa9 pr\xc3\xa9c\xc3\xa9d\xc3\xa9e pendant plus d un an d une s\xc3\xa9rie d \xc3\xa9ruptions mineures et de petits s\xc3\xa9ismes qui ont secou\xc3\xa9 le glacier vatnaj\xc3\xb6kull'
p1101
aS'<#mon-7-117> le monde du 7 novembre 1996 , page 1 un glacier en col\xc3\xa8re la crue du glacier islandais vatnaj\xc3\xb6kull , cons\xc3\xa9cutive \xc3\xa0 la fonte des glaces caus\xc3\xa9e par l \xc3\xa9ruption du volcan grimsv\xc3\xb6tn survenue d\xc3\xa9but octobre , a commenc\xc3\xa9 mardi 6 novembre'
p1102
ass(S'cinder'
p1103
S'scorie'
p1104
S'blast'
p1105
S'd\xc3\xa9truire'
p1106
tp1107
(dp1108
g7
(lp1109
S'at the same time the latest blasts of cinder and ash shook the island for up to 40 minutes , according to a report from the montserrat volcano observatory'
p1110
asg9
(lp1111
ss(S'cone'
p1112
S'c\xc3\xb4ne'
p1113
S'symmetrical'
p1114
S'sym\xc3\xa9trique'
p1115
tp1116
(dp1117
g7
(lp1118
S'helens a composite volcano or stratovolcano , a term for steepsided , often symmetrical cones constructed of alternating layers of lava flows , ash , and other volcanic debris'
p1119
aS'they are typically steep-sided , symmetrical cones of large dimension built of alternating layers of lava flows , volcanic ash , cinders , blocks , and bombs and may rise as much as 8,000 feet above their bases'
p1120
aS'one of the most active volcanoes in cook inlet is augustine , whose symmetrical cone rises 1,254 meters above the sea'
p1121
asg9
(lp1122
S'son c\xc3\xb4ne sym\xc3\xa9trique se trouve dans un massif volcanique situ\xc3\xa9 \xc3\xa0 l int\xc3\xa9rieur de la caldera du karymsky , effondr\xc3\xa9e il y a 77 000 ans'
p1123
ass(S'debris'
p1124
S'd\xc3\xa9bris'
p1125
S'avalanche'
p1126
S'avalanche'
p1127
tp1128
(dp1129
g7
(lp1130
S'devastating mudflows or floods or both could be triggered by any or all of the followin : heavy rainfall during storms , melting of snow and ice by hot eruptive products especially pyroclastic flows , or sudden failure of one of the lakes impounded by the debris avalanche deposits'
p1131
aS'as might be expected , when the hot material of the debris avalanche and the even hotter pyroclastic flows encountered bodies of water or moist ground , the water flashed explosively to steam; the resulting phreatic steam-blast explosions sent plumes of ash and steam as high as 1.2 miles above the ground'
p1132
aS'this gloria image shows the nuuana and wailua debris avalanches of the coasts of oahu and molokai , respectively'
p1133
aS'aerial views of the volcano at the moment the summit collapse see text triggered the debris avalanche and associated catastrophic eruption photographs selected from the copyrighted sequence taken by keith and dorothy stoffel'
p1134
aS'the eruption of ash also further enlarged the depression formed initially by the debris avalanche and lateral blast , and helped to create a great amphitheater-shaped crater open to the north'
p1135
aS'debris avalanches are thin and long relative to slumps'
p1136
aS'helens showing the cryptodome of magma that produced the bulge and the three major blocks that collapsed to form the debris avalanche after usgs professional paper 1250'
p1137
aS'helens upper right showing the valley choked with the hummocky deposits of the debris avalanche photograph by austin post'
p1138
aS'helens , which erupted on may 18 , 1980 , in a wooded area of washington state , creating a rapid and sudden flowing of rock and other materials known as a ``debris avalanche. italy s mount vesuvius , which erupted in ad 79 , covering the ancient cities of pompeii and herculanium , is another example of a sudden volcanic eruption'
p1139
aS'debris avalanches are single events that occur rapidly moore and others , 1989'
p1140
aS'0 :3 :49.2 a little more than 2 seconds later , as the slide blocks continued to move , the initial explosions of the vertical eruption column as well as the lateral blast , although obscure , had already begun.0 :3 :18.8 less than a minute after the start of the debris avalanche , the eruption of mount st'
p1141
aS'helens eruption in a matter of hours caused loss of lives and widespread destruction of valuable property , primarily by the debris avalanche , the lateral blast , and the mudflows'
p1142
aS'what appear to be blades of mown grass are actually large trees , some over 100 feet tall , flattened by the tremendous force of the lateral blast , even out to distances as far as 19 miles from the volcano photograph by daniel dzurisin.although the lateral blast began some seconds later than the debris avalanche , the blast s velocity was much greater , so that it soon overtook the avalanche'
p1143
aS'helens north flank , which produced the debris avalanche and triggered the ensuing violent lateral and vertical eruptions'
p1144
aS'covering an area of about 24 square miles , the debris avalanche advanced more than 13 miles down the north fork of the toutle river and filled the valley to an average depth of about 150 feet; the total volume of the deposit was about 0.7 cubic mile'
p1145
aS'the largest and most destructive mudflows , however , were those that developed several hours later in the north fork of the toutle river , when the water-saturated parts of the massive debris avalanche deposits began to slump and flow'
p1146
aS'they include debris avalanches more than 125 miles long, he told me'
p1147
aS'the abrupt pressure release , or uncorking, of the volcano by the debris avalanche can be compared in some ways to the sudden removal of the cap or a thumb from a vigorously shaken bottle of soda pop , or to punching a hole in a boiler tank under high pressure'
p1148
aS'debris avalanches moved on an overall slope <31/4 , disrupted the flanks of the volcano to produce individual blocks , and formed amphitheaters at their heads and hummocky terrain in their lower parts'
p1149
aS'today , the river draining the debris avalanche deposit of mount st'
p1150
aS'the magma is continuing to ooze upward , cracking open the remains of the old dome and daily sending three to four avalanches of debris down the slopes'
p1151
aS'the volume of the uncompacted ash is equivalent to about 0.05 cubic mile of solid rock , or only about 7 percent of the amount of material that slid off in the debris avalanche'
p1152
aS'moore and others 1989 identified two types of landslide : slumps and debris avalanches'
p1153
aS'the dumping of avalanche debris into spirit lake raised its bottom by about 295 feet and its water level by about 200 feet'
p1154
aS'debris avalanche , a rapid and unusually sudden sliding or flowage of unsorted masses of rock and other material'
p1155
aS'the leading front of the lateral blast now had completely overtaken the debris avalanche'
p1156
aS'within the next 15 seconds , the north flank of the volcano began to ripple and churn up , without moving laterally. at the same time the stoffels were witnessing from the air the developing debris avalanche , a remarkable series of ground-based photographs was being taken by keith ronnholm and gary rosenquist from bear meadows , a camping area located about 11 miles northeast of mount st'
p1157
aS'blast-downed trees foreground , hummocky debris avalanche deposit valley floor , and beheaded mount st'
p1158
aS'the lateral blast , debris avalanche , and associated mudflows and floods caused most of the casualties and destruction on may 18; the adverse impact of volcanic ash fallout downwind was minor by comparison'
p1159
aS'b and c , within about 30 seconds after the collapse show the progressive development of the debris avalanche and the beginning of both the lateral blast and vertical eruption , as the cryptodome was exposed; the bulge block was the first to slide , followed by the graben block'
p1160
aS'the beginning of the north flank s collapse and downward movement to initiate the debris avalanche was estimated to be 26 seconds earlier 0 :3 :21.0 pdt'
p1161
aS'their summits have collapsed and their flanks have crumbled in huge debris avalanches'
p1162
aS'because of their rapid movement and large volume , debris avalanches generate tsunami'
p1163
aS'the series of slide blocks merged downslope into a gigantic debris avalanche , which moved northward at speeds of 110 to 155 miles an hour'
p1164
aS'debris avalanche'
p1165
aS'according to fisk and his colleagues on the nrc committee , debris avalanches , lahars , and floods pose the most likley hazard at mount rainier'
p1166
aS'helens as a reference , volcanologists have recognized evidence for more than 400 prehistoric debris avalanches 4'
p1167
aS'helens victims died by asphyxiation from inhaling hot volcanic ash , and some by thermal and other injuries.the lateral blast , debris avalanche , mudflows , and flooding caused extensive damage to land and civil works'
p1168
aS'destructive mudflows and debris flows began within minutes of the onset of the may 18 eruption , as the hot pyroclastic materials in the debris avalanche , lateral blast , and ash falls melted snow and glacial ice on the upper slopes of mount st'
p1169
aS'tsunami caused by debris avalanches reached heights of 230 feet 70 m on molokai and 1,065 feet 325 m on lanai'
p1170
aS'the collapse of the north flank produced the largest landslide-debris avalanche recorded in historic time'
p1171
aS'since 1980 , with the debris avalanche of mount st'
p1172
aS'debris avalanches'
p1173
aS'most of the may 18 , 1980 deposits in the upper valley of the north fork toutle river and in the vicinity of spirit lake are from the debris avalanche'
p1174
aS'the latter has been the source of large debris avalanches and pyroclastic and lava flows'
p1175
aS'the high-velocity lateral blast cloud , with its clearly visible trajectory trails of large blocks , was overtaking the slower moving debris avalanche'
p1176
aS'a mixture of these materials is a debris avalanche'
p1177
aS'helens in turn featured a giant volcanic landslide - a debris avalanche---and the associated lateral blast see the figure'
p1178
aS'significant avalanches of debris from the sherman crater area could have swept directly into the reservoir , triggering a disastrous wave that would have caused loss of life and damage to the reservoir'
p1179
aS'the collapse of the north face of the mountain produced an avalanche of debris that filled 60 square kilometres of the north fork of the toutle river valley to a depth of 45 metres within 10 minutes'
p1180
aS'within a few seconds after the onset and mobilization of the debris avalanche , the climactic eruptions of may 18 began as the sudden unloading of much of the volcano s north flank abruptly released the pent-up pressure of the volcanic system'
p1181
aS'the potential for mudflows and floods was increased by the existence of new ponds and lakes formed when the debris avalanche of may 1980 blocked parts of the preexisting drainage to serve as natural dams'
p1182
asg9
(lp1183
S'avalanches de d\xc3\x89bris l \xc3\xa9dification d un volcan s accompagne de glissements gravitaires ou avalanches de d\xc3\xa9bris qui se d\xc3\xa9clenchent le long d un plan de glissement avant de se d\xc3\xa9sagr\xc3\xa9ger en d\xc3\xa9bris de taille pluri-hectom\xc3\xa9trique \xc3\xa0 inframillim\xc3\xa9trique , les particules les plus fines constituant la matrice des plus grosses'
p1184
aS'les avalanches de d\xc3\xa9bris ont \xc3\xa9t\xc3\xa9 longtemps ignor\xc3\xa9es'
p1185
ass(S'fountain'
p1186
S'fontaine'
p1187
S'spurt'
p1188
S'jaillir'
p1189
tp1190
(dp1191
g7
(lp1192
S'to : a 40-foot arching hose fountain spurts from pu u o o vent in 1983'
p1193
aS'clouds of ash the volcano , europe s highest at 10,900 feet , pumped out huge dark clouds of ash and spurted fountains of magma 300 to 600 feet into the air'
p1194
aS'these tend to be cracks in the ground , rather than the familiar conical mountains , through which ``fire fountains spurt'
p1195
asg9
(lp1196
ss(S'gas'
p1197
S'gaz'
p1198
S'toxic'
p1199
S'toxique'
p1200
tp1201
(dp1202
g7
(lp1203
S'scientists believe the temperature and weight of the lava flowing into lake kivu could allow vast quantities of methane to escape from the bottom of the lake , covering both towns in toxic gas'
p1204
aS'these awesome features are heavier-than-air emulsions that move much like a snow avalanche , except that they are fiercely hot , contain toxic gases , and move at phenomenal , hurricane-force speeds , often over 100 km/hour'
p1205
aS'with such information in hand , scientists can construct so-called volcanic hazards maps that delineate the zones of greatest risk around the volcano and that designate which zones are particularly susceptible to certain types of volcanic hazards lava flows , ash fall , toxic gases , mudflows and associated flooding , etc.'
p1206
aS'but fires continued to burn there , the ground shook at regular intervals and experts said that while the volcano appeared to have spewed all its lava for now , toxic gas remained a danger'
p1207
aS'toxic gases seeping through the lava sting the eyes and clog the lungs'
p1208
aS'these dangerous eruptions are often associated with deadly pyroclastic flows composed of hot volcanic fragments and toxic gases that advance down slopes at hurricane-force speeds'
p1209
aS'visitors have to contend with toxic gases , noxious fumes , and showers of hot ash'
p1210
aS'amid choking clouds of toxic gas and dust , it smashed down the forest valley , burst through the american s living room , badly burnt his young daughter - then inexplicably stopped dead in a corridor in the middle of the house'
p1211
aS'these avalanches of hot lava fragments and toxic gases have killed thousands of people throughout history'
p1212
aS'chemical reactions are responsible for two types of toxic gas mixtures that are a particular problem for residents and tourists on the the big island of hawaii'
p1213
asg9
(lp1214
S'une \xc3\xa9ruption moyenne d\xc3\xa9gage moins de gaz toxiques qu une centrale \xc3\xa9lectrique br\xc3\xbblant du charbon'
p1215
aS'en 1984 , un jaillissement de gaz toxique pr\xc3\xa8s d un autre volcan , \xc3\xa0 quelque 200 km du mont cameroun , avait tu\xc3\xa9 37 paysans , retrouv\xc3\xa9s asphyxi\xc3\xa9s exactement comme les morts du lac nios'
p1216
aS'les gaz toxiques , la temp\xc3\xa9rature insupportable , la pluie de cendres incandescentes et de sables ont fait de nombreuses victimes 3'
p1217
aS'tout le monde est d accord pour penser que le gaz toxique est venu du fond du lac'
p1218
aS'en 1986 , l \xc3\xa9ruption du lac volcanique de nyos au cameroun lib\xc3\xa9ra une nu\xc3\xa9e de gaz toxiques et provoqua la mort de 1 700 personnes'
p1219
aS'l autre explication , propos\xc3\xa9e par un ing\xc3\xa9nieur du cnrs , brille surtout pas son ing\xc3\xa9niosit\xc3\xa9 et par les perspectives optimistes qu elle ouvrirait quant \xc3\xa0 la possibilit\xc3\xa9 de pr\xc3\xa9voir \xc3\xa0 temps une nouvelle exhalaison de gaz toxiques'
p1220
aS'malgr\xc3\xa9 le danger , les gaz toxiques , la p\xc3\xa9nibilit\xc3\xa9 de sa t\xc3\xa2che , il pr\xc3\xa9f\xc3\xa8re la montagne , les bivouacs sous sa hutte de chaume o\xc3\xb9 , pour lutter contre le froid , il doit dormir serr\xc3\xa9 entre ses deux apprentis , dans la fum\xc3\xa9e \xc3\xa2cre du foyer , qui chasse les insectes mais n effarouche pas les rats'
p1221
aS'de haut en bas et de gauche \xc3\xa0 droite : rester \xc3\xa9loign\xc3\xa9 des coul\xc3\xa9es de lave ; se prot\xc3\xa9ger le visage des gaz toxiques ; attention aux projections de bombes volcaniques jusque dans la mer ; gagner les points \xc3\xa9lev\xc3\xa9s en cas de raz de mar\xc3\xa9e ; s abriter sous des structures solides en cas de s\xc3\xa9isme aquarelle isabelle bardintzeff'
p1222
aS'celui du second plan , vert , est acide et bouillonne en son centre ; la v\xc3\xa9g\xc3\xa9tation a \xc3\xa9t\xc3\xa9 d\xc3\xa9truite tout autour par les gaz toxiques'
p1223
aS'\xc3\xa0 quero et macha , les habitants se prot\xc3\xa8gent des cendres et des gaz toxiques \xc3\xa0 l aide de masques , de foulards ou de mouchoirs'
p1224
aS'selon l une , une fraction au moins des gaz toxiques ne serait pas d origine volcanique'
p1225
aS'aucune substance alimentaire ne pr\xc3\xa9serve des effets foudroyants d un passage de gaz toxique'
p1226
aS'en cas de reprise d activit\xc3\xa9 , les micros\xc3\xa9ismes engendr\xc3\xa9s par la mont\xc3\xa9e du magma , peuvent fissurer les parois du lac et l amener \xc3\xa0 se vidanger ou lib\xc3\xa9rer de grandes nappes meurtri\xc3\xa8res de gaz toxiques'
p1227
aS'avant le jaillissement du fond du crat\xc3\xa8re du gaz toxique , cette boue s accumulait au fond du lac'
p1228
aS'a la diff\xc3\xa9rence des lacs acides , au fond desquels des fumerolles lib\xc3\xa8rent toutes sortes de gaz toxiques , aucune source ne vient polluer ses eaux claires'
p1229
aS'un quart de la population et trois quarts du b\xc3\xa9tail islandais ont succomb\xc3\xa9 sous les torrents de lave 565 kilom\xc3\xa8tres carr\xc3\xa9s , les nu\xc3\xa9es ardentes , les pluies de cendres 8000 kilom\xc3\xa8tres carr\xc3\xa9s et les gaz toxiques'
p1230
aS'tout autour , il ne reste que le spectre de la for\xc3\xaat vierge , empoisonn\xc3\xa9e par les gaz toxiques'
p1231
aS'bravant fumerolles et gaz toxiques , des mineurs y ramassent le pr\xc3\xa9cieux pactole au p\xc3\xa9ril de leur vie'
p1232
aS'les gaz les gaz sont omnipr\xc3\xa9sents lors de toutes les phases d activit\xc3\xa9 volcaniqu : en majorit\xc3\xa9 de la vapeur d eau peu dangereuse mais aussi des gaz toxiques tels le dioxyde de soufre , l hydrog\xc3\xa8ne sulfur\xc3\xa9 ou encore le gaz carbonique'
p1233
aS'le magma charg\xc3\xa9 de gaz toxiques qui se rue \xc3\xa0 la surface de la terre se fragmente en poussi\xc3\xa8res , blocs de pierre , etc. , engendrant une rapide nu\xc3\xa9e ardente qui extermine tout ce qu elle recouvre , enterrant la vie sous une couche de cendres de plusieurs dizaines ou centaines de m\xc3\xa8tres d \xc3\xa9paisseur \xc3\xa0 des centaines de kilom\xc3\xa8tres \xc3\xa0 la ronde lire l encadr\xc3\xa9 ci-dessus'
p1234
aS'or il se trouve que pour les sp\xc3\xa9cialistes , apparition d une nappe de gaz toxique dans une r\xc3\xa9gion volcanique n a rien d insolite ni d \xc3\xa9nigmatique'
p1235
aS'nous trouvons un emplacement judicieux pour nos deux petites tentes , sur une plateforme situ\xc3\xa9e \xc3\xa0 mi-hauteur de la paroi du crat\xc3\xa8re , o\xc3\xb9 nous serons \xc3\xa0 la fois prot\xc3\xa9g\xc3\xa9s du vent et au-dessus d \xc3\xa9ventuels nuages de gaz toxiques'
p1236
aS'certains volcans de cet alignements pr\xc3\xa9sentent des risques importants car leur lac de crat\xc3\xa8re a lib\xc3\xa9r\xc3\xa9 des gaz toxiques : 37 morts au lac monoun en 1984 et 1 746 morts au lac nyos en 1986'
p1237
ass(S'dome'
p1238
S'd\xc3\xb4me'
p1239
S'growth'
p1240
S'croissance'
p1241
tp1242
(dp1243
g7
(lp1244
S'for instance , mount st helens in washington switched between lava dome growth and violent eruptions several times between may and october 1980 , and geologists are naturally keen to know why'
p1245
aS'this viscous lava dome began to erupt in 1922 and is still growing toda ! an empirical example of dome growth through time is shown in the illustration below for the mt'
p1246
aS'more small explosions occurred during the spring and summer months , and on september 10-12 a large lava lobe was extruded , accompanied by major distention of the north part of the dome at unprecedented rates that approached 120 feet per da ! dramatic dome growth during the 1981-85 perio : top viewed in august 1981 from a camera station at a distance of about 0.5 mile; the dome is about 535 feet high , or nearly as tall as the george washington monument'
p1247
aS'visual monitoring is supported by remote video surveillance of the crater area and by still photography and video recording of dome growth patterns and block-and-ash flow emplacement'
p1248
aS'the roles of magma supply and ascent rates , degassing and crystallization , and other controls on explosive eruptions and dome growth were tested and quantified 1 /0'
p1249
aS'small pyroclastic flows accompanied growth of the dome.scientists were worried that this eruption might trigger a giant landslide from augustine s steep upper cone , which could enter the sea to create a tsunami powerful seismic sea wave'
p1250
aS'slow growth of the dome took place more or less continuously throughout 1983 , accompanied at times by small explosions from a crater at the crest of the dome'
p1251
aS'the may and august episodes reverted to the nonexplosive style and involved only dome growth'
p1252
aS'such activity could include the outpouring of lava flows not observed to date , as well as renewed dome growth and small-to-moderate explosive events'
p1253
aS'helens could similarly remain active for several decades , and continuing dome growth ultimately may fill the crater to form a new conical summit photograph courtesy of the kamchatka volcanological station'
p1254
aS'moreover , the rate of sulfur dioxide release had progressively decreased with time , suggesting that the magma was running out of gas. thus , scientists were not surprised that no dome growth took place during the last 3 years of the 1980s'
p1255
aS'since october 1996 , a new dome has filled in the explosion vent , and pyroclastic flows have resumed however , dome growth has been episodic , out of phase with swarms of unusual earthquakes that probably reflect magma fracture during injection; the southern crater wall began to shed large rock slides in response to earthquakes in these swarms , and concerns were raised about its stability , fearing a massive depressurization of the dome and conduit behind the wall'
p1256
aS'the eruption will consist primarily of dome growth. advisory update'
p1257
aS'repeating the cycle again and again , dome growth and explosion have slowly escalated in scale at soufriere hills'
p1258
aS'its surface is often rough and blocky as a result of fragmentation of the cooler , outer crust during growth of the dome'
p1259
aS'the eruption will consist primarily of dome growth , but as with all dome growth , minor explosive activity is also possible. eruption alert :55 a.m. , august 17 seismicity and rates of deformation in the crater have accelerated sharply'
p1260
aS'dome growth followed this explosion'
p1261
asg9
(lp1262
S'saint helens \xc3\x89tats-unis , croissance du d\xc3\xb4me de lave , explosion de cendres le 19 mars montant \xc3\xa0 13,5 kilom\xc3\xa8tres de hauteur'
p1263
aS'pis encore , sur le m\xc3\xaame pos , le p\xc3\xa9rim\xc3\xa8tre du mus\xc3\xa9e \xc3\xa0 ciel ouvert a \xc3\xa9t\xc3\xa9 class\xc3\xa9 en zone agricole ! <#mon-7-208> 22 ao\xc3\xbbt 1997 , page 15 aujourd hui la soufri\xc3\xa8re de montserrat est de plus en plus mena\xc3\xa7ante la croissance du d\xc3\xb4me de la soufri\xc3\xa8re de l \xc3\xaele de montserrat , dans les cara\xc3\xafbes , se poursuit , sur un fond de forte activit\xc3\xa9 sismique'
p1264
aS'\xc2\x95 6 au 10 f\xc3\xa9vrier merapi indon\xc3\xa9sie , grosses explosions vulcaniennes entra\xc3\xaenant d importantes chutes de cendres qui d\xc3\xa9truisent les r\xc3\xa9coltes ; nouvelle croissance du d\xc3\xb4me de lave apr\xc3\xa8s l effondrement des 3/5e de celui-ci le 1er d\xc3\xa9cembre 1981'
p1265
aS'la croissance d un d\xc3\xb4me de lave visqueuse a d\xc3\xa9but\xc3\xa9'
p1266
aS'cette \xc3\xa9ruption se caract\xc3\xa9rise par une activit\xc3\xa9 \xc3\xa9ruptive comparable \xc3\xa0 celle du d\xc3\xa9but de 1902 , avec croissance d un d\xc3\xb4me dans le crat\xc3\xa8re sommital et destruction de ce dernier par des explosions dirig\xc3\xa9es lat\xc3\xa9ralement'
p1267
ass(S'cinder'
p1268
S'scorie'
p1269
S'incandescent'
p1270
S'incandescent'
p1271
tp1272
(dp1273
g7
(lp1274
S'strombolian eruptions are named for stromboli volcano off the west coast of italy , where a typical eruption consist of the rhythmic ejection of incandescent cinder , lapilli , and bombs to heights of a few tens or hundreds of feet meters'
p1275
aS'gas leaving the magma propelled incandescent cinder and ash as high as 1,900 feet 580 m above the vent'
p1276
asg9
(lp1277
S'il a donn\xc3\xa9 son nom au type d activit\xc3\xa9 volcanique dite strombolienne , s accompagnant d explosions avec projection de scories incandescentes'
p1278
aS'le dynamisme strombolien il s exprime par des explosions rythmiques qui projettent des blocs et des scories incandescents'
p1279
ass(S'basalt'
p1280
S'basalte'
p1281
S'form'
p1282
S'former'
p1283
tp1284
(dp1285
g7
(lp1286
S'when basalt enters water passively , it forms pillow basalt'
p1287
aS'whereas basalt forms a a and pahoehoe lava , andesite generally produces blocky lava , which contains smooth-sided , angular fragments blocks that are not as splintery or vesicular as a a lava fragments'
p1288
aS'hall rested rocks in a hot iron foundry and showed that molten basalt forms crystals if cooled slowly'
p1289
asg9
(lp1290
S'les fonds oc\xc3\xa9aniques , qui repr\xc3\xa9sentent 60 % de la surface du globe , sont form\xc3\xa9s de basalte'
p1291
ass(S'crater'
p1292
S'crat\xc3\xa8re'
p1293
S'lip'
p1294
S'bord'
p1295
tp1296
(dp1297
g7
(lp1298
S'nor did anything remain of geoff brown , an expert in volcanoes from the open university , or fernando cuenca , who had been close to trujillo on the lip of the crater'
p1299
asg9
(lp1300
S'les bornes de b\xc3\xa9ton que vous croiserez sur les bords du crat\xc3\xa8re sont autant de points fixes , enfonc\xc3\xa9s tr\xc3\xa8s profond\xc3\xa9ment dans le sol , qui permettent aux sp\xc3\xa9cialistes de mesurer r\xc3\xa9guli\xc3\xa8rement les moindres mouvements du volcan'
p1301
aS'assis au bord du crat\xc3\xa8re du pariou , nous imaginions ensemble ce qui avait du se passer il y a 8 000 ans environ'
p1302
aS'au bromo en indon\xc3\xa9sie , des offrandes fleurs , soie , nourriture , pi\xc3\xa8ces de monnaie \xc3\xa0 brahma sont d\xc3\xa9pos\xc3\xa9es au bord du crat\xc3\xa8re ou jet\xc3\xa9es dans celui-ci ; des pr\xc3\xaatres , suivis des fid\xc3\xa8les , doivent faire , de nuit , trois fois le tour du crat\xc3\xa8re pour assurer une nouvelle ann\xc3\xa9e sans \xc3\xa9ruptions'
p1303
aS'lac nyos cameroun de notre envoy\xc3\xa9 sp\xc3\xa9cial vue des bords du crat\xc3\xa8re , la t\xc3\xaate du puits appara\xc3\xaet comme une t\xc3\xaate d \xc3\xa9pingle au milieu du lac'
p1304
aS'cette station laser automatique mesure une fois par minute la distance entre les deux bords du crat\xc3\xa8re principal du piton de la fournaise \xc3\xa0 5 millim\xc3\xa8tres pr\xc3\xa8s'
p1305
aS'un extensom\xc3\xa8tre mesure l \xc3\xa9cartement des deux l\xc3\xa8vres d une faille dans le crat\xc3\xa8re principal du volcan , tandis qu un distancem\xc3\xa8tre automatique rel\xc3\xa8ve \xc3\xa0 chaque minute la distance entre les deux bords du crat\xc3\xa8re principal , soit 697 m\xc3\xa8tres , avec une pr\xc3\xa9cision de quelques millim\xc3\xa8tres'
p1306
aS'nous arrivons au bord du crat\xc3\xa8re actif , b\xc3\xa9ant'
p1307
aS'une fa\xc3\xa7on de prendre le pouls du colosse au bord du crat\xc3\xa8re du vulcano \xc3\xaeles eoliennes , un chercheur mesure \xc3\xa0 distance la temp\xc3\xa9rature d une fumerolle \xc3\xa0 l aide d un pistolet \xc3\xa0 infrarouges'
p1308
aS'mais le bord du crat\xc3\xa8re est parcouru de vents contraires qui ont rapidement raison des flammes'
p1309
aS'au d\xc3\xa9but d avril 1906 , le panache de vapeur qui sortait constamment du crat\xc3\xa8re s accrut ; en m\xc3\xaame temps , des secousses sismiques , des grondements souterrains , de petites explosions qui firent sauter le bord du crat\xc3\xa8re constitu\xc3\xa8rent la phase pr\xc3\xa9liminaire'
p1310
aS'certes , des pr\xc3\xa9l\xc3\xa8vements in\xc3\xa9dits de gaz , de chlore , de m\xc3\xa9taux lourds qui vont \xc3\xaatre analys\xc3\xa9s \xc3\xa0 grenoble ont \xc3\xa9t\xc3\xa9 effectu\xc3\xa9s au bord du crat\xc3\xa8re , et la mission est revenue riche d exp\xc3\xa9riences oc\xc3\xa9anographiques'
p1311
aS'pour parer \xc3\xa0 toute \xc3\xa9ventualit\xc3\xa9 , des abris antibombes ont \xc3\xa9t\xc3\xa9 construits sur le bord du crat\xc3\xa8re , rempli d acide chaud'
p1312
aS'quand la montagne est en crise , comme ici au bord du crat\xc3\xa8re fumant du kilauea , la f\xc3\xaate rev\xc3\xaat un caract\xc3\xa8re propitiatoire'
p1313
aS'au bord du crat\xc3\xa8re du kawah idjen , en indon\xc3\xa9sie , les fumerolles d\xc3\xa9posent de grandes quantit\xc3\xa9s de soufre'
p1314
aS'c est sous la conduite d un vulcanologue que la fnac voyages 6 , bd de s\xc3\xa9bastopol , 75004 paris , t\xc3\xa9l.: 42-71-31-25 propose d aller bivouaquer au bord du crat\xc3\xa8re pour y observer et y photographier le spectacle'
p1315
aS'au bord du crat\xc3\xa8re actuel sans doute celui de l \xc3\xa9ruption de 1631 , vous entendrez s\xc3\xbbrement l un des guides essayer de communiquer un frisson de crainte \xc3\xa0 un groupe de touristes , en affirmant que le v\xc3\xa9suve va se r\xc3\xa9veiller tr\xc3\xa8s , tr\xc3\xa8s bient\xc3\xb4t peut-\xc3\xaatre m\xc3\xaame dans la demi-heure qui sui !'
p1316
aS'les images les montrent au bord des crat\xc3\xa8res , \xc3\xa0 quelques m\xc3\xa8tres des projections de magma incandescent'
p1317
aS'<#mon-7-105> le monde du 08/03/1994 pag : 13 titre de l articl : environnement l exp\xc3\xa9dition de jean-louis etienne sur le volcan erebus les images du cousteau des glaces castaing michel si jean-louis etienne ne devait conserver qu un unique souvenir de son exp\xc3\xa9dition , achev\xc3\xa9e la semaine derni\xc3\xa8re , sur l erebus , seul volcan du p\xc3\xb4le sud en activit\xc3\xa9 , ce serait , a-t-il confi\xc3\xa9 mardi 1 mars devant la presse , les deux heures pass\xc3\xa9es seul , \xc3\xa9go\xc3\xafstement , au bord du crat\xc3\xa8re'
p1318
ass(S'lava'
p1319
S'lave'
p1320
S'gush'
p1321
S'jaillir'
p1322
tp1323
(dp1324
g7
(lp1325
S'lava began gushing out of mayon s crater before dawn yesterday , accompanied by loud rumblings'
p1326
aS'like fissures , hawaiian eruptions gush lava and fire'
p1327
aS'a plume of volcanic ash shot seven kilometres into the air as smouldering boulders flew skyward and lava gushed from the glowing crater in albay province , 217 kilometres southeast of manila , the capital'
p1328
aS'the weight of lava above caused lava to gush freely from the vents , and for a few hellish hours rock flowing almost like water engulfed villagers , their livestock , and wild elephants on the slopes'
p1329
asg9
(lp1330
S'profitant de la cassure , la lave jaillit'
p1331
aS'c est g\xc3\xa9n\xc3\xa9ralement par l\xc3\xa0 que jaillissent les laves en fusion et que s \xc3\xa9chappent les gaz'
p1332
aS'la lave en perp\xc3\xa9tuel mouvement jaillit parfois en fontaines'
p1333
aS'si la lave est tr\xc3\xa8s fluide , elle jaillit en fontaines , s \xc3\xa9tale en grandes coul\xc3\xa9es , ou bouillonne dans un lac de lave l \xc3\xa9ruption est dite hawaiienne , en l honneur des volcans \xc3\xa0 pentes tr\xc3\xa8s douces des \xc3\xaeles hawaii qui connaissent souvent ce type d activit\xc3\xa9'
p1334
aS'<#geo-15-17> hs l irr\xc3\xa9sistible \xc3\xa9lan du magma jean-yves durand les roches en fusion lui donnent naissance \xc3\xa0 cent kilom\xc3\xa8tres sous terre : le magma jaillit \xc3\xa0 la s\xc3\xb9rface sous forme de lave'
p1335
aS'il est assez exceptionnel , \xc3\xa9tant l un des trois volcans du globe \xc3\xa0 poss\xc3\xa9der un crat\xc3\xa8re-puits au fond duquel bouillonne , \xc3\xa0 80 m\xc3\xa8tres de profondeur , un lac de lave qui jaillit des entrailles de la terre'
p1336
aS'parfois en effet , la lave ne jaillit pas en surface mais la chaleur d\xc3\xa9gag\xc3\xa9e par la proximit\xc3\xa9 du magma peut mettre en place une zone thermale , comme celle de hveravellir en islande'
p1337
aS'ces laves extr\xc3\xaamement fluides qui jaillissent noires avant de blanchir en refroidissant au contact de l air tapissent le fond du vaste crat\xc3\xa8re circulaire de blanc et de gris'
p1338
aS'il suffit qu une fissure s y ouvre pour que la lave jaillisse \xc3\xa0 la surface'
p1339
aS'quand la lave fluide jaillit en fontaines et s \xc3\xa9tale en larges coul\xc3\xa9es , c est le type hawaiien non figur\xc3\xa9 ici'
p1340
aS'enfin , le 29 septembre , une nouvelle s\xc3\xa9rie de secousses , dont certaines atteignirent la magnitude de 5,4 sur l \xc3\xa9chelle de richter , furent d\xc3\xa9tect\xc3\xa9es vingt-quatre heures avant la grande \xc3\xa9mission de lave qui a jailli entre les volcans bardarbunga et grimsv\xc3\xb6tn'
p1341
aS'la plupart des crat\xc3\xa8res se forment parce que la lave qui jaillit retombe autour de la bouche du volcan et y \xc3\xa9difie un anneau de cendres et de blocs'
p1342
aS'mais ils ne croient pas qu elle entra\xc3\xaenera une modification climatique dufour jean paul volcanologie pendant quinze jours , la lave a jailli sans discontinuer sous le glacier islandais vatnaj\xc3\xb6kull'
p1343
ass(S'cinder'
p1344
S'scorie'
p1345
S'mound'
p1346
S'monceau'
p1347
tp1348
(dp1349
g7
(lp1350
S'most of it falls near the summit , building a steep-sided mound of cinders'
p1351
asg9
(lp1352
S'ici , seule la nature s autorise le plus grand d\xc3\xa9sordre , laissant tra\xc3\xaener partout des monceaux de scories , d\xc3\xa9roulant jusqu \xc3\xa0 la mer des champs de lave d\xc3\xa9chiquet\xc3\xa9e ou convuls\xc3\xa9e'
p1353
ass(S'cinder'
p1354
S'scorie'
p1355
S'hot'
p1356
S'incandescent'
p1357
tp1358
(dp1359
g7
(lp1360
sg9
(lp1361
S'il a donn\xc3\xa9 son nom au type d activit\xc3\xa9 volcanique dite strombolienne , s accompagnant d explosions avec projection de scories incandescentes'
p1362
aS'le dynamisme strombolien il s exprime par des explosions rythmiques qui projettent des blocs et des scories incandescents'
p1363
ass(S'volcan'
p1364
S'volcan'
p1365
S'drive'
p1366
S'conduire'
p1367
tp1368
(dp1369
g7
(lp1370
S'under montserrat lies the tectonic engine that drives the volcan : a subduction zone where the north and south american plates push beneath the caribbean plate and form the islands of the lesser antilles'
p1371
asg9
(lp1372
ss(S'cinder'
p1373
S'scorie'
p1374
S'form'
p1375
S'former'
p1376
tp1377
(dp1378
g7
(lp1379
S'explosive eruptions caused by gas rapidly expanding and escaping from molten lava formed cinders that fell back around the vent , building up the cone to a height of 1,200 feet'
p1380
aS'tradewinds blew the tephra to the southwest , where it accumulated to form the cinder cones'
p1381
asg9
(lp1382
S'ces \xc3\xa9v\xc3\xa9nements ont \xc3\xa9t\xc3\xa9 reconstitu\xc3\xa9s gr\xc3\xa2ce \xc3\xa0 des \xc3\xa9tudes g\xc3\xa9ologiques , des pr\xc3\xa9l\xc3\xa8vements sous-marins , et l \xc3\xa9tude de la pouzzolane , form\xc3\xa9e de scories volcaniques , dont la couche , sur l \xc3\xaele aujourd hui connue sous le nom de th\xc3\xa9ra , ou encore santorini sainte ir\xc3\xa8ne , atteint par endroits une trentaine de m\xc3\xa8tres'
p1383
aS'c est un petit c\xc3\xb4ne dont la paroi est abrupte , form\xc3\xa9 de scories soud\xc3\xa9es , se trouvant au-dessus du point d \xc3\xa9mission de la lave fluide pauvre en gaz fig'
p1384
ass(S'scoria'
p1385
S'scorie'
p1386
S'fragment'
p1387
S'fragment'
p1388
tp1389
(dp1390
g7
(lp1391
S'instead , strombolian eruptions are dominated by scoria fragments , which are highly vesiculated clasts of basalt with a cindery appearance'
p1392
asg9
(lp1393
ss.